
BalanceFuzzy.elf:     file format elf32-littlearm


Disassembly of section .text:

08000000 <__isr_vector>:
 8000000:	2001c000 	.word	0x2001c000
 8000004:	08000189 	.word	0x08000189
 8000008:	0800192d 	.word	0x0800192d
 800000c:	08001931 	.word	0x08001931
 8000010:	08001935 	.word	0x08001935
 8000014:	08001939 	.word	0x08001939
 8000018:	0800193d 	.word	0x0800193d
	...
 800002c:	08001941 	.word	0x08001941
 8000030:	08001945 	.word	0x08001945
 8000034:	00000000 	.word	0x00000000
 8000038:	08001949 	.word	0x08001949
 800003c:	0800194d 	.word	0x0800194d
 8000040:	080001db 	.word	0x080001db
 8000044:	080001dd 	.word	0x080001dd
 8000048:	080001df 	.word	0x080001df
 800004c:	080001e1 	.word	0x080001e1
 8000050:	080001e3 	.word	0x080001e3
 8000054:	080001e5 	.word	0x080001e5
 8000058:	080001e7 	.word	0x080001e7
 800005c:	080001e9 	.word	0x080001e9
 8000060:	080001eb 	.word	0x080001eb
 8000064:	080001ed 	.word	0x080001ed
 8000068:	080001ef 	.word	0x080001ef
 800006c:	080001f1 	.word	0x080001f1
 8000070:	080001f3 	.word	0x080001f3
 8000074:	080001f5 	.word	0x080001f5
 8000078:	080001f7 	.word	0x080001f7
 800007c:	080001f9 	.word	0x080001f9
 8000080:	080001fb 	.word	0x080001fb
 8000084:	080001fd 	.word	0x080001fd
 8000088:	080001ff 	.word	0x080001ff
 800008c:	08000201 	.word	0x08000201
 8000090:	08000203 	.word	0x08000203
 8000094:	08000205 	.word	0x08000205
 8000098:	08000207 	.word	0x08000207
 800009c:	08000209 	.word	0x08000209
 80000a0:	0800020b 	.word	0x0800020b
 80000a4:	0800020d 	.word	0x0800020d
 80000a8:	0800020f 	.word	0x0800020f
 80000ac:	08000211 	.word	0x08000211
 80000b0:	08000213 	.word	0x08000213
 80000b4:	08000215 	.word	0x08000215
 80000b8:	08000217 	.word	0x08000217
 80000bc:	08000219 	.word	0x08000219
 80000c0:	0800021b 	.word	0x0800021b
 80000c4:	0800021d 	.word	0x0800021d
 80000c8:	0800021f 	.word	0x0800021f
 80000cc:	08000221 	.word	0x08000221
 80000d0:	08000223 	.word	0x08000223
 80000d4:	08000225 	.word	0x08000225
 80000d8:	08000227 	.word	0x08000227
 80000dc:	08000229 	.word	0x08000229
 80000e0:	0800022b 	.word	0x0800022b
 80000e4:	0800022d 	.word	0x0800022d
 80000e8:	0800022f 	.word	0x0800022f
 80000ec:	08000231 	.word	0x08000231
 80000f0:	08000233 	.word	0x08000233
 80000f4:	08000235 	.word	0x08000235
 80000f8:	08000237 	.word	0x08000237
 80000fc:	08000239 	.word	0x08000239
 8000100:	0800023b 	.word	0x0800023b
 8000104:	0800023d 	.word	0x0800023d
 8000108:	0800023f 	.word	0x0800023f
 800010c:	08000241 	.word	0x08000241
 8000110:	08000243 	.word	0x08000243
 8000114:	08000245 	.word	0x08000245
 8000118:	08000247 	.word	0x08000247
 800011c:	08000249 	.word	0x08000249
 8000120:	0800024b 	.word	0x0800024b
 8000124:	0800024d 	.word	0x0800024d
 8000128:	0800024f 	.word	0x0800024f
 800012c:	08000251 	.word	0x08000251
 8000130:	08000253 	.word	0x08000253
 8000134:	08000255 	.word	0x08000255
 8000138:	08000257 	.word	0x08000257
 800013c:	08000259 	.word	0x08000259
 8000140:	0800025b 	.word	0x0800025b
 8000144:	0800025d 	.word	0x0800025d
 8000148:	0800025f 	.word	0x0800025f
 800014c:	08000261 	.word	0x08000261
 8000150:	08000263 	.word	0x08000263
 8000154:	08000265 	.word	0x08000265
 8000158:	08000267 	.word	0x08000267
 800015c:	08000269 	.word	0x08000269
 8000160:	0800026b 	.word	0x0800026b
 8000164:	0800026d 	.word	0x0800026d
 8000168:	0800026f 	.word	0x0800026f
 800016c:	08000271 	.word	0x08000271
 8000170:	08000273 	.word	0x08000273
 8000174:	08000275 	.word	0x08000275
 8000178:	08000277 	.word	0x08000277
 800017c:	08000279 	.word	0x08000279
 8000180:	0800027b 	.word	0x0800027b
 8000184:	0800027d 	.word	0x0800027d

08000188 <Reset_Handler>:
 8000188:	490a      	ldr	r1, [pc, #40]	; (80001b4 <STARTUP_CLEAR_BSS+0x18>)
 800018a:	4a0b      	ldr	r2, [pc, #44]	; (80001b8 <STARTUP_CLEAR_BSS+0x1c>)
 800018c:	4b0b      	ldr	r3, [pc, #44]	; (80001bc <STARTUP_CLEAR_BSS+0x20>)
 800018e:	429a      	cmp	r2, r3
 8000190:	bfbe      	ittt	lt
 8000192:	f851 0b04 	ldrlt.w	r0, [r1], #4
 8000196:	f842 0b04 	strlt.w	r0, [r2], #4
 800019a:	e7f8      	blt.n	800018e <Reset_Handler+0x6>

0800019c <STARTUP_CLEAR_BSS>:
 800019c:	4908      	ldr	r1, [pc, #32]	; (80001c0 <STARTUP_CLEAR_BSS+0x24>)
 800019e:	4a09      	ldr	r2, [pc, #36]	; (80001c4 <STARTUP_CLEAR_BSS+0x28>)
 80001a0:	2000      	movs	r0, #0
 80001a2:	4291      	cmp	r1, r2
 80001a4:	bfbc      	itt	lt
 80001a6:	f841 0b04 	strlt.w	r0, [r1], #4
 80001aa:	e7fa      	blt.n	80001a2 <STARTUP_CLEAR_BSS+0x6>
 80001ac:	f001 fae2 	bl	8001774 <SystemInit>
 80001b0:	f001 fbdc 	bl	800196c <main>
 80001b4:	08007134 	.word	0x08007134
 80001b8:	20000000 	.word	0x20000000
 80001bc:	20000efc 	.word	0x20000efc
 80001c0:	20000f00 	.word	0x20000f00
 80001c4:	20001238 	.word	0x20001238
 80001c8:	e7fe      	b.n	80001c8 <STARTUP_CLEAR_BSS+0x2c>
 80001ca:	e7fe      	b.n	80001ca <STARTUP_CLEAR_BSS+0x2e>
 80001cc:	e7fe      	b.n	80001cc <STARTUP_CLEAR_BSS+0x30>
 80001ce:	e7fe      	b.n	80001ce <STARTUP_CLEAR_BSS+0x32>
 80001d0:	e7fe      	b.n	80001d0 <STARTUP_CLEAR_BSS+0x34>
 80001d2:	e7fe      	b.n	80001d2 <STARTUP_CLEAR_BSS+0x36>
 80001d4:	e7fe      	b.n	80001d4 <STARTUP_CLEAR_BSS+0x38>
 80001d6:	e7fe      	b.n	80001d6 <STARTUP_CLEAR_BSS+0x3a>
 80001d8:	e7fe      	b.n	80001d8 <STARTUP_CLEAR_BSS+0x3c>

080001da <WWDG_IRQHandler>:
 80001da:	e7fe      	b.n	80001da <WWDG_IRQHandler>

080001dc <PVD_IRQHandler>:
 80001dc:	e7fe      	b.n	80001dc <PVD_IRQHandler>

080001de <TAMP_STAMP_IRQHandler>:
 80001de:	e7fe      	b.n	80001de <TAMP_STAMP_IRQHandler>

080001e0 <RTC_WKUP_IRQHandler>:
 80001e0:	e7fe      	b.n	80001e0 <RTC_WKUP_IRQHandler>

080001e2 <FLASH_IRQHandler>:
 80001e2:	e7fe      	b.n	80001e2 <FLASH_IRQHandler>

080001e4 <RCC_IRQHandler>:
 80001e4:	e7fe      	b.n	80001e4 <RCC_IRQHandler>

080001e6 <EXTI0_IRQHandler>:
 80001e6:	e7fe      	b.n	80001e6 <EXTI0_IRQHandler>

080001e8 <EXTI1_IRQHandler>:
 80001e8:	e7fe      	b.n	80001e8 <EXTI1_IRQHandler>

080001ea <EXTI2_IRQHandler>:
 80001ea:	e7fe      	b.n	80001ea <EXTI2_IRQHandler>

080001ec <EXTI3_IRQHandler>:
 80001ec:	e7fe      	b.n	80001ec <EXTI3_IRQHandler>

080001ee <EXTI4_IRQHandler>:
 80001ee:	e7fe      	b.n	80001ee <EXTI4_IRQHandler>

080001f0 <DMA1_Stream0_IRQHandler>:
 80001f0:	e7fe      	b.n	80001f0 <DMA1_Stream0_IRQHandler>

080001f2 <DMA1_Stream1_IRQHandler>:
 80001f2:	e7fe      	b.n	80001f2 <DMA1_Stream1_IRQHandler>

080001f4 <DMA1_Stream2_IRQHandler>:
 80001f4:	e7fe      	b.n	80001f4 <DMA1_Stream2_IRQHandler>

080001f6 <DMA1_Stream3_IRQHandler>:
 80001f6:	e7fe      	b.n	80001f6 <DMA1_Stream3_IRQHandler>

080001f8 <DMA1_Stream4_IRQHandler>:
 80001f8:	e7fe      	b.n	80001f8 <DMA1_Stream4_IRQHandler>

080001fa <DMA1_Stream5_IRQHandler>:
 80001fa:	e7fe      	b.n	80001fa <DMA1_Stream5_IRQHandler>

080001fc <DMA1_Stream6_IRQHandler>:
 80001fc:	e7fe      	b.n	80001fc <DMA1_Stream6_IRQHandler>

080001fe <ADC_IRQHandler>:
 80001fe:	e7fe      	b.n	80001fe <ADC_IRQHandler>

08000200 <CAN1_TX_IRQHandler>:
 8000200:	e7fe      	b.n	8000200 <CAN1_TX_IRQHandler>

08000202 <CAN1_RX0_IRQHandler>:
 8000202:	e7fe      	b.n	8000202 <CAN1_RX0_IRQHandler>

08000204 <CAN1_RX1_IRQHandler>:
 8000204:	e7fe      	b.n	8000204 <CAN1_RX1_IRQHandler>

08000206 <CAN1_SCE_IRQHandler>:
 8000206:	e7fe      	b.n	8000206 <CAN1_SCE_IRQHandler>

08000208 <EXTI9_5_IRQHandler>:
 8000208:	e7fe      	b.n	8000208 <EXTI9_5_IRQHandler>

0800020a <TIM1_BRK_TIM9_IRQHandler>:
 800020a:	e7fe      	b.n	800020a <TIM1_BRK_TIM9_IRQHandler>

0800020c <TIM1_UP_TIM10_IRQHandler>:
 800020c:	e7fe      	b.n	800020c <TIM1_UP_TIM10_IRQHandler>

0800020e <TIM1_TRG_COM_TIM11_IRQHandler>:
 800020e:	e7fe      	b.n	800020e <TIM1_TRG_COM_TIM11_IRQHandler>

08000210 <TIM1_CC_IRQHandler>:
 8000210:	e7fe      	b.n	8000210 <TIM1_CC_IRQHandler>

08000212 <TIM2_IRQHandler>:
 8000212:	e7fe      	b.n	8000212 <TIM2_IRQHandler>

08000214 <TIM3_IRQHandler>:
 8000214:	e7fe      	b.n	8000214 <TIM3_IRQHandler>

08000216 <TIM4_IRQHandler>:
 8000216:	e7fe      	b.n	8000216 <TIM4_IRQHandler>

08000218 <I2C1_EV_IRQHandler>:
 8000218:	e7fe      	b.n	8000218 <I2C1_EV_IRQHandler>

0800021a <I2C1_ER_IRQHandler>:
 800021a:	e7fe      	b.n	800021a <I2C1_ER_IRQHandler>

0800021c <I2C2_EV_IRQHandler>:
 800021c:	e7fe      	b.n	800021c <I2C2_EV_IRQHandler>

0800021e <I2C2_ER_IRQHandler>:
 800021e:	e7fe      	b.n	800021e <I2C2_ER_IRQHandler>

08000220 <SPI1_IRQHandler>:
 8000220:	e7fe      	b.n	8000220 <SPI1_IRQHandler>

08000222 <SPI2_IRQHandler>:
 8000222:	e7fe      	b.n	8000222 <SPI2_IRQHandler>

08000224 <USART1_IRQHandler>:
 8000224:	e7fe      	b.n	8000224 <USART1_IRQHandler>

08000226 <USART2_IRQHandler>:
 8000226:	e7fe      	b.n	8000226 <USART2_IRQHandler>

08000228 <USART3_IRQHandler>:
 8000228:	e7fe      	b.n	8000228 <USART3_IRQHandler>

0800022a <EXTI15_10_IRQHandler>:
 800022a:	e7fe      	b.n	800022a <EXTI15_10_IRQHandler>

0800022c <RTC_Alarm_IRQHandler>:
 800022c:	e7fe      	b.n	800022c <RTC_Alarm_IRQHandler>

0800022e <OTG_FS_WKUP_IRQHandler>:
 800022e:	e7fe      	b.n	800022e <OTG_FS_WKUP_IRQHandler>

08000230 <TIM8_BRK_TIM12_IRQHandler>:
 8000230:	e7fe      	b.n	8000230 <TIM8_BRK_TIM12_IRQHandler>

08000232 <TIM8_UP_TIM13_IRQHandler>:
 8000232:	e7fe      	b.n	8000232 <TIM8_UP_TIM13_IRQHandler>

08000234 <TIM8_TRG_COM_TIM14_IRQHandler>:
 8000234:	e7fe      	b.n	8000234 <TIM8_TRG_COM_TIM14_IRQHandler>

08000236 <TIM8_CC_IRQHandler>:
 8000236:	e7fe      	b.n	8000236 <TIM8_CC_IRQHandler>

08000238 <DMA1_Stream7_IRQHandler>:
 8000238:	e7fe      	b.n	8000238 <DMA1_Stream7_IRQHandler>

0800023a <FSMC_IRQHandler>:
 800023a:	e7fe      	b.n	800023a <FSMC_IRQHandler>

0800023c <SDIO_IRQHandler>:
 800023c:	e7fe      	b.n	800023c <SDIO_IRQHandler>

0800023e <TIM5_IRQHandler>:
 800023e:	e7fe      	b.n	800023e <TIM5_IRQHandler>

08000240 <SPI3_IRQHandler>:
 8000240:	e7fe      	b.n	8000240 <SPI3_IRQHandler>

08000242 <UART4_IRQHandler>:
 8000242:	e7fe      	b.n	8000242 <UART4_IRQHandler>

08000244 <UART5_IRQHandler>:
 8000244:	e7fe      	b.n	8000244 <UART5_IRQHandler>

08000246 <TIM6_DAC_IRQHandler>:
 8000246:	e7fe      	b.n	8000246 <TIM6_DAC_IRQHandler>

08000248 <TIM7_IRQHandler>:
 8000248:	e7fe      	b.n	8000248 <TIM7_IRQHandler>

0800024a <DMA2_Stream0_IRQHandler>:
 800024a:	e7fe      	b.n	800024a <DMA2_Stream0_IRQHandler>

0800024c <DMA2_Stream1_IRQHandler>:
 800024c:	e7fe      	b.n	800024c <DMA2_Stream1_IRQHandler>

0800024e <DMA2_Stream2_IRQHandler>:
 800024e:	e7fe      	b.n	800024e <DMA2_Stream2_IRQHandler>

08000250 <DMA2_Stream3_IRQHandler>:
 8000250:	e7fe      	b.n	8000250 <DMA2_Stream3_IRQHandler>

08000252 <DMA2_Stream4_IRQHandler>:
 8000252:	e7fe      	b.n	8000252 <DMA2_Stream4_IRQHandler>

08000254 <ETH_IRQHandler>:
 8000254:	e7fe      	b.n	8000254 <ETH_IRQHandler>

08000256 <ETH_WKUP_IRQHandler>:
 8000256:	e7fe      	b.n	8000256 <ETH_WKUP_IRQHandler>

08000258 <CAN2_TX_IRQHandler>:
 8000258:	e7fe      	b.n	8000258 <CAN2_TX_IRQHandler>

0800025a <CAN2_RX0_IRQHandler>:
 800025a:	e7fe      	b.n	800025a <CAN2_RX0_IRQHandler>

0800025c <CAN2_RX1_IRQHandler>:
 800025c:	e7fe      	b.n	800025c <CAN2_RX1_IRQHandler>

0800025e <CAN2_SCE_IRQHandler>:
 800025e:	e7fe      	b.n	800025e <CAN2_SCE_IRQHandler>

08000260 <OTG_FS_IRQHandler>:
 8000260:	e7fe      	b.n	8000260 <OTG_FS_IRQHandler>

08000262 <DMA2_Stream5_IRQHandler>:
 8000262:	e7fe      	b.n	8000262 <DMA2_Stream5_IRQHandler>

08000264 <DMA2_Stream6_IRQHandler>:
 8000264:	e7fe      	b.n	8000264 <DMA2_Stream6_IRQHandler>

08000266 <DMA2_Stream7_IRQHandler>:
 8000266:	e7fe      	b.n	8000266 <DMA2_Stream7_IRQHandler>

08000268 <USART6_IRQHandler>:
 8000268:	e7fe      	b.n	8000268 <USART6_IRQHandler>

0800026a <I2C3_EV_IRQHandler>:
 800026a:	e7fe      	b.n	800026a <I2C3_EV_IRQHandler>

0800026c <I2C3_ER_IRQHandler>:
 800026c:	e7fe      	b.n	800026c <I2C3_ER_IRQHandler>

0800026e <OTG_HS_EP1_OUT_IRQHandler>:
 800026e:	e7fe      	b.n	800026e <OTG_HS_EP1_OUT_IRQHandler>

08000270 <OTG_HS_EP1_IN_IRQHandler>:
 8000270:	e7fe      	b.n	8000270 <OTG_HS_EP1_IN_IRQHandler>

08000272 <OTG_HS_WKUP_IRQHandler>:
 8000272:	e7fe      	b.n	8000272 <OTG_HS_WKUP_IRQHandler>

08000274 <OTG_HS_IRQHandler>:
 8000274:	e7fe      	b.n	8000274 <OTG_HS_IRQHandler>

08000276 <DCMI_IRQHandler>:
 8000276:	e7fe      	b.n	8000276 <DCMI_IRQHandler>

08000278 <CRYP_IRQHandler>:
 8000278:	e7fe      	b.n	8000278 <CRYP_IRQHandler>

0800027a <HASH_RNG_IRQHandler>:
 800027a:	e7fe      	b.n	800027a <HASH_RNG_IRQHandler>

0800027c <FPU_IRQHandler>:
 800027c:	e7fe      	b.n	800027c <FPU_IRQHandler>
 800027e:	bf00      	nop

08000280 <SYSCFG_DeInit>:
 8000280:	b508      	push	{r3, lr}
 8000282:	2101      	movs	r1, #1
 8000284:	f44f 4080 	mov.w	r0, #16384	; 0x4000
 8000288:	f000 fa28 	bl	80006dc <RCC_APB2PeriphResetCmd>
 800028c:	f44f 4080 	mov.w	r0, #16384	; 0x4000
 8000290:	2100      	movs	r1, #0
 8000292:	e8bd 4008 	ldmia.w	sp!, {r3, lr}
 8000296:	f000 ba21 	b.w	80006dc <RCC_APB2PeriphResetCmd>
 800029a:	bf00      	nop

0800029c <SYSCFG_MemoryRemapConfig>:
 800029c:	f44f 5360 	mov.w	r3, #14336	; 0x3800
 80002a0:	f2c4 0301 	movt	r3, #16385	; 0x4001
 80002a4:	6018      	str	r0, [r3, #0]
 80002a6:	4770      	bx	lr

080002a8 <SYSCFG_EXTILineConfig>:
 80002a8:	088a      	lsrs	r2, r1, #2
 80002aa:	f44f 5360 	mov.w	r3, #14336	; 0x3800
 80002ae:	f2c4 0301 	movt	r3, #16385	; 0x4001
 80002b2:	3202      	adds	r2, #2
 80002b4:	f001 0103 	and.w	r1, r1, #3
 80002b8:	b430      	push	{r4, r5}
 80002ba:	0089      	lsls	r1, r1, #2
 80002bc:	f853 5022 	ldr.w	r5, [r3, r2, lsl #2]
 80002c0:	240f      	movs	r4, #15
 80002c2:	fa04 f401 	lsl.w	r4, r4, r1
 80002c6:	ea25 0404 	bic.w	r4, r5, r4
 80002ca:	f843 4022 	str.w	r4, [r3, r2, lsl #2]
 80002ce:	f853 4022 	ldr.w	r4, [r3, r2, lsl #2]
 80002d2:	fa00 f001 	lsl.w	r0, r0, r1
 80002d6:	4304      	orrs	r4, r0
 80002d8:	f843 4022 	str.w	r4, [r3, r2, lsl #2]
 80002dc:	bc30      	pop	{r4, r5}
 80002de:	4770      	bx	lr

080002e0 <SYSCFG_ETH_MediaInterfaceConfig>:
 80002e0:	23dc      	movs	r3, #220	; 0xdc
 80002e2:	f2c4 2327 	movt	r3, #16935	; 0x4227
 80002e6:	6018      	str	r0, [r3, #0]
 80002e8:	4770      	bx	lr
 80002ea:	bf00      	nop

080002ec <SYSCFG_CompensationCellCmd>:
 80002ec:	f44f 6380 	mov.w	r3, #1024	; 0x400
 80002f0:	f2c4 2327 	movt	r3, #16935	; 0x4227
 80002f4:	6018      	str	r0, [r3, #0]
 80002f6:	4770      	bx	lr

080002f8 <SYSCFG_GetCompensationCellStatus>:
 80002f8:	f44f 5360 	mov.w	r3, #14336	; 0x3800
 80002fc:	f2c4 0301 	movt	r3, #16385	; 0x4001
 8000300:	6a18      	ldr	r0, [r3, #32]
 8000302:	f3c0 2000 	ubfx	r0, r0, #8, #1
 8000306:	4770      	bx	lr

08000308 <RCC_DeInit>:
 8000308:	f44f 5360 	mov.w	r3, #14336	; 0x3800
 800030c:	f2c4 0302 	movt	r3, #16386	; 0x4002
 8000310:	2200      	movs	r2, #0
 8000312:	6819      	ldr	r1, [r3, #0]
 8000314:	f041 0001 	orr.w	r0, r1, #1
 8000318:	6018      	str	r0, [r3, #0]
 800031a:	609a      	str	r2, [r3, #8]
 800031c:	6818      	ldr	r0, [r3, #0]
 800031e:	f243 0110 	movw	r1, #12304	; 0x3010
 8000322:	f020 7084 	bic.w	r0, r0, #17301504	; 0x1080000
 8000326:	f420 3080 	bic.w	r0, r0, #65536	; 0x10000
 800032a:	f2c2 4100 	movt	r1, #9216	; 0x2400
 800032e:	6018      	str	r0, [r3, #0]
 8000330:	6059      	str	r1, [r3, #4]
 8000332:	6819      	ldr	r1, [r3, #0]
 8000334:	f421 2080 	bic.w	r0, r1, #262144	; 0x40000
 8000338:	6018      	str	r0, [r3, #0]
 800033a:	60da      	str	r2, [r3, #12]
 800033c:	4770      	bx	lr
 800033e:	bf00      	nop

08000340 <RCC_HSEConfig>:
 8000340:	f643 0302 	movw	r3, #14338	; 0x3802
 8000344:	f2c4 0302 	movt	r3, #16386	; 0x4002
 8000348:	2200      	movs	r2, #0
 800034a:	701a      	strb	r2, [r3, #0]
 800034c:	7018      	strb	r0, [r3, #0]
 800034e:	4770      	bx	lr

08000350 <RCC_WaitForHSEStartUp>:
 8000350:	b082      	sub	sp, #8
 8000352:	f44f 5260 	mov.w	r2, #14336	; 0x3800
 8000356:	2300      	movs	r3, #0
 8000358:	9301      	str	r3, [sp, #4]
 800035a:	f2c4 0202 	movt	r2, #16386	; 0x4002
 800035e:	6810      	ldr	r0, [r2, #0]
 8000360:	0383      	lsls	r3, r0, #14
 8000362:	d50c      	bpl.n	800037e <RCC_WaitForHSEStartUp+0x2e>
 8000364:	9a01      	ldr	r2, [sp, #4]
 8000366:	1c51      	adds	r1, r2, #1
 8000368:	9101      	str	r1, [sp, #4]
 800036a:	9b01      	ldr	r3, [sp, #4]
 800036c:	f44f 5360 	mov.w	r3, #14336	; 0x3800
 8000370:	f2c4 0302 	movt	r3, #16386	; 0x4002
 8000374:	6818      	ldr	r0, [r3, #0]
 8000376:	f3c0 4040 	ubfx	r0, r0, #17, #1
 800037a:	b002      	add	sp, #8
 800037c:	4770      	bx	lr
 800037e:	9901      	ldr	r1, [sp, #4]
 8000380:	1c4b      	adds	r3, r1, #1
 8000382:	9301      	str	r3, [sp, #4]
 8000384:	9801      	ldr	r0, [sp, #4]
 8000386:	f5b0 6fa0 	cmp.w	r0, #1280	; 0x500
 800038a:	d1e8      	bne.n	800035e <RCC_WaitForHSEStartUp+0xe>
 800038c:	e7ee      	b.n	800036c <RCC_WaitForHSEStartUp+0x1c>
 800038e:	bf00      	nop

08000390 <RCC_AdjustHSICalibrationValue>:
 8000390:	f44f 5360 	mov.w	r3, #14336	; 0x3800
 8000394:	f2c4 0302 	movt	r3, #16386	; 0x4002
 8000398:	681a      	ldr	r2, [r3, #0]
 800039a:	f022 01f8 	bic.w	r1, r2, #248	; 0xf8
 800039e:	ea41 00c0 	orr.w	r0, r1, r0, lsl #3
 80003a2:	6018      	str	r0, [r3, #0]
 80003a4:	4770      	bx	lr
 80003a6:	bf00      	nop

080003a8 <RCC_HSICmd>:
 80003a8:	2300      	movs	r3, #0
 80003aa:	f2c4 2347 	movt	r3, #16967	; 0x4247
 80003ae:	6018      	str	r0, [r3, #0]
 80003b0:	4770      	bx	lr
 80003b2:	bf00      	nop

080003b4 <RCC_LSEConfig>:
 80003b4:	f643 0370 	movw	r3, #14448	; 0x3870
 80003b8:	f2c4 0302 	movt	r3, #16386	; 0x4002
 80003bc:	2200      	movs	r2, #0
 80003be:	2801      	cmp	r0, #1
 80003c0:	701a      	strb	r2, [r3, #0]
 80003c2:	701a      	strb	r2, [r3, #0]
 80003c4:	d004      	beq.n	80003d0 <RCC_LSEConfig+0x1c>
 80003c6:	2804      	cmp	r0, #4
 80003c8:	d101      	bne.n	80003ce <RCC_LSEConfig+0x1a>
 80003ca:	2005      	movs	r0, #5
 80003cc:	7018      	strb	r0, [r3, #0]
 80003ce:	4770      	bx	lr
 80003d0:	7018      	strb	r0, [r3, #0]
 80003d2:	4770      	bx	lr

080003d4 <RCC_LSICmd>:
 80003d4:	f44f 6368 	mov.w	r3, #3712	; 0xe80
 80003d8:	f2c4 2347 	movt	r3, #16967	; 0x4247
 80003dc:	6018      	str	r0, [r3, #0]
 80003de:	4770      	bx	lr

080003e0 <RCC_PLLConfig>:
 80003e0:	b430      	push	{r4, r5}
 80003e2:	4301      	orrs	r1, r0
 80003e4:	9d02      	ldr	r5, [sp, #8]
 80003e6:	ea41 1282 	orr.w	r2, r1, r2, lsl #6
 80003ea:	085b      	lsrs	r3, r3, #1
 80003ec:	f44f 5460 	mov.w	r4, #14336	; 0x3800
 80003f0:	ea42 6505 	orr.w	r5, r2, r5, lsl #24
 80003f4:	1e59      	subs	r1, r3, #1
 80003f6:	f2c4 0402 	movt	r4, #16386	; 0x4002
 80003fa:	ea45 4001 	orr.w	r0, r5, r1, lsl #16
 80003fe:	6060      	str	r0, [r4, #4]
 8000400:	bc30      	pop	{r4, r5}
 8000402:	4770      	bx	lr

08000404 <RCC_PLLCmd>:
 8000404:	2360      	movs	r3, #96	; 0x60
 8000406:	f2c4 2347 	movt	r3, #16967	; 0x4247
 800040a:	6018      	str	r0, [r3, #0]
 800040c:	4770      	bx	lr
 800040e:	bf00      	nop

08000410 <RCC_PLLI2SConfig>:
 8000410:	f44f 5360 	mov.w	r3, #14336	; 0x3800
 8000414:	0180      	lsls	r0, r0, #6
 8000416:	f2c4 0302 	movt	r3, #16386	; 0x4002
 800041a:	ea40 7101 	orr.w	r1, r0, r1, lsl #28
 800041e:	f8c3 1084 	str.w	r1, [r3, #132]	; 0x84
 8000422:	4770      	bx	lr

08000424 <RCC_PLLI2SCmd>:
 8000424:	2368      	movs	r3, #104	; 0x68
 8000426:	f2c4 2347 	movt	r3, #16967	; 0x4247
 800042a:	6018      	str	r0, [r3, #0]
 800042c:	4770      	bx	lr
 800042e:	bf00      	nop

08000430 <RCC_ClockSecuritySystemCmd>:
 8000430:	234c      	movs	r3, #76	; 0x4c
 8000432:	f2c4 2347 	movt	r3, #16967	; 0x4247
 8000436:	6018      	str	r0, [r3, #0]
 8000438:	4770      	bx	lr
 800043a:	bf00      	nop

0800043c <RCC_MCO1Config>:
 800043c:	f44f 5360 	mov.w	r3, #14336	; 0x3800
 8000440:	f2c4 0302 	movt	r3, #16386	; 0x4002
 8000444:	689a      	ldr	r2, [r3, #8]
 8000446:	f022 62ec 	bic.w	r2, r2, #123731968	; 0x7600000
 800044a:	4310      	orrs	r0, r2
 800044c:	4301      	orrs	r1, r0
 800044e:	6099      	str	r1, [r3, #8]
 8000450:	4770      	bx	lr
 8000452:	bf00      	nop

08000454 <RCC_MCO2Config>:
 8000454:	f44f 5360 	mov.w	r3, #14336	; 0x3800
 8000458:	f2c4 0302 	movt	r3, #16386	; 0x4002
 800045c:	689a      	ldr	r2, [r3, #8]
 800045e:	f022 4278 	bic.w	r2, r2, #4160749568	; 0xf8000000
 8000462:	4310      	orrs	r0, r2
 8000464:	4301      	orrs	r1, r0
 8000466:	6099      	str	r1, [r3, #8]
 8000468:	4770      	bx	lr
 800046a:	bf00      	nop

0800046c <RCC_SYSCLKConfig>:
 800046c:	f44f 5360 	mov.w	r3, #14336	; 0x3800
 8000470:	f2c4 0302 	movt	r3, #16386	; 0x4002
 8000474:	689a      	ldr	r2, [r3, #8]
 8000476:	f022 0103 	bic.w	r1, r2, #3
 800047a:	4308      	orrs	r0, r1
 800047c:	6098      	str	r0, [r3, #8]
 800047e:	4770      	bx	lr

08000480 <RCC_GetSYSCLKSource>:
 8000480:	f44f 5360 	mov.w	r3, #14336	; 0x3800
 8000484:	f2c4 0302 	movt	r3, #16386	; 0x4002
 8000488:	6898      	ldr	r0, [r3, #8]
 800048a:	f000 000c 	and.w	r0, r0, #12
 800048e:	4770      	bx	lr

08000490 <RCC_HCLKConfig>:
 8000490:	f44f 5360 	mov.w	r3, #14336	; 0x3800
 8000494:	f2c4 0302 	movt	r3, #16386	; 0x4002
 8000498:	689a      	ldr	r2, [r3, #8]
 800049a:	f022 01f0 	bic.w	r1, r2, #240	; 0xf0
 800049e:	4308      	orrs	r0, r1
 80004a0:	6098      	str	r0, [r3, #8]
 80004a2:	4770      	bx	lr

080004a4 <RCC_PCLK1Config>:
 80004a4:	f44f 5360 	mov.w	r3, #14336	; 0x3800
 80004a8:	f2c4 0302 	movt	r3, #16386	; 0x4002
 80004ac:	689a      	ldr	r2, [r3, #8]
 80004ae:	f422 51e0 	bic.w	r1, r2, #7168	; 0x1c00
 80004b2:	4308      	orrs	r0, r1
 80004b4:	6098      	str	r0, [r3, #8]
 80004b6:	4770      	bx	lr

080004b8 <RCC_PCLK2Config>:
 80004b8:	f44f 5360 	mov.w	r3, #14336	; 0x3800
 80004bc:	f2c4 0302 	movt	r3, #16386	; 0x4002
 80004c0:	689a      	ldr	r2, [r3, #8]
 80004c2:	f422 4160 	bic.w	r1, r2, #57344	; 0xe000
 80004c6:	ea41 00c0 	orr.w	r0, r1, r0, lsl #3
 80004ca:	6098      	str	r0, [r3, #8]
 80004cc:	4770      	bx	lr
 80004ce:	bf00      	nop

080004d0 <RCC_GetClocksFreq>:
 80004d0:	f44f 5360 	mov.w	r3, #14336	; 0x3800
 80004d4:	f2c4 0302 	movt	r3, #16386	; 0x4002
 80004d8:	b410      	push	{r4}
 80004da:	689a      	ldr	r2, [r3, #8]
 80004dc:	f002 010c 	and.w	r1, r2, #12
 80004e0:	2904      	cmp	r1, #4
 80004e2:	d022      	beq.n	800052a <RCC_GetClocksFreq+0x5a>
 80004e4:	2908      	cmp	r1, #8
 80004e6:	d026      	beq.n	8000536 <RCC_GetClocksFreq+0x66>
 80004e8:	f44f 5210 	mov.w	r2, #9216	; 0x2400
 80004ec:	f2c0 02f4 	movt	r2, #244	; 0xf4
 80004f0:	6002      	str	r2, [r0, #0]
 80004f2:	f44f 5360 	mov.w	r3, #14336	; 0x3800
 80004f6:	f2c4 0302 	movt	r3, #16386	; 0x4002
 80004fa:	4921      	ldr	r1, [pc, #132]	; (8000580 <RCC_GetClocksFreq+0xb0>)
 80004fc:	689c      	ldr	r4, [r3, #8]
 80004fe:	f3c4 1403 	ubfx	r4, r4, #4, #4
 8000502:	5d0c      	ldrb	r4, [r1, r4]
 8000504:	fa22 f204 	lsr.w	r2, r2, r4
 8000508:	6042      	str	r2, [r0, #4]
 800050a:	689c      	ldr	r4, [r3, #8]
 800050c:	f3c4 2482 	ubfx	r4, r4, #10, #3
 8000510:	5d0c      	ldrb	r4, [r1, r4]
 8000512:	fa22 f404 	lsr.w	r4, r2, r4
 8000516:	6084      	str	r4, [r0, #8]
 8000518:	689b      	ldr	r3, [r3, #8]
 800051a:	f3c3 3342 	ubfx	r3, r3, #13, #3
 800051e:	5cc9      	ldrb	r1, [r1, r3]
 8000520:	fa22 f201 	lsr.w	r2, r2, r1
 8000524:	60c2      	str	r2, [r0, #12]
 8000526:	bc10      	pop	{r4}
 8000528:	4770      	bx	lr
 800052a:	f44f 5290 	mov.w	r2, #4608	; 0x1200
 800052e:	f2c0 027a 	movt	r2, #122	; 0x7a
 8000532:	6002      	str	r2, [r0, #0]
 8000534:	e7dd      	b.n	80004f2 <RCC_GetClocksFreq+0x22>
 8000536:	685c      	ldr	r4, [r3, #4]
 8000538:	6859      	ldr	r1, [r3, #4]
 800053a:	f414 0f80 	tst.w	r4, #4194304	; 0x400000
 800053e:	685c      	ldr	r4, [r3, #4]
 8000540:	f001 023f 	and.w	r2, r1, #63	; 0x3f
 8000544:	bf14      	ite	ne
 8000546:	f44f 5390 	movne.w	r3, #4608	; 0x1200
 800054a:	f44f 5310 	moveq.w	r3, #9216	; 0x2400
 800054e:	f3c4 1188 	ubfx	r1, r4, #6, #9
 8000552:	f44f 5460 	mov.w	r4, #14336	; 0x3800
 8000556:	bf14      	ite	ne
 8000558:	f2c0 037a 	movtne	r3, #122	; 0x7a
 800055c:	f2c0 03f4 	movteq	r3, #244	; 0xf4
 8000560:	f2c4 0402 	movt	r4, #16386	; 0x4002
 8000564:	fbb3 f3f2 	udiv	r3, r3, r2
 8000568:	fb03 f201 	mul.w	r2, r3, r1
 800056c:	6861      	ldr	r1, [r4, #4]
 800056e:	f3c1 4301 	ubfx	r3, r1, #16, #2
 8000572:	1c5c      	adds	r4, r3, #1
 8000574:	0061      	lsls	r1, r4, #1
 8000576:	fbb2 f2f1 	udiv	r2, r2, r1
 800057a:	6002      	str	r2, [r0, #0]
 800057c:	e7b9      	b.n	80004f2 <RCC_GetClocksFreq+0x22>
 800057e:	bf00      	nop
 8000580:	20000000 	.word	0x20000000

08000584 <RCC_RTCCLKConfig>:
 8000584:	f400 7340 	and.w	r3, r0, #768	; 0x300
 8000588:	f5b3 7f40 	cmp.w	r3, #768	; 0x300
 800058c:	d10c      	bne.n	80005a8 <RCC_RTCCLKConfig+0x24>
 800058e:	f44f 5360 	mov.w	r3, #14336	; 0x3800
 8000592:	f2c4 0302 	movt	r3, #16386	; 0x4002
 8000596:	f020 4170 	bic.w	r1, r0, #4026531840	; 0xf0000000
 800059a:	689a      	ldr	r2, [r3, #8]
 800059c:	f421 7140 	bic.w	r1, r1, #768	; 0x300
 80005a0:	f422 12f8 	bic.w	r2, r2, #2031616	; 0x1f0000
 80005a4:	4311      	orrs	r1, r2
 80005a6:	6099      	str	r1, [r3, #8]
 80005a8:	f44f 5360 	mov.w	r3, #14336	; 0x3800
 80005ac:	f2c4 0302 	movt	r3, #16386	; 0x4002
 80005b0:	0500      	lsls	r0, r0, #20
 80005b2:	6f1a      	ldr	r2, [r3, #112]	; 0x70
 80005b4:	0d01      	lsrs	r1, r0, #20
 80005b6:	4311      	orrs	r1, r2
 80005b8:	6719      	str	r1, [r3, #112]	; 0x70
 80005ba:	4770      	bx	lr

080005bc <RCC_RTCCLKCmd>:
 80005bc:	f640 633c 	movw	r3, #3644	; 0xe3c
 80005c0:	f2c4 2347 	movt	r3, #16967	; 0x4247
 80005c4:	6018      	str	r0, [r3, #0]
 80005c6:	4770      	bx	lr

080005c8 <RCC_BackupResetCmd>:
 80005c8:	f44f 6364 	mov.w	r3, #3648	; 0xe40
 80005cc:	f2c4 2347 	movt	r3, #16967	; 0x4247
 80005d0:	6018      	str	r0, [r3, #0]
 80005d2:	4770      	bx	lr

080005d4 <RCC_I2SCLKConfig>:
 80005d4:	f44f 73ae 	mov.w	r3, #348	; 0x15c
 80005d8:	f2c4 2347 	movt	r3, #16967	; 0x4247
 80005dc:	6018      	str	r0, [r3, #0]
 80005de:	4770      	bx	lr

080005e0 <RCC_AHB1PeriphClockCmd>:
 80005e0:	f44f 5360 	mov.w	r3, #14336	; 0x3800
 80005e4:	f2c4 0302 	movt	r3, #16386	; 0x4002
 80005e8:	6b1a      	ldr	r2, [r3, #48]	; 0x30
 80005ea:	b919      	cbnz	r1, 80005f4 <RCC_AHB1PeriphClockCmd+0x14>
 80005ec:	ea22 0000 	bic.w	r0, r2, r0
 80005f0:	6318      	str	r0, [r3, #48]	; 0x30
 80005f2:	4770      	bx	lr
 80005f4:	4310      	orrs	r0, r2
 80005f6:	6318      	str	r0, [r3, #48]	; 0x30
 80005f8:	4770      	bx	lr
 80005fa:	bf00      	nop

080005fc <RCC_AHB2PeriphClockCmd>:
 80005fc:	f44f 5360 	mov.w	r3, #14336	; 0x3800
 8000600:	f2c4 0302 	movt	r3, #16386	; 0x4002
 8000604:	6b5a      	ldr	r2, [r3, #52]	; 0x34
 8000606:	b919      	cbnz	r1, 8000610 <RCC_AHB2PeriphClockCmd+0x14>
 8000608:	ea22 0000 	bic.w	r0, r2, r0
 800060c:	6358      	str	r0, [r3, #52]	; 0x34
 800060e:	4770      	bx	lr
 8000610:	4310      	orrs	r0, r2
 8000612:	6358      	str	r0, [r3, #52]	; 0x34
 8000614:	4770      	bx	lr
 8000616:	bf00      	nop

08000618 <RCC_AHB3PeriphClockCmd>:
 8000618:	f44f 5360 	mov.w	r3, #14336	; 0x3800
 800061c:	f2c4 0302 	movt	r3, #16386	; 0x4002
 8000620:	6b9a      	ldr	r2, [r3, #56]	; 0x38
 8000622:	b919      	cbnz	r1, 800062c <RCC_AHB3PeriphClockCmd+0x14>
 8000624:	ea22 0000 	bic.w	r0, r2, r0
 8000628:	6398      	str	r0, [r3, #56]	; 0x38
 800062a:	4770      	bx	lr
 800062c:	4310      	orrs	r0, r2
 800062e:	6398      	str	r0, [r3, #56]	; 0x38
 8000630:	4770      	bx	lr
 8000632:	bf00      	nop

08000634 <RCC_APB1PeriphClockCmd>:
 8000634:	f44f 5360 	mov.w	r3, #14336	; 0x3800
 8000638:	f2c4 0302 	movt	r3, #16386	; 0x4002
 800063c:	6c1a      	ldr	r2, [r3, #64]	; 0x40
 800063e:	b919      	cbnz	r1, 8000648 <RCC_APB1PeriphClockCmd+0x14>
 8000640:	ea22 0000 	bic.w	r0, r2, r0
 8000644:	6418      	str	r0, [r3, #64]	; 0x40
 8000646:	4770      	bx	lr
 8000648:	4310      	orrs	r0, r2
 800064a:	6418      	str	r0, [r3, #64]	; 0x40
 800064c:	4770      	bx	lr
 800064e:	bf00      	nop

08000650 <RCC_APB2PeriphClockCmd>:
 8000650:	f44f 5360 	mov.w	r3, #14336	; 0x3800
 8000654:	f2c4 0302 	movt	r3, #16386	; 0x4002
 8000658:	6c5a      	ldr	r2, [r3, #68]	; 0x44
 800065a:	b919      	cbnz	r1, 8000664 <RCC_APB2PeriphClockCmd+0x14>
 800065c:	ea22 0000 	bic.w	r0, r2, r0
 8000660:	6458      	str	r0, [r3, #68]	; 0x44
 8000662:	4770      	bx	lr
 8000664:	4310      	orrs	r0, r2
 8000666:	6458      	str	r0, [r3, #68]	; 0x44
 8000668:	4770      	bx	lr
 800066a:	bf00      	nop

0800066c <RCC_AHB1PeriphResetCmd>:
 800066c:	f44f 5360 	mov.w	r3, #14336	; 0x3800
 8000670:	f2c4 0302 	movt	r3, #16386	; 0x4002
 8000674:	691a      	ldr	r2, [r3, #16]
 8000676:	b919      	cbnz	r1, 8000680 <RCC_AHB1PeriphResetCmd+0x14>
 8000678:	ea22 0000 	bic.w	r0, r2, r0
 800067c:	6118      	str	r0, [r3, #16]
 800067e:	4770      	bx	lr
 8000680:	4310      	orrs	r0, r2
 8000682:	6118      	str	r0, [r3, #16]
 8000684:	4770      	bx	lr
 8000686:	bf00      	nop

08000688 <RCC_AHB2PeriphResetCmd>:
 8000688:	f44f 5360 	mov.w	r3, #14336	; 0x3800
 800068c:	f2c4 0302 	movt	r3, #16386	; 0x4002
 8000690:	695a      	ldr	r2, [r3, #20]
 8000692:	b919      	cbnz	r1, 800069c <RCC_AHB2PeriphResetCmd+0x14>
 8000694:	ea22 0000 	bic.w	r0, r2, r0
 8000698:	6158      	str	r0, [r3, #20]
 800069a:	4770      	bx	lr
 800069c:	4310      	orrs	r0, r2
 800069e:	6158      	str	r0, [r3, #20]
 80006a0:	4770      	bx	lr
 80006a2:	bf00      	nop

080006a4 <RCC_AHB3PeriphResetCmd>:
 80006a4:	f44f 5360 	mov.w	r3, #14336	; 0x3800
 80006a8:	f2c4 0302 	movt	r3, #16386	; 0x4002
 80006ac:	699a      	ldr	r2, [r3, #24]
 80006ae:	b919      	cbnz	r1, 80006b8 <RCC_AHB3PeriphResetCmd+0x14>
 80006b0:	ea22 0000 	bic.w	r0, r2, r0
 80006b4:	6198      	str	r0, [r3, #24]
 80006b6:	4770      	bx	lr
 80006b8:	4310      	orrs	r0, r2
 80006ba:	6198      	str	r0, [r3, #24]
 80006bc:	4770      	bx	lr
 80006be:	bf00      	nop

080006c0 <RCC_APB1PeriphResetCmd>:
 80006c0:	f44f 5360 	mov.w	r3, #14336	; 0x3800
 80006c4:	f2c4 0302 	movt	r3, #16386	; 0x4002
 80006c8:	6a1a      	ldr	r2, [r3, #32]
 80006ca:	b919      	cbnz	r1, 80006d4 <RCC_APB1PeriphResetCmd+0x14>
 80006cc:	ea22 0000 	bic.w	r0, r2, r0
 80006d0:	6218      	str	r0, [r3, #32]
 80006d2:	4770      	bx	lr
 80006d4:	4310      	orrs	r0, r2
 80006d6:	6218      	str	r0, [r3, #32]
 80006d8:	4770      	bx	lr
 80006da:	bf00      	nop

080006dc <RCC_APB2PeriphResetCmd>:
 80006dc:	f44f 5360 	mov.w	r3, #14336	; 0x3800
 80006e0:	f2c4 0302 	movt	r3, #16386	; 0x4002
 80006e4:	6a5a      	ldr	r2, [r3, #36]	; 0x24
 80006e6:	b919      	cbnz	r1, 80006f0 <RCC_APB2PeriphResetCmd+0x14>
 80006e8:	ea22 0000 	bic.w	r0, r2, r0
 80006ec:	6258      	str	r0, [r3, #36]	; 0x24
 80006ee:	4770      	bx	lr
 80006f0:	4310      	orrs	r0, r2
 80006f2:	6258      	str	r0, [r3, #36]	; 0x24
 80006f4:	4770      	bx	lr
 80006f6:	bf00      	nop

080006f8 <RCC_AHB1PeriphClockLPModeCmd>:
 80006f8:	f44f 5360 	mov.w	r3, #14336	; 0x3800
 80006fc:	f2c4 0302 	movt	r3, #16386	; 0x4002
 8000700:	6d1a      	ldr	r2, [r3, #80]	; 0x50
 8000702:	b919      	cbnz	r1, 800070c <RCC_AHB1PeriphClockLPModeCmd+0x14>
 8000704:	ea22 0000 	bic.w	r0, r2, r0
 8000708:	6518      	str	r0, [r3, #80]	; 0x50
 800070a:	4770      	bx	lr
 800070c:	4310      	orrs	r0, r2
 800070e:	6518      	str	r0, [r3, #80]	; 0x50
 8000710:	4770      	bx	lr
 8000712:	bf00      	nop

08000714 <RCC_AHB2PeriphClockLPModeCmd>:
 8000714:	f44f 5360 	mov.w	r3, #14336	; 0x3800
 8000718:	f2c4 0302 	movt	r3, #16386	; 0x4002
 800071c:	6d5a      	ldr	r2, [r3, #84]	; 0x54
 800071e:	b919      	cbnz	r1, 8000728 <RCC_AHB2PeriphClockLPModeCmd+0x14>
 8000720:	ea22 0000 	bic.w	r0, r2, r0
 8000724:	6558      	str	r0, [r3, #84]	; 0x54
 8000726:	4770      	bx	lr
 8000728:	4310      	orrs	r0, r2
 800072a:	6558      	str	r0, [r3, #84]	; 0x54
 800072c:	4770      	bx	lr
 800072e:	bf00      	nop

08000730 <RCC_AHB3PeriphClockLPModeCmd>:
 8000730:	f44f 5360 	mov.w	r3, #14336	; 0x3800
 8000734:	f2c4 0302 	movt	r3, #16386	; 0x4002
 8000738:	6d9a      	ldr	r2, [r3, #88]	; 0x58
 800073a:	b919      	cbnz	r1, 8000744 <RCC_AHB3PeriphClockLPModeCmd+0x14>
 800073c:	ea22 0000 	bic.w	r0, r2, r0
 8000740:	6598      	str	r0, [r3, #88]	; 0x58
 8000742:	4770      	bx	lr
 8000744:	4310      	orrs	r0, r2
 8000746:	6598      	str	r0, [r3, #88]	; 0x58
 8000748:	4770      	bx	lr
 800074a:	bf00      	nop

0800074c <RCC_APB1PeriphClockLPModeCmd>:
 800074c:	f44f 5360 	mov.w	r3, #14336	; 0x3800
 8000750:	f2c4 0302 	movt	r3, #16386	; 0x4002
 8000754:	6e1a      	ldr	r2, [r3, #96]	; 0x60
 8000756:	b919      	cbnz	r1, 8000760 <RCC_APB1PeriphClockLPModeCmd+0x14>
 8000758:	ea22 0000 	bic.w	r0, r2, r0
 800075c:	6618      	str	r0, [r3, #96]	; 0x60
 800075e:	4770      	bx	lr
 8000760:	4310      	orrs	r0, r2
 8000762:	6618      	str	r0, [r3, #96]	; 0x60
 8000764:	4770      	bx	lr
 8000766:	bf00      	nop

08000768 <RCC_APB2PeriphClockLPModeCmd>:
 8000768:	f44f 5360 	mov.w	r3, #14336	; 0x3800
 800076c:	f2c4 0302 	movt	r3, #16386	; 0x4002
 8000770:	6e5a      	ldr	r2, [r3, #100]	; 0x64
 8000772:	b919      	cbnz	r1, 800077c <RCC_APB2PeriphClockLPModeCmd+0x14>
 8000774:	ea22 0000 	bic.w	r0, r2, r0
 8000778:	6658      	str	r0, [r3, #100]	; 0x64
 800077a:	4770      	bx	lr
 800077c:	4310      	orrs	r0, r2
 800077e:	6658      	str	r0, [r3, #100]	; 0x64
 8000780:	4770      	bx	lr
 8000782:	bf00      	nop

08000784 <RCC_ITConfig>:
 8000784:	f643 030d 	movw	r3, #14349	; 0x380d
 8000788:	f2c4 0302 	movt	r3, #16386	; 0x4002
 800078c:	781a      	ldrb	r2, [r3, #0]
 800078e:	b919      	cbnz	r1, 8000798 <RCC_ITConfig+0x14>
 8000790:	ea22 0000 	bic.w	r0, r2, r0
 8000794:	7018      	strb	r0, [r3, #0]
 8000796:	4770      	bx	lr
 8000798:	4310      	orrs	r0, r2
 800079a:	7018      	strb	r0, [r3, #0]
 800079c:	4770      	bx	lr
 800079e:	bf00      	nop

080007a0 <RCC_GetFlagStatus>:
 80007a0:	0943      	lsrs	r3, r0, #5
 80007a2:	2b01      	cmp	r3, #1
 80007a4:	d00e      	beq.n	80007c4 <RCC_GetFlagStatus+0x24>
 80007a6:	f44f 5160 	mov.w	r1, #14336	; 0x3800
 80007aa:	f2c4 0102 	movt	r1, #16386	; 0x4002
 80007ae:	2b02      	cmp	r3, #2
 80007b0:	bf0c      	ite	eq
 80007b2:	6f09      	ldreq	r1, [r1, #112]	; 0x70
 80007b4:	6f49      	ldrne	r1, [r1, #116]	; 0x74
 80007b6:	f000 001f 	and.w	r0, r0, #31
 80007ba:	fa21 f300 	lsr.w	r3, r1, r0
 80007be:	f003 0001 	and.w	r0, r3, #1
 80007c2:	4770      	bx	lr
 80007c4:	f44f 5260 	mov.w	r2, #14336	; 0x3800
 80007c8:	f2c4 0202 	movt	r2, #16386	; 0x4002
 80007cc:	6811      	ldr	r1, [r2, #0]
 80007ce:	e7f2      	b.n	80007b6 <RCC_GetFlagStatus+0x16>

080007d0 <RCC_ClearFlag>:
 80007d0:	f44f 5360 	mov.w	r3, #14336	; 0x3800
 80007d4:	f2c4 0302 	movt	r3, #16386	; 0x4002
 80007d8:	6f5a      	ldr	r2, [r3, #116]	; 0x74
 80007da:	f042 7080 	orr.w	r0, r2, #16777216	; 0x1000000
 80007de:	6758      	str	r0, [r3, #116]	; 0x74
 80007e0:	4770      	bx	lr
 80007e2:	bf00      	nop

080007e4 <RCC_GetITStatus>:
 80007e4:	f44f 5360 	mov.w	r3, #14336	; 0x3800
 80007e8:	f2c4 0302 	movt	r3, #16386	; 0x4002
 80007ec:	68d9      	ldr	r1, [r3, #12]
 80007ee:	4208      	tst	r0, r1
 80007f0:	bf0c      	ite	eq
 80007f2:	2000      	moveq	r0, #0
 80007f4:	2001      	movne	r0, #1
 80007f6:	4770      	bx	lr

080007f8 <RCC_ClearITPendingBit>:
 80007f8:	f643 030e 	movw	r3, #14350	; 0x380e
 80007fc:	f2c4 0302 	movt	r3, #16386	; 0x4002
 8000800:	7018      	strb	r0, [r3, #0]
 8000802:	4770      	bx	lr

08000804 <PWR_DeInit>:
 8000804:	b508      	push	{r3, lr}
 8000806:	2101      	movs	r1, #1
 8000808:	f04f 5080 	mov.w	r0, #268435456	; 0x10000000
 800080c:	f7ff ff58 	bl	80006c0 <RCC_APB1PeriphResetCmd>
 8000810:	f04f 5080 	mov.w	r0, #268435456	; 0x10000000
 8000814:	2100      	movs	r1, #0
 8000816:	e8bd 4008 	ldmia.w	sp!, {r3, lr}
 800081a:	f7ff bf51 	b.w	80006c0 <RCC_APB1PeriphResetCmd>
 800081e:	bf00      	nop

08000820 <PWR_BackupAccessCmd>:
 8000820:	2320      	movs	r3, #32
 8000822:	f2c4 230e 	movt	r3, #16910	; 0x420e
 8000826:	6018      	str	r0, [r3, #0]
 8000828:	4770      	bx	lr
 800082a:	bf00      	nop

0800082c <PWR_PVDLevelConfig>:
 800082c:	f44f 43e0 	mov.w	r3, #28672	; 0x7000
 8000830:	f2c4 0300 	movt	r3, #16384	; 0x4000
 8000834:	681a      	ldr	r2, [r3, #0]
 8000836:	f022 01e0 	bic.w	r1, r2, #224	; 0xe0
 800083a:	4308      	orrs	r0, r1
 800083c:	6018      	str	r0, [r3, #0]
 800083e:	4770      	bx	lr

08000840 <PWR_PVDCmd>:
 8000840:	2310      	movs	r3, #16
 8000842:	f2c4 230e 	movt	r3, #16910	; 0x420e
 8000846:	6018      	str	r0, [r3, #0]
 8000848:	4770      	bx	lr
 800084a:	bf00      	nop

0800084c <PWR_WakeUpPinCmd>:
 800084c:	23a0      	movs	r3, #160	; 0xa0
 800084e:	f2c4 230e 	movt	r3, #16910	; 0x420e
 8000852:	6018      	str	r0, [r3, #0]
 8000854:	4770      	bx	lr
 8000856:	bf00      	nop

08000858 <PWR_BackupRegulatorCmd>:
 8000858:	23a4      	movs	r3, #164	; 0xa4
 800085a:	f2c4 230e 	movt	r3, #16910	; 0x420e
 800085e:	6018      	str	r0, [r3, #0]
 8000860:	4770      	bx	lr
 8000862:	bf00      	nop

08000864 <PWR_MainRegulatorModeConfig>:
 8000864:	f44f 43e0 	mov.w	r3, #28672	; 0x7000
 8000868:	f2c4 0300 	movt	r3, #16384	; 0x4000
 800086c:	681a      	ldr	r2, [r3, #0]
 800086e:	b118      	cbz	r0, 8000878 <PWR_MainRegulatorModeConfig+0x14>
 8000870:	f442 4080 	orr.w	r0, r2, #16384	; 0x4000
 8000874:	6018      	str	r0, [r3, #0]
 8000876:	4770      	bx	lr
 8000878:	f422 4180 	bic.w	r1, r2, #16384	; 0x4000
 800087c:	6019      	str	r1, [r3, #0]
 800087e:	4770      	bx	lr

08000880 <PWR_FlashPowerDownCmd>:
 8000880:	2324      	movs	r3, #36	; 0x24
 8000882:	f2c4 230e 	movt	r3, #16910	; 0x420e
 8000886:	6018      	str	r0, [r3, #0]
 8000888:	4770      	bx	lr
 800088a:	bf00      	nop

0800088c <PWR_EnterSTOPMode>:
 800088c:	f44f 42e0 	mov.w	r2, #28672	; 0x7000
 8000890:	f2c4 0200 	movt	r2, #16384	; 0x4000
 8000894:	b410      	push	{r4}
 8000896:	6814      	ldr	r4, [r2, #0]
 8000898:	f44f 436d 	mov.w	r3, #60672	; 0xed00
 800089c:	f024 0403 	bic.w	r4, r4, #3
 80008a0:	f2ce 0300 	movt	r3, #57344	; 0xe000
 80008a4:	4320      	orrs	r0, r4
 80008a6:	6010      	str	r0, [r2, #0]
 80008a8:	6918      	ldr	r0, [r3, #16]
 80008aa:	2901      	cmp	r1, #1
 80008ac:	f040 0204 	orr.w	r2, r0, #4
 80008b0:	611a      	str	r2, [r3, #16]
 80008b2:	d00a      	beq.n	80008ca <PWR_EnterSTOPMode+0x3e>
 80008b4:	bf20      	wfe
 80008b6:	f44f 416d 	mov.w	r1, #60672	; 0xed00
 80008ba:	f2ce 0100 	movt	r1, #57344	; 0xe000
 80008be:	690b      	ldr	r3, [r1, #16]
 80008c0:	f023 0004 	bic.w	r0, r3, #4
 80008c4:	6108      	str	r0, [r1, #16]
 80008c6:	bc10      	pop	{r4}
 80008c8:	4770      	bx	lr
 80008ca:	bf30      	wfi
 80008cc:	e7f3      	b.n	80008b6 <PWR_EnterSTOPMode+0x2a>
 80008ce:	bf00      	nop

080008d0 <PWR_EnterSTANDBYMode>:
 80008d0:	f44f 43e0 	mov.w	r3, #28672	; 0x7000
 80008d4:	f2c4 0300 	movt	r3, #16384	; 0x4000
 80008d8:	f44f 426d 	mov.w	r2, #60672	; 0xed00
 80008dc:	6819      	ldr	r1, [r3, #0]
 80008de:	f041 0004 	orr.w	r0, r1, #4
 80008e2:	6018      	str	r0, [r3, #0]
 80008e4:	6819      	ldr	r1, [r3, #0]
 80008e6:	f2ce 0200 	movt	r2, #57344	; 0xe000
 80008ea:	f041 0002 	orr.w	r0, r1, #2
 80008ee:	6018      	str	r0, [r3, #0]
 80008f0:	6913      	ldr	r3, [r2, #16]
 80008f2:	f043 0104 	orr.w	r1, r3, #4
 80008f6:	6111      	str	r1, [r2, #16]
 80008f8:	bf30      	wfi
 80008fa:	4770      	bx	lr

080008fc <PWR_GetFlagStatus>:
 80008fc:	f44f 43e0 	mov.w	r3, #28672	; 0x7000
 8000900:	f2c4 0300 	movt	r3, #16384	; 0x4000
 8000904:	6859      	ldr	r1, [r3, #4]
 8000906:	4208      	tst	r0, r1
 8000908:	bf0c      	ite	eq
 800090a:	2000      	moveq	r0, #0
 800090c:	2001      	movne	r0, #1
 800090e:	4770      	bx	lr

08000910 <PWR_ClearFlag>:
 8000910:	f44f 43e0 	mov.w	r3, #28672	; 0x7000
 8000914:	f2c4 0300 	movt	r3, #16384	; 0x4000
 8000918:	681a      	ldr	r2, [r3, #0]
 800091a:	ea42 0080 	orr.w	r0, r2, r0, lsl #2
 800091e:	6018      	str	r0, [r3, #0]
 8000920:	4770      	bx	lr
 8000922:	bf00      	nop

08000924 <TIM_DeInit>:
 8000924:	b508      	push	{r3, lr}
 8000926:	2300      	movs	r3, #0
 8000928:	f2c4 0301 	movt	r3, #16385	; 0x4001
 800092c:	4298      	cmp	r0, r3
 800092e:	d05b      	beq.n	80009e8 <TIM_DeInit+0xc4>
 8000930:	f1b0 4f80 	cmp.w	r0, #1073741824	; 0x40000000
 8000934:	d062      	beq.n	80009fc <TIM_DeInit+0xd8>
 8000936:	f44f 6180 	mov.w	r1, #1024	; 0x400
 800093a:	f2c4 0100 	movt	r1, #16384	; 0x4000
 800093e:	4288      	cmp	r0, r1
 8000940:	d066      	beq.n	8000a10 <TIM_DeInit+0xec>
 8000942:	f44f 6200 	mov.w	r2, #2048	; 0x800
 8000946:	f2c4 0200 	movt	r2, #16384	; 0x4000
 800094a:	4290      	cmp	r0, r2
 800094c:	d06a      	beq.n	8000a24 <TIM_DeInit+0x100>
 800094e:	f44f 6340 	mov.w	r3, #3072	; 0xc00
 8000952:	f2c4 0300 	movt	r3, #16384	; 0x4000
 8000956:	4298      	cmp	r0, r3
 8000958:	d06e      	beq.n	8000a38 <TIM_DeInit+0x114>
 800095a:	f44f 5180 	mov.w	r1, #4096	; 0x1000
 800095e:	f2c4 0100 	movt	r1, #16384	; 0x4000
 8000962:	4288      	cmp	r0, r1
 8000964:	d072      	beq.n	8000a4c <TIM_DeInit+0x128>
 8000966:	f44f 52a0 	mov.w	r2, #5120	; 0x1400
 800096a:	f2c4 0200 	movt	r2, #16384	; 0x4000
 800096e:	4290      	cmp	r0, r2
 8000970:	d076      	beq.n	8000a60 <TIM_DeInit+0x13c>
 8000972:	f44f 6380 	mov.w	r3, #1024	; 0x400
 8000976:	f2c4 0301 	movt	r3, #16385	; 0x4001
 800097a:	4298      	cmp	r0, r3
 800097c:	d07a      	beq.n	8000a74 <TIM_DeInit+0x150>
 800097e:	f44f 4180 	mov.w	r1, #16384	; 0x4000
 8000982:	f2c4 0101 	movt	r1, #16385	; 0x4001
 8000986:	4288      	cmp	r0, r1
 8000988:	d07e      	beq.n	8000a88 <TIM_DeInit+0x164>
 800098a:	f44f 4288 	mov.w	r2, #17408	; 0x4400
 800098e:	f2c4 0201 	movt	r2, #16385	; 0x4001
 8000992:	4290      	cmp	r0, r2
 8000994:	f000 8084 	beq.w	8000aa0 <TIM_DeInit+0x17c>
 8000998:	f44f 4390 	mov.w	r3, #18432	; 0x4800
 800099c:	f2c4 0301 	movt	r3, #16385	; 0x4001
 80009a0:	4298      	cmp	r0, r3
 80009a2:	f000 8089 	beq.w	8000ab8 <TIM_DeInit+0x194>
 80009a6:	f44f 51c0 	mov.w	r1, #6144	; 0x1800
 80009aa:	f2c4 0100 	movt	r1, #16384	; 0x4000
 80009ae:	4288      	cmp	r0, r1
 80009b0:	f000 808e 	beq.w	8000ad0 <TIM_DeInit+0x1ac>
 80009b4:	f44f 52e0 	mov.w	r2, #7168	; 0x1c00
 80009b8:	f2c4 0200 	movt	r2, #16384	; 0x4000
 80009bc:	4290      	cmp	r0, r2
 80009be:	f000 8091 	beq.w	8000ae4 <TIM_DeInit+0x1c0>
 80009c2:	f44f 5300 	mov.w	r3, #8192	; 0x2000
 80009c6:	f2c4 0300 	movt	r3, #16384	; 0x4000
 80009ca:	4298      	cmp	r0, r3
 80009cc:	d000      	beq.n	80009d0 <TIM_DeInit+0xac>
 80009ce:	bd08      	pop	{r3, pc}
 80009d0:	2101      	movs	r1, #1
 80009d2:	f44f 7080 	mov.w	r0, #256	; 0x100
 80009d6:	f7ff fe73 	bl	80006c0 <RCC_APB1PeriphResetCmd>
 80009da:	f44f 7080 	mov.w	r0, #256	; 0x100
 80009de:	2100      	movs	r1, #0
 80009e0:	e8bd 4008 	ldmia.w	sp!, {r3, lr}
 80009e4:	f7ff be6c 	b.w	80006c0 <RCC_APB1PeriphResetCmd>
 80009e8:	2001      	movs	r0, #1
 80009ea:	4601      	mov	r1, r0
 80009ec:	f7ff fe76 	bl	80006dc <RCC_APB2PeriphResetCmd>
 80009f0:	2001      	movs	r0, #1
 80009f2:	2100      	movs	r1, #0
 80009f4:	e8bd 4008 	ldmia.w	sp!, {r3, lr}
 80009f8:	f7ff be70 	b.w	80006dc <RCC_APB2PeriphResetCmd>
 80009fc:	2001      	movs	r0, #1
 80009fe:	4601      	mov	r1, r0
 8000a00:	f7ff fe5e 	bl	80006c0 <RCC_APB1PeriphResetCmd>
 8000a04:	2001      	movs	r0, #1
 8000a06:	2100      	movs	r1, #0
 8000a08:	e8bd 4008 	ldmia.w	sp!, {r3, lr}
 8000a0c:	f7ff be58 	b.w	80006c0 <RCC_APB1PeriphResetCmd>
 8000a10:	2002      	movs	r0, #2
 8000a12:	2101      	movs	r1, #1
 8000a14:	f7ff fe54 	bl	80006c0 <RCC_APB1PeriphResetCmd>
 8000a18:	2002      	movs	r0, #2
 8000a1a:	2100      	movs	r1, #0
 8000a1c:	e8bd 4008 	ldmia.w	sp!, {r3, lr}
 8000a20:	f7ff be4e 	b.w	80006c0 <RCC_APB1PeriphResetCmd>
 8000a24:	2004      	movs	r0, #4
 8000a26:	2101      	movs	r1, #1
 8000a28:	f7ff fe4a 	bl	80006c0 <RCC_APB1PeriphResetCmd>
 8000a2c:	2004      	movs	r0, #4
 8000a2e:	2100      	movs	r1, #0
 8000a30:	e8bd 4008 	ldmia.w	sp!, {r3, lr}
 8000a34:	f7ff be44 	b.w	80006c0 <RCC_APB1PeriphResetCmd>
 8000a38:	2008      	movs	r0, #8
 8000a3a:	2101      	movs	r1, #1
 8000a3c:	f7ff fe40 	bl	80006c0 <RCC_APB1PeriphResetCmd>
 8000a40:	2008      	movs	r0, #8
 8000a42:	2100      	movs	r1, #0
 8000a44:	e8bd 4008 	ldmia.w	sp!, {r3, lr}
 8000a48:	f7ff be3a 	b.w	80006c0 <RCC_APB1PeriphResetCmd>
 8000a4c:	2010      	movs	r0, #16
 8000a4e:	2101      	movs	r1, #1
 8000a50:	f7ff fe36 	bl	80006c0 <RCC_APB1PeriphResetCmd>
 8000a54:	2010      	movs	r0, #16
 8000a56:	2100      	movs	r1, #0
 8000a58:	e8bd 4008 	ldmia.w	sp!, {r3, lr}
 8000a5c:	f7ff be30 	b.w	80006c0 <RCC_APB1PeriphResetCmd>
 8000a60:	2020      	movs	r0, #32
 8000a62:	2101      	movs	r1, #1
 8000a64:	f7ff fe2c 	bl	80006c0 <RCC_APB1PeriphResetCmd>
 8000a68:	2020      	movs	r0, #32
 8000a6a:	2100      	movs	r1, #0
 8000a6c:	e8bd 4008 	ldmia.w	sp!, {r3, lr}
 8000a70:	f7ff be26 	b.w	80006c0 <RCC_APB1PeriphResetCmd>
 8000a74:	2002      	movs	r0, #2
 8000a76:	2101      	movs	r1, #1
 8000a78:	f7ff fe30 	bl	80006dc <RCC_APB2PeriphResetCmd>
 8000a7c:	2002      	movs	r0, #2
 8000a7e:	2100      	movs	r1, #0
 8000a80:	e8bd 4008 	ldmia.w	sp!, {r3, lr}
 8000a84:	f7ff be2a 	b.w	80006dc <RCC_APB2PeriphResetCmd>
 8000a88:	2101      	movs	r1, #1
 8000a8a:	f44f 3080 	mov.w	r0, #65536	; 0x10000
 8000a8e:	f7ff fe25 	bl	80006dc <RCC_APB2PeriphResetCmd>
 8000a92:	f44f 3080 	mov.w	r0, #65536	; 0x10000
 8000a96:	2100      	movs	r1, #0
 8000a98:	e8bd 4008 	ldmia.w	sp!, {r3, lr}
 8000a9c:	f7ff be1e 	b.w	80006dc <RCC_APB2PeriphResetCmd>
 8000aa0:	2101      	movs	r1, #1
 8000aa2:	f44f 3000 	mov.w	r0, #131072	; 0x20000
 8000aa6:	f7ff fe19 	bl	80006dc <RCC_APB2PeriphResetCmd>
 8000aaa:	f44f 3000 	mov.w	r0, #131072	; 0x20000
 8000aae:	2100      	movs	r1, #0
 8000ab0:	e8bd 4008 	ldmia.w	sp!, {r3, lr}
 8000ab4:	f7ff be12 	b.w	80006dc <RCC_APB2PeriphResetCmd>
 8000ab8:	2101      	movs	r1, #1
 8000aba:	f44f 2080 	mov.w	r0, #262144	; 0x40000
 8000abe:	f7ff fe0d 	bl	80006dc <RCC_APB2PeriphResetCmd>
 8000ac2:	f44f 2080 	mov.w	r0, #262144	; 0x40000
 8000ac6:	2100      	movs	r1, #0
 8000ac8:	e8bd 4008 	ldmia.w	sp!, {r3, lr}
 8000acc:	f7ff be06 	b.w	80006dc <RCC_APB2PeriphResetCmd>
 8000ad0:	2040      	movs	r0, #64	; 0x40
 8000ad2:	2101      	movs	r1, #1
 8000ad4:	f7ff fdf4 	bl	80006c0 <RCC_APB1PeriphResetCmd>
 8000ad8:	2040      	movs	r0, #64	; 0x40
 8000ada:	2100      	movs	r1, #0
 8000adc:	e8bd 4008 	ldmia.w	sp!, {r3, lr}
 8000ae0:	f7ff bdee 	b.w	80006c0 <RCC_APB1PeriphResetCmd>
 8000ae4:	2080      	movs	r0, #128	; 0x80
 8000ae6:	2101      	movs	r1, #1
 8000ae8:	f7ff fdea 	bl	80006c0 <RCC_APB1PeriphResetCmd>
 8000aec:	2080      	movs	r0, #128	; 0x80
 8000aee:	2100      	movs	r1, #0
 8000af0:	e8bd 4008 	ldmia.w	sp!, {r3, lr}
 8000af4:	f7ff bde4 	b.w	80006c0 <RCC_APB1PeriphResetCmd>

08000af8 <TIM_TimeBaseInit>:
 8000af8:	2200      	movs	r2, #0
 8000afa:	8803      	ldrh	r3, [r0, #0]
 8000afc:	f2c4 0201 	movt	r2, #16385	; 0x4001
 8000b00:	4290      	cmp	r0, r2
 8000b02:	b470      	push	{r4, r5, r6}
 8000b04:	b29b      	uxth	r3, r3
 8000b06:	d01a      	beq.n	8000b3e <TIM_TimeBaseInit+0x46>
 8000b08:	f44f 6280 	mov.w	r2, #1024	; 0x400
 8000b0c:	f2c4 0201 	movt	r2, #16385	; 0x4001
 8000b10:	4290      	cmp	r0, r2
 8000b12:	d014      	beq.n	8000b3e <TIM_TimeBaseInit+0x46>
 8000b14:	f1b0 4f80 	cmp.w	r0, #1073741824	; 0x40000000
 8000b18:	d011      	beq.n	8000b3e <TIM_TimeBaseInit+0x46>
 8000b1a:	f44f 6280 	mov.w	r2, #1024	; 0x400
 8000b1e:	f2c4 0200 	movt	r2, #16384	; 0x4000
 8000b22:	4290      	cmp	r0, r2
 8000b24:	d00b      	beq.n	8000b3e <TIM_TimeBaseInit+0x46>
 8000b26:	f44f 6200 	mov.w	r2, #2048	; 0x800
 8000b2a:	f2c4 0200 	movt	r2, #16384	; 0x4000
 8000b2e:	4290      	cmp	r0, r2
 8000b30:	d005      	beq.n	8000b3e <TIM_TimeBaseInit+0x46>
 8000b32:	f44f 6240 	mov.w	r2, #3072	; 0xc00
 8000b36:	f2c4 0200 	movt	r2, #16384	; 0x4000
 8000b3a:	4290      	cmp	r0, r2
 8000b3c:	d105      	bne.n	8000b4a <TIM_TimeBaseInit+0x52>
 8000b3e:	f64f 728f 	movw	r2, #65423	; 0xff8f
 8000b42:	884c      	ldrh	r4, [r1, #2]
 8000b44:	401a      	ands	r2, r3
 8000b46:	ea42 0304 	orr.w	r3, r2, r4
 8000b4a:	f44f 5280 	mov.w	r2, #4096	; 0x1000
 8000b4e:	f2c4 0200 	movt	r2, #16384	; 0x4000
 8000b52:	4290      	cmp	r0, r2
 8000b54:	d021      	beq.n	8000b9a <TIM_TimeBaseInit+0xa2>
 8000b56:	f44f 52a0 	mov.w	r2, #5120	; 0x1400
 8000b5a:	f2c4 0200 	movt	r2, #16384	; 0x4000
 8000b5e:	4290      	cmp	r0, r2
 8000b60:	d01b      	beq.n	8000b9a <TIM_TimeBaseInit+0xa2>
 8000b62:	f64f 42ff 	movw	r2, #64767	; 0xfcff
 8000b66:	890e      	ldrh	r6, [r1, #8]
 8000b68:	684c      	ldr	r4, [r1, #4]
 8000b6a:	880d      	ldrh	r5, [r1, #0]
 8000b6c:	401a      	ands	r2, r3
 8000b6e:	2300      	movs	r3, #0
 8000b70:	f2c4 0301 	movt	r3, #16385	; 0x4001
 8000b74:	4332      	orrs	r2, r6
 8000b76:	4298      	cmp	r0, r3
 8000b78:	8002      	strh	r2, [r0, #0]
 8000b7a:	62c4      	str	r4, [r0, #44]	; 0x2c
 8000b7c:	8505      	strh	r5, [r0, #40]	; 0x28
 8000b7e:	d009      	beq.n	8000b94 <TIM_TimeBaseInit+0x9c>
 8000b80:	f44f 6280 	mov.w	r2, #1024	; 0x400
 8000b84:	f2c4 0201 	movt	r2, #16385	; 0x4001
 8000b88:	4290      	cmp	r0, r2
 8000b8a:	d003      	beq.n	8000b94 <TIM_TimeBaseInit+0x9c>
 8000b8c:	2301      	movs	r3, #1
 8000b8e:	8283      	strh	r3, [r0, #20]
 8000b90:	bc70      	pop	{r4, r5, r6}
 8000b92:	4770      	bx	lr
 8000b94:	7a89      	ldrb	r1, [r1, #10]
 8000b96:	8601      	strh	r1, [r0, #48]	; 0x30
 8000b98:	e7f8      	b.n	8000b8c <TIM_TimeBaseInit+0x94>
 8000b9a:	8003      	strh	r3, [r0, #0]
 8000b9c:	684a      	ldr	r2, [r1, #4]
 8000b9e:	8809      	ldrh	r1, [r1, #0]
 8000ba0:	62c2      	str	r2, [r0, #44]	; 0x2c
 8000ba2:	8501      	strh	r1, [r0, #40]	; 0x28
 8000ba4:	e7f2      	b.n	8000b8c <TIM_TimeBaseInit+0x94>
 8000ba6:	bf00      	nop

08000ba8 <TIM_TimeBaseStructInit>:
 8000ba8:	2300      	movs	r3, #0
 8000baa:	f04f 31ff 	mov.w	r1, #4294967295
 8000bae:	6041      	str	r1, [r0, #4]
 8000bb0:	8003      	strh	r3, [r0, #0]
 8000bb2:	8103      	strh	r3, [r0, #8]
 8000bb4:	8043      	strh	r3, [r0, #2]
 8000bb6:	7283      	strb	r3, [r0, #10]
 8000bb8:	4770      	bx	lr
 8000bba:	bf00      	nop

08000bbc <TIM_PrescalerConfig>:
 8000bbc:	8501      	strh	r1, [r0, #40]	; 0x28
 8000bbe:	8282      	strh	r2, [r0, #20]
 8000bc0:	4770      	bx	lr
 8000bc2:	bf00      	nop

08000bc4 <TIM_CounterModeConfig>:
 8000bc4:	8803      	ldrh	r3, [r0, #0]
 8000bc6:	f023 0270 	bic.w	r2, r3, #112	; 0x70
 8000bca:	0413      	lsls	r3, r2, #16
 8000bcc:	0c1a      	lsrs	r2, r3, #16
 8000bce:	4311      	orrs	r1, r2
 8000bd0:	8001      	strh	r1, [r0, #0]
 8000bd2:	4770      	bx	lr

08000bd4 <TIM_SetCounter>:
 8000bd4:	6241      	str	r1, [r0, #36]	; 0x24
 8000bd6:	4770      	bx	lr

08000bd8 <TIM_SetAutoreload>:
 8000bd8:	62c1      	str	r1, [r0, #44]	; 0x2c
 8000bda:	4770      	bx	lr

08000bdc <TIM_GetCounter>:
 8000bdc:	6a40      	ldr	r0, [r0, #36]	; 0x24
 8000bde:	4770      	bx	lr

08000be0 <TIM_GetPrescaler>:
 8000be0:	8d00      	ldrh	r0, [r0, #40]	; 0x28
 8000be2:	b280      	uxth	r0, r0
 8000be4:	4770      	bx	lr
 8000be6:	bf00      	nop

08000be8 <TIM_UpdateDisableConfig>:
 8000be8:	8803      	ldrh	r3, [r0, #0]
 8000bea:	b929      	cbnz	r1, 8000bf8 <TIM_UpdateDisableConfig+0x10>
 8000bec:	f023 0102 	bic.w	r1, r3, #2
 8000bf0:	040a      	lsls	r2, r1, #16
 8000bf2:	0c13      	lsrs	r3, r2, #16
 8000bf4:	8003      	strh	r3, [r0, #0]
 8000bf6:	4770      	bx	lr
 8000bf8:	b299      	uxth	r1, r3
 8000bfa:	f041 0202 	orr.w	r2, r1, #2
 8000bfe:	8002      	strh	r2, [r0, #0]
 8000c00:	4770      	bx	lr
 8000c02:	bf00      	nop

08000c04 <TIM_UpdateRequestConfig>:
 8000c04:	8803      	ldrh	r3, [r0, #0]
 8000c06:	b929      	cbnz	r1, 8000c14 <TIM_UpdateRequestConfig+0x10>
 8000c08:	f023 0104 	bic.w	r1, r3, #4
 8000c0c:	040a      	lsls	r2, r1, #16
 8000c0e:	0c13      	lsrs	r3, r2, #16
 8000c10:	8003      	strh	r3, [r0, #0]
 8000c12:	4770      	bx	lr
 8000c14:	b299      	uxth	r1, r3
 8000c16:	f041 0204 	orr.w	r2, r1, #4
 8000c1a:	8002      	strh	r2, [r0, #0]
 8000c1c:	4770      	bx	lr
 8000c1e:	bf00      	nop

08000c20 <TIM_ARRPreloadConfig>:
 8000c20:	8803      	ldrh	r3, [r0, #0]
 8000c22:	b929      	cbnz	r1, 8000c30 <TIM_ARRPreloadConfig+0x10>
 8000c24:	f023 0180 	bic.w	r1, r3, #128	; 0x80
 8000c28:	040a      	lsls	r2, r1, #16
 8000c2a:	0c13      	lsrs	r3, r2, #16
 8000c2c:	8003      	strh	r3, [r0, #0]
 8000c2e:	4770      	bx	lr
 8000c30:	b299      	uxth	r1, r3
 8000c32:	f041 0280 	orr.w	r2, r1, #128	; 0x80
 8000c36:	8002      	strh	r2, [r0, #0]
 8000c38:	4770      	bx	lr
 8000c3a:	bf00      	nop

08000c3c <TIM_SelectOnePulseMode>:
 8000c3c:	8803      	ldrh	r3, [r0, #0]
 8000c3e:	f023 0208 	bic.w	r2, r3, #8
 8000c42:	0413      	lsls	r3, r2, #16
 8000c44:	0c1a      	lsrs	r2, r3, #16
 8000c46:	8002      	strh	r2, [r0, #0]
 8000c48:	8803      	ldrh	r3, [r0, #0]
 8000c4a:	b29a      	uxth	r2, r3
 8000c4c:	4311      	orrs	r1, r2
 8000c4e:	8001      	strh	r1, [r0, #0]
 8000c50:	4770      	bx	lr
 8000c52:	bf00      	nop

08000c54 <TIM_SetClockDivision>:
 8000c54:	8803      	ldrh	r3, [r0, #0]
 8000c56:	f423 7240 	bic.w	r2, r3, #768	; 0x300
 8000c5a:	0413      	lsls	r3, r2, #16
 8000c5c:	0c1a      	lsrs	r2, r3, #16
 8000c5e:	8002      	strh	r2, [r0, #0]
 8000c60:	8803      	ldrh	r3, [r0, #0]
 8000c62:	b29a      	uxth	r2, r3
 8000c64:	4311      	orrs	r1, r2
 8000c66:	8001      	strh	r1, [r0, #0]
 8000c68:	4770      	bx	lr
 8000c6a:	bf00      	nop

08000c6c <TIM_Cmd>:
 8000c6c:	8803      	ldrh	r3, [r0, #0]
 8000c6e:	b929      	cbnz	r1, 8000c7c <TIM_Cmd+0x10>
 8000c70:	f023 0101 	bic.w	r1, r3, #1
 8000c74:	040a      	lsls	r2, r1, #16
 8000c76:	0c13      	lsrs	r3, r2, #16
 8000c78:	8003      	strh	r3, [r0, #0]
 8000c7a:	4770      	bx	lr
 8000c7c:	b299      	uxth	r1, r3
 8000c7e:	f041 0201 	orr.w	r2, r1, #1
 8000c82:	8002      	strh	r2, [r0, #0]
 8000c84:	4770      	bx	lr
 8000c86:	bf00      	nop

08000c88 <TIM_OC1Init>:
 8000c88:	e92d 01f0 	stmdb	sp!, {r4, r5, r6, r7, r8}
 8000c8c:	8c04      	ldrh	r4, [r0, #32]
 8000c8e:	f8b1 c002 	ldrh.w	ip, [r1, #2]
 8000c92:	898e      	ldrh	r6, [r1, #12]
 8000c94:	880f      	ldrh	r7, [r1, #0]
 8000c96:	f024 0201 	bic.w	r2, r4, #1
 8000c9a:	0413      	lsls	r3, r2, #16
 8000c9c:	0c1d      	lsrs	r5, r3, #16
 8000c9e:	8405      	strh	r5, [r0, #32]
 8000ca0:	8c04      	ldrh	r4, [r0, #32]
 8000ca2:	8885      	ldrh	r5, [r0, #4]
 8000ca4:	8b02      	ldrh	r2, [r0, #24]
 8000ca6:	f024 0302 	bic.w	r3, r4, #2
 8000caa:	f022 0473 	bic.w	r4, r2, #115	; 0x73
 8000cae:	0422      	lsls	r2, r4, #16
 8000cb0:	2400      	movs	r4, #0
 8000cb2:	041b      	lsls	r3, r3, #16
 8000cb4:	ea4c 0606 	orr.w	r6, ip, r6
 8000cb8:	f2c4 0401 	movt	r4, #16385	; 0x4001
 8000cbc:	0c12      	lsrs	r2, r2, #16
 8000cbe:	0c1b      	lsrs	r3, r3, #16
 8000cc0:	b2b6      	uxth	r6, r6
 8000cc2:	42a0      	cmp	r0, r4
 8000cc4:	b2ad      	uxth	r5, r5
 8000cc6:	ea42 0207 	orr.w	r2, r2, r7
 8000cca:	ea46 0303 	orr.w	r3, r6, r3
 8000cce:	d00d      	beq.n	8000cec <TIM_OC1Init+0x64>
 8000cd0:	f44f 6480 	mov.w	r4, #1024	; 0x400
 8000cd4:	f2c4 0401 	movt	r4, #16385	; 0x4001
 8000cd8:	42a0      	cmp	r0, r4
 8000cda:	d007      	beq.n	8000cec <TIM_OC1Init+0x64>
 8000cdc:	6889      	ldr	r1, [r1, #8]
 8000cde:	8085      	strh	r5, [r0, #4]
 8000ce0:	8302      	strh	r2, [r0, #24]
 8000ce2:	6341      	str	r1, [r0, #52]	; 0x34
 8000ce4:	8403      	strh	r3, [r0, #32]
 8000ce6:	e8bd 01f0 	ldmia.w	sp!, {r4, r5, r6, r7, r8}
 8000cea:	4770      	bx	lr
 8000cec:	f64f 74f7 	movw	r4, #65527	; 0xfff7
 8000cf0:	f8b1 c00e 	ldrh.w	ip, [r1, #14]
 8000cf4:	f8b1 8012 	ldrh.w	r8, [r1, #18]
 8000cf8:	8a0f      	ldrh	r7, [r1, #16]
 8000cfa:	888e      	ldrh	r6, [r1, #4]
 8000cfc:	401c      	ands	r4, r3
 8000cfe:	ea44 0c0c 	orr.w	ip, r4, ip
 8000d02:	f64f 73fb 	movw	r3, #65531	; 0xfffb
 8000d06:	f64f 44ff 	movw	r4, #64767	; 0xfcff
 8000d0a:	ea48 0707 	orr.w	r7, r8, r7
 8000d0e:	402c      	ands	r4, r5
 8000d10:	ea0c 0303 	and.w	r3, ip, r3
 8000d14:	b2bd      	uxth	r5, r7
 8000d16:	4333      	orrs	r3, r6
 8000d18:	4325      	orrs	r5, r4
 8000d1a:	e7df      	b.n	8000cdc <TIM_OC1Init+0x54>

08000d1c <TIM_OC2Init>:
 8000d1c:	e92d 03f0 	stmdb	sp!, {r4, r5, r6, r7, r8, r9}
 8000d20:	8c04      	ldrh	r4, [r0, #32]
 8000d22:	898d      	ldrh	r5, [r1, #12]
 8000d24:	880f      	ldrh	r7, [r1, #0]
 8000d26:	884e      	ldrh	r6, [r1, #2]
 8000d28:	f024 0210 	bic.w	r2, r4, #16
 8000d2c:	0413      	lsls	r3, r2, #16
 8000d2e:	0c1c      	lsrs	r4, r3, #16
 8000d30:	8404      	strh	r4, [r0, #32]
 8000d32:	8c02      	ldrh	r2, [r0, #32]
 8000d34:	8884      	ldrh	r4, [r0, #4]
 8000d36:	8b03      	ldrh	r3, [r0, #24]
 8000d38:	f022 0220 	bic.w	r2, r2, #32
 8000d3c:	0412      	lsls	r2, r2, #16
 8000d3e:	0c12      	lsrs	r2, r2, #16
 8000d40:	f423 43e6 	bic.w	r3, r3, #29440	; 0x7300
 8000d44:	041b      	lsls	r3, r3, #16
 8000d46:	ea42 1205 	orr.w	r2, r2, r5, lsl #4
 8000d4a:	2500      	movs	r5, #0
 8000d4c:	0c1b      	lsrs	r3, r3, #16
 8000d4e:	f2c4 0501 	movt	r5, #16385	; 0x4001
 8000d52:	ea43 2307 	orr.w	r3, r3, r7, lsl #8
 8000d56:	ea42 1206 	orr.w	r2, r2, r6, lsl #4
 8000d5a:	42a8      	cmp	r0, r5
 8000d5c:	b2a4      	uxth	r4, r4
 8000d5e:	b29b      	uxth	r3, r3
 8000d60:	b292      	uxth	r2, r2
 8000d62:	d00d      	beq.n	8000d80 <TIM_OC2Init+0x64>
 8000d64:	f44f 6580 	mov.w	r5, #1024	; 0x400
 8000d68:	f2c4 0501 	movt	r5, #16385	; 0x4001
 8000d6c:	42a8      	cmp	r0, r5
 8000d6e:	d007      	beq.n	8000d80 <TIM_OC2Init+0x64>
 8000d70:	6889      	ldr	r1, [r1, #8]
 8000d72:	8084      	strh	r4, [r0, #4]
 8000d74:	8303      	strh	r3, [r0, #24]
 8000d76:	6381      	str	r1, [r0, #56]	; 0x38
 8000d78:	8402      	strh	r2, [r0, #32]
 8000d7a:	e8bd 03f0 	ldmia.w	sp!, {r4, r5, r6, r7, r8, r9}
 8000d7e:	4770      	bx	lr
 8000d80:	f64f 767f 	movw	r6, #65407	; 0xff7f
 8000d84:	f8b1 900e 	ldrh.w	r9, [r1, #14]
 8000d88:	f8b1 8010 	ldrh.w	r8, [r1, #16]
 8000d8c:	f8b1 c004 	ldrh.w	ip, [r1, #4]
 8000d90:	8a4f      	ldrh	r7, [r1, #18]
 8000d92:	4016      	ands	r6, r2
 8000d94:	f24f 35ff 	movw	r5, #62463	; 0xf3ff
 8000d98:	4025      	ands	r5, r4
 8000d9a:	ea46 1609 	orr.w	r6, r6, r9, lsl #4
 8000d9e:	f64f 72bf 	movw	r2, #65471	; 0xffbf
 8000da2:	4032      	ands	r2, r6
 8000da4:	ea45 0488 	orr.w	r4, r5, r8, lsl #2
 8000da8:	ea42 120c 	orr.w	r2, r2, ip, lsl #4
 8000dac:	ea44 0487 	orr.w	r4, r4, r7, lsl #2
 8000db0:	b292      	uxth	r2, r2
 8000db2:	b2a4      	uxth	r4, r4
 8000db4:	e7dc      	b.n	8000d70 <TIM_OC2Init+0x54>
 8000db6:	bf00      	nop

08000db8 <TIM_OC3Init>:
 8000db8:	e92d 03f0 	stmdb	sp!, {r4, r5, r6, r7, r8, r9}
 8000dbc:	8c04      	ldrh	r4, [r0, #32]
 8000dbe:	898d      	ldrh	r5, [r1, #12]
 8000dc0:	884f      	ldrh	r7, [r1, #2]
 8000dc2:	880e      	ldrh	r6, [r1, #0]
 8000dc4:	f424 7280 	bic.w	r2, r4, #256	; 0x100
 8000dc8:	0413      	lsls	r3, r2, #16
 8000dca:	0c1c      	lsrs	r4, r3, #16
 8000dcc:	8404      	strh	r4, [r0, #32]
 8000dce:	8c02      	ldrh	r2, [r0, #32]
 8000dd0:	8884      	ldrh	r4, [r0, #4]
 8000dd2:	8b83      	ldrh	r3, [r0, #28]
 8000dd4:	f422 7200 	bic.w	r2, r2, #512	; 0x200
 8000dd8:	0412      	lsls	r2, r2, #16
 8000dda:	0c12      	lsrs	r2, r2, #16
 8000ddc:	ea42 2205 	orr.w	r2, r2, r5, lsl #8
 8000de0:	f023 0373 	bic.w	r3, r3, #115	; 0x73
 8000de4:	2500      	movs	r5, #0
 8000de6:	041b      	lsls	r3, r3, #16
 8000de8:	f2c4 0501 	movt	r5, #16385	; 0x4001
 8000dec:	0c1b      	lsrs	r3, r3, #16
 8000dee:	ea42 2207 	orr.w	r2, r2, r7, lsl #8
 8000df2:	42a8      	cmp	r0, r5
 8000df4:	b2a4      	uxth	r4, r4
 8000df6:	ea43 0306 	orr.w	r3, r3, r6
 8000dfa:	b292      	uxth	r2, r2
 8000dfc:	d00d      	beq.n	8000e1a <TIM_OC3Init+0x62>
 8000dfe:	f44f 6580 	mov.w	r5, #1024	; 0x400
 8000e02:	f2c4 0501 	movt	r5, #16385	; 0x4001
 8000e06:	42a8      	cmp	r0, r5
 8000e08:	d007      	beq.n	8000e1a <TIM_OC3Init+0x62>
 8000e0a:	6889      	ldr	r1, [r1, #8]
 8000e0c:	8084      	strh	r4, [r0, #4]
 8000e0e:	8383      	strh	r3, [r0, #28]
 8000e10:	63c1      	str	r1, [r0, #60]	; 0x3c
 8000e12:	8402      	strh	r2, [r0, #32]
 8000e14:	e8bd 03f0 	ldmia.w	sp!, {r4, r5, r6, r7, r8, r9}
 8000e18:	4770      	bx	lr
 8000e1a:	f24f 76ff 	movw	r6, #63487	; 0xf7ff
 8000e1e:	f8b1 900e 	ldrh.w	r9, [r1, #14]
 8000e22:	f8b1 8010 	ldrh.w	r8, [r1, #16]
 8000e26:	f8b1 c004 	ldrh.w	ip, [r1, #4]
 8000e2a:	8a4f      	ldrh	r7, [r1, #18]
 8000e2c:	4016      	ands	r6, r2
 8000e2e:	f64c 75ff 	movw	r5, #53247	; 0xcfff
 8000e32:	4025      	ands	r5, r4
 8000e34:	ea46 2609 	orr.w	r6, r6, r9, lsl #8
 8000e38:	f64f 32ff 	movw	r2, #64511	; 0xfbff
 8000e3c:	4032      	ands	r2, r6
 8000e3e:	ea45 1408 	orr.w	r4, r5, r8, lsl #4
 8000e42:	ea42 220c 	orr.w	r2, r2, ip, lsl #8
 8000e46:	ea44 1407 	orr.w	r4, r4, r7, lsl #4
 8000e4a:	b292      	uxth	r2, r2
 8000e4c:	b2a4      	uxth	r4, r4
 8000e4e:	e7dc      	b.n	8000e0a <TIM_OC3Init+0x52>

08000e50 <TIM_OC4Init>:
 8000e50:	b4f0      	push	{r4, r5, r6, r7}
 8000e52:	8c04      	ldrh	r4, [r0, #32]
 8000e54:	f8b1 c00c 	ldrh.w	ip, [r1, #12]
 8000e58:	880f      	ldrh	r7, [r1, #0]
 8000e5a:	884e      	ldrh	r6, [r1, #2]
 8000e5c:	f424 5280 	bic.w	r2, r4, #4096	; 0x1000
 8000e60:	0413      	lsls	r3, r2, #16
 8000e62:	0c1d      	lsrs	r5, r3, #16
 8000e64:	8405      	strh	r5, [r0, #32]
 8000e66:	8c04      	ldrh	r4, [r0, #32]
 8000e68:	8885      	ldrh	r5, [r0, #4]
 8000e6a:	8b83      	ldrh	r3, [r0, #28]
 8000e6c:	f424 5200 	bic.w	r2, r4, #8192	; 0x2000
 8000e70:	0412      	lsls	r2, r2, #16
 8000e72:	f423 44e6 	bic.w	r4, r3, #29440	; 0x7300
 8000e76:	0423      	lsls	r3, r4, #16
 8000e78:	0c14      	lsrs	r4, r2, #16
 8000e7a:	ea44 320c 	orr.w	r2, r4, ip, lsl #12
 8000e7e:	2400      	movs	r4, #0
 8000e80:	0c1b      	lsrs	r3, r3, #16
 8000e82:	f2c4 0401 	movt	r4, #16385	; 0x4001
 8000e86:	ea43 2307 	orr.w	r3, r3, r7, lsl #8
 8000e8a:	ea42 3206 	orr.w	r2, r2, r6, lsl #12
 8000e8e:	42a0      	cmp	r0, r4
 8000e90:	b2ad      	uxth	r5, r5
 8000e92:	b29b      	uxth	r3, r3
 8000e94:	b292      	uxth	r2, r2
 8000e96:	d00c      	beq.n	8000eb2 <TIM_OC4Init+0x62>
 8000e98:	f44f 6480 	mov.w	r4, #1024	; 0x400
 8000e9c:	f2c4 0401 	movt	r4, #16385	; 0x4001
 8000ea0:	42a0      	cmp	r0, r4
 8000ea2:	d006      	beq.n	8000eb2 <TIM_OC4Init+0x62>
 8000ea4:	6889      	ldr	r1, [r1, #8]
 8000ea6:	8085      	strh	r5, [r0, #4]
 8000ea8:	8383      	strh	r3, [r0, #28]
 8000eaa:	6401      	str	r1, [r0, #64]	; 0x40
 8000eac:	8402      	strh	r2, [r0, #32]
 8000eae:	bcf0      	pop	{r4, r5, r6, r7}
 8000eb0:	4770      	bx	lr
 8000eb2:	f64b 74ff 	movw	r4, #49151	; 0xbfff
 8000eb6:	8a0e      	ldrh	r6, [r1, #16]
 8000eb8:	402c      	ands	r4, r5
 8000eba:	ea44 1586 	orr.w	r5, r4, r6, lsl #6
 8000ebe:	b2ad      	uxth	r5, r5
 8000ec0:	e7f0      	b.n	8000ea4 <TIM_OC4Init+0x54>
 8000ec2:	bf00      	nop

08000ec4 <TIM_OCStructInit>:
 8000ec4:	2300      	movs	r3, #0
 8000ec6:	8003      	strh	r3, [r0, #0]
 8000ec8:	8043      	strh	r3, [r0, #2]
 8000eca:	8083      	strh	r3, [r0, #4]
 8000ecc:	6083      	str	r3, [r0, #8]
 8000ece:	8183      	strh	r3, [r0, #12]
 8000ed0:	81c3      	strh	r3, [r0, #14]
 8000ed2:	8203      	strh	r3, [r0, #16]
 8000ed4:	8243      	strh	r3, [r0, #18]
 8000ed6:	4770      	bx	lr

08000ed8 <TIM_SelectOCxM>:
 8000ed8:	8c03      	ldrh	r3, [r0, #32]
 8000eda:	b410      	push	{r4}
 8000edc:	2401      	movs	r4, #1
 8000ede:	b29b      	uxth	r3, r3
 8000ee0:	fa04 f401 	lsl.w	r4, r4, r1
 8000ee4:	ea23 0404 	bic.w	r4, r3, r4
 8000ee8:	8404      	strh	r4, [r0, #32]
 8000eea:	f100 0318 	add.w	r3, r0, #24
 8000eee:	b179      	cbz	r1, 8000f10 <TIM_SelectOCxM+0x38>
 8000ef0:	2908      	cmp	r1, #8
 8000ef2:	d00d      	beq.n	8000f10 <TIM_SelectOCxM+0x38>
 8000ef4:	3904      	subs	r1, #4
 8000ef6:	f3c1 014e 	ubfx	r1, r1, #1, #15
 8000efa:	f648 70ff 	movw	r0, #36863	; 0x8fff
 8000efe:	58cc      	ldr	r4, [r1, r3]
 8000f00:	4020      	ands	r0, r4
 8000f02:	50c8      	str	r0, [r1, r3]
 8000f04:	0212      	lsls	r2, r2, #8
 8000f06:	58c8      	ldr	r0, [r1, r3]
 8000f08:	b292      	uxth	r2, r2
 8000f0a:	4310      	orrs	r0, r2
 8000f0c:	50c8      	str	r0, [r1, r3]
 8000f0e:	e008      	b.n	8000f22 <TIM_SelectOCxM+0x4a>
 8000f10:	0849      	lsrs	r1, r1, #1
 8000f12:	f64f 708f 	movw	r0, #65423	; 0xff8f
 8000f16:	58cc      	ldr	r4, [r1, r3]
 8000f18:	4020      	ands	r0, r4
 8000f1a:	50c8      	str	r0, [r1, r3]
 8000f1c:	58c8      	ldr	r0, [r1, r3]
 8000f1e:	4302      	orrs	r2, r0
 8000f20:	50ca      	str	r2, [r1, r3]
 8000f22:	bc10      	pop	{r4}
 8000f24:	4770      	bx	lr
 8000f26:	bf00      	nop

08000f28 <TIM_SetCompare1>:
 8000f28:	6341      	str	r1, [r0, #52]	; 0x34
 8000f2a:	4770      	bx	lr

08000f2c <TIM_SetCompare2>:
 8000f2c:	6381      	str	r1, [r0, #56]	; 0x38
 8000f2e:	4770      	bx	lr

08000f30 <TIM_SetCompare3>:
 8000f30:	63c1      	str	r1, [r0, #60]	; 0x3c
 8000f32:	4770      	bx	lr

08000f34 <TIM_SetCompare4>:
 8000f34:	6401      	str	r1, [r0, #64]	; 0x40
 8000f36:	4770      	bx	lr

08000f38 <TIM_ForcedOC1Config>:
 8000f38:	8b03      	ldrh	r3, [r0, #24]
 8000f3a:	f023 0270 	bic.w	r2, r3, #112	; 0x70
 8000f3e:	0413      	lsls	r3, r2, #16
 8000f40:	0c1a      	lsrs	r2, r3, #16
 8000f42:	4311      	orrs	r1, r2
 8000f44:	8301      	strh	r1, [r0, #24]
 8000f46:	4770      	bx	lr

08000f48 <TIM_ForcedOC2Config>:
 8000f48:	8b03      	ldrh	r3, [r0, #24]
 8000f4a:	f423 42e0 	bic.w	r2, r3, #28672	; 0x7000
 8000f4e:	0413      	lsls	r3, r2, #16
 8000f50:	0c1a      	lsrs	r2, r3, #16
 8000f52:	ea42 2101 	orr.w	r1, r2, r1, lsl #8
 8000f56:	b28b      	uxth	r3, r1
 8000f58:	8303      	strh	r3, [r0, #24]
 8000f5a:	4770      	bx	lr

08000f5c <TIM_ForcedOC3Config>:
 8000f5c:	8b83      	ldrh	r3, [r0, #28]
 8000f5e:	f023 0270 	bic.w	r2, r3, #112	; 0x70
 8000f62:	0413      	lsls	r3, r2, #16
 8000f64:	0c1a      	lsrs	r2, r3, #16
 8000f66:	4311      	orrs	r1, r2
 8000f68:	8381      	strh	r1, [r0, #28]
 8000f6a:	4770      	bx	lr

08000f6c <TIM_ForcedOC4Config>:
 8000f6c:	8b83      	ldrh	r3, [r0, #28]
 8000f6e:	f423 42e0 	bic.w	r2, r3, #28672	; 0x7000
 8000f72:	0413      	lsls	r3, r2, #16
 8000f74:	0c1a      	lsrs	r2, r3, #16
 8000f76:	ea42 2101 	orr.w	r1, r2, r1, lsl #8
 8000f7a:	b28b      	uxth	r3, r1
 8000f7c:	8383      	strh	r3, [r0, #28]
 8000f7e:	4770      	bx	lr

08000f80 <TIM_OC1PreloadConfig>:
 8000f80:	8b03      	ldrh	r3, [r0, #24]
 8000f82:	f023 0208 	bic.w	r2, r3, #8
 8000f86:	0413      	lsls	r3, r2, #16
 8000f88:	0c1a      	lsrs	r2, r3, #16
 8000f8a:	4311      	orrs	r1, r2
 8000f8c:	8301      	strh	r1, [r0, #24]
 8000f8e:	4770      	bx	lr

08000f90 <TIM_OC2PreloadConfig>:
 8000f90:	8b03      	ldrh	r3, [r0, #24]
 8000f92:	f423 6200 	bic.w	r2, r3, #2048	; 0x800
 8000f96:	0413      	lsls	r3, r2, #16
 8000f98:	0c1a      	lsrs	r2, r3, #16
 8000f9a:	ea42 2101 	orr.w	r1, r2, r1, lsl #8
 8000f9e:	b28b      	uxth	r3, r1
 8000fa0:	8303      	strh	r3, [r0, #24]
 8000fa2:	4770      	bx	lr

08000fa4 <TIM_OC3PreloadConfig>:
 8000fa4:	8b83      	ldrh	r3, [r0, #28]
 8000fa6:	f023 0208 	bic.w	r2, r3, #8
 8000faa:	0413      	lsls	r3, r2, #16
 8000fac:	0c1a      	lsrs	r2, r3, #16
 8000fae:	4311      	orrs	r1, r2
 8000fb0:	8381      	strh	r1, [r0, #28]
 8000fb2:	4770      	bx	lr

08000fb4 <TIM_OC4PreloadConfig>:
 8000fb4:	8b83      	ldrh	r3, [r0, #28]
 8000fb6:	f423 6200 	bic.w	r2, r3, #2048	; 0x800
 8000fba:	0413      	lsls	r3, r2, #16
 8000fbc:	0c1a      	lsrs	r2, r3, #16
 8000fbe:	ea42 2101 	orr.w	r1, r2, r1, lsl #8
 8000fc2:	b28b      	uxth	r3, r1
 8000fc4:	8383      	strh	r3, [r0, #28]
 8000fc6:	4770      	bx	lr

08000fc8 <TIM_OC1FastConfig>:
 8000fc8:	8b03      	ldrh	r3, [r0, #24]
 8000fca:	f023 0204 	bic.w	r2, r3, #4
 8000fce:	0413      	lsls	r3, r2, #16
 8000fd0:	0c1a      	lsrs	r2, r3, #16
 8000fd2:	4311      	orrs	r1, r2
 8000fd4:	8301      	strh	r1, [r0, #24]
 8000fd6:	4770      	bx	lr

08000fd8 <TIM_OC2FastConfig>:
 8000fd8:	8b03      	ldrh	r3, [r0, #24]
 8000fda:	f423 6280 	bic.w	r2, r3, #1024	; 0x400
 8000fde:	0413      	lsls	r3, r2, #16
 8000fe0:	0c1a      	lsrs	r2, r3, #16
 8000fe2:	ea42 2101 	orr.w	r1, r2, r1, lsl #8
 8000fe6:	b28b      	uxth	r3, r1
 8000fe8:	8303      	strh	r3, [r0, #24]
 8000fea:	4770      	bx	lr

08000fec <TIM_OC3FastConfig>:
 8000fec:	8b83      	ldrh	r3, [r0, #28]
 8000fee:	f023 0204 	bic.w	r2, r3, #4
 8000ff2:	0413      	lsls	r3, r2, #16
 8000ff4:	0c1a      	lsrs	r2, r3, #16
 8000ff6:	4311      	orrs	r1, r2
 8000ff8:	8381      	strh	r1, [r0, #28]
 8000ffa:	4770      	bx	lr

08000ffc <TIM_OC4FastConfig>:
 8000ffc:	8b83      	ldrh	r3, [r0, #28]
 8000ffe:	f423 6280 	bic.w	r2, r3, #1024	; 0x400
 8001002:	0413      	lsls	r3, r2, #16
 8001004:	0c1a      	lsrs	r2, r3, #16
 8001006:	ea42 2101 	orr.w	r1, r2, r1, lsl #8
 800100a:	b28b      	uxth	r3, r1
 800100c:	8383      	strh	r3, [r0, #28]
 800100e:	4770      	bx	lr

08001010 <TIM_ClearOC1Ref>:
 8001010:	8b03      	ldrh	r3, [r0, #24]
 8001012:	f023 0280 	bic.w	r2, r3, #128	; 0x80
 8001016:	0413      	lsls	r3, r2, #16
 8001018:	0c1a      	lsrs	r2, r3, #16
 800101a:	4311      	orrs	r1, r2
 800101c:	8301      	strh	r1, [r0, #24]
 800101e:	4770      	bx	lr

08001020 <TIM_ClearOC2Ref>:
 8001020:	8b03      	ldrh	r3, [r0, #24]
 8001022:	045a      	lsls	r2, r3, #17
 8001024:	0c53      	lsrs	r3, r2, #17
 8001026:	ea43 2101 	orr.w	r1, r3, r1, lsl #8
 800102a:	b28a      	uxth	r2, r1
 800102c:	8302      	strh	r2, [r0, #24]
 800102e:	4770      	bx	lr

08001030 <TIM_ClearOC3Ref>:
 8001030:	8b83      	ldrh	r3, [r0, #28]
 8001032:	f023 0280 	bic.w	r2, r3, #128	; 0x80
 8001036:	0413      	lsls	r3, r2, #16
 8001038:	0c1a      	lsrs	r2, r3, #16
 800103a:	4311      	orrs	r1, r2
 800103c:	8381      	strh	r1, [r0, #28]
 800103e:	4770      	bx	lr

08001040 <TIM_ClearOC4Ref>:
 8001040:	8b83      	ldrh	r3, [r0, #28]
 8001042:	045a      	lsls	r2, r3, #17
 8001044:	0c53      	lsrs	r3, r2, #17
 8001046:	ea43 2101 	orr.w	r1, r3, r1, lsl #8
 800104a:	b28a      	uxth	r2, r1
 800104c:	8382      	strh	r2, [r0, #28]
 800104e:	4770      	bx	lr

08001050 <TIM_OC1PolarityConfig>:
 8001050:	8c03      	ldrh	r3, [r0, #32]
 8001052:	f023 0202 	bic.w	r2, r3, #2
 8001056:	0413      	lsls	r3, r2, #16
 8001058:	0c1a      	lsrs	r2, r3, #16
 800105a:	4311      	orrs	r1, r2
 800105c:	8401      	strh	r1, [r0, #32]
 800105e:	4770      	bx	lr

08001060 <TIM_OC1NPolarityConfig>:
 8001060:	8c03      	ldrh	r3, [r0, #32]
 8001062:	f023 0208 	bic.w	r2, r3, #8
 8001066:	0413      	lsls	r3, r2, #16
 8001068:	0c1a      	lsrs	r2, r3, #16
 800106a:	4311      	orrs	r1, r2
 800106c:	8401      	strh	r1, [r0, #32]
 800106e:	4770      	bx	lr

08001070 <TIM_OC2PolarityConfig>:
 8001070:	8c03      	ldrh	r3, [r0, #32]
 8001072:	f023 0220 	bic.w	r2, r3, #32
 8001076:	0413      	lsls	r3, r2, #16
 8001078:	0c1a      	lsrs	r2, r3, #16
 800107a:	ea42 1101 	orr.w	r1, r2, r1, lsl #4
 800107e:	b28b      	uxth	r3, r1
 8001080:	8403      	strh	r3, [r0, #32]
 8001082:	4770      	bx	lr

08001084 <TIM_OC2NPolarityConfig>:
 8001084:	8c03      	ldrh	r3, [r0, #32]
 8001086:	f023 0280 	bic.w	r2, r3, #128	; 0x80
 800108a:	0413      	lsls	r3, r2, #16
 800108c:	0c1a      	lsrs	r2, r3, #16
 800108e:	ea42 1101 	orr.w	r1, r2, r1, lsl #4
 8001092:	b28b      	uxth	r3, r1
 8001094:	8403      	strh	r3, [r0, #32]
 8001096:	4770      	bx	lr

08001098 <TIM_OC3PolarityConfig>:
 8001098:	8c03      	ldrh	r3, [r0, #32]
 800109a:	f423 7200 	bic.w	r2, r3, #512	; 0x200
 800109e:	0413      	lsls	r3, r2, #16
 80010a0:	0c1a      	lsrs	r2, r3, #16
 80010a2:	ea42 2101 	orr.w	r1, r2, r1, lsl #8
 80010a6:	b28b      	uxth	r3, r1
 80010a8:	8403      	strh	r3, [r0, #32]
 80010aa:	4770      	bx	lr

080010ac <TIM_OC3NPolarityConfig>:
 80010ac:	8c03      	ldrh	r3, [r0, #32]
 80010ae:	f423 6200 	bic.w	r2, r3, #2048	; 0x800
 80010b2:	0413      	lsls	r3, r2, #16
 80010b4:	0c1a      	lsrs	r2, r3, #16
 80010b6:	ea42 2101 	orr.w	r1, r2, r1, lsl #8
 80010ba:	b28b      	uxth	r3, r1
 80010bc:	8403      	strh	r3, [r0, #32]
 80010be:	4770      	bx	lr

080010c0 <TIM_OC4PolarityConfig>:
 80010c0:	8c03      	ldrh	r3, [r0, #32]
 80010c2:	f423 5200 	bic.w	r2, r3, #8192	; 0x2000
 80010c6:	0413      	lsls	r3, r2, #16
 80010c8:	0c1a      	lsrs	r2, r3, #16
 80010ca:	ea42 3101 	orr.w	r1, r2, r1, lsl #12
 80010ce:	b28b      	uxth	r3, r1
 80010d0:	8403      	strh	r3, [r0, #32]
 80010d2:	4770      	bx	lr

080010d4 <TIM_CCxCmd>:
 80010d4:	b410      	push	{r4}
 80010d6:	8c04      	ldrh	r4, [r0, #32]
 80010d8:	2301      	movs	r3, #1
 80010da:	fa03 f301 	lsl.w	r3, r3, r1
 80010de:	b2a4      	uxth	r4, r4
 80010e0:	ea24 0303 	bic.w	r3, r4, r3
 80010e4:	8403      	strh	r3, [r0, #32]
 80010e6:	8c03      	ldrh	r3, [r0, #32]
 80010e8:	fa02 f201 	lsl.w	r2, r2, r1
 80010ec:	ea42 0103 	orr.w	r1, r2, r3
 80010f0:	b28a      	uxth	r2, r1
 80010f2:	8402      	strh	r2, [r0, #32]
 80010f4:	bc10      	pop	{r4}
 80010f6:	4770      	bx	lr

080010f8 <TIM_CCxNCmd>:
 80010f8:	b410      	push	{r4}
 80010fa:	8c04      	ldrh	r4, [r0, #32]
 80010fc:	2304      	movs	r3, #4
 80010fe:	fa03 f301 	lsl.w	r3, r3, r1
 8001102:	b2a4      	uxth	r4, r4
 8001104:	ea24 0303 	bic.w	r3, r4, r3
 8001108:	8403      	strh	r3, [r0, #32]
 800110a:	8c03      	ldrh	r3, [r0, #32]
 800110c:	fa02 f201 	lsl.w	r2, r2, r1
 8001110:	ea42 0103 	orr.w	r1, r2, r3
 8001114:	b28a      	uxth	r2, r1
 8001116:	8402      	strh	r2, [r0, #32]
 8001118:	bc10      	pop	{r4}
 800111a:	4770      	bx	lr

0800111c <TIM_ICInit>:
 800111c:	880b      	ldrh	r3, [r1, #0]
 800111e:	b4f0      	push	{r4, r5, r6, r7}
 8001120:	2b00      	cmp	r3, #0
 8001122:	d032      	beq.n	800118a <TIM_ICInit+0x6e>
 8001124:	2b04      	cmp	r3, #4
 8001126:	d058      	beq.n	80011da <TIM_ICInit+0xbe>
 8001128:	2b08      	cmp	r3, #8
 800112a:	8c02      	ldrh	r2, [r0, #32]
 800112c:	884e      	ldrh	r6, [r1, #2]
 800112e:	f000 8082 	beq.w	8001236 <TIM_ICInit+0x11a>
 8001132:	888f      	ldrh	r7, [r1, #4]
 8001134:	890d      	ldrh	r5, [r1, #8]
 8001136:	88cc      	ldrh	r4, [r1, #6]
 8001138:	f422 5180 	bic.w	r1, r2, #4096	; 0x1000
 800113c:	040b      	lsls	r3, r1, #16
 800113e:	0c1a      	lsrs	r2, r3, #16
 8001140:	8402      	strh	r2, [r0, #32]
 8001142:	8b81      	ldrh	r1, [r0, #28]
 8001144:	8c03      	ldrh	r3, [r0, #32]
 8001146:	f421 7240 	bic.w	r2, r1, #768	; 0x300
 800114a:	f423 5100 	bic.w	r1, r3, #8192	; 0x2000
 800114e:	0512      	lsls	r2, r2, #20
 8001150:	044b      	lsls	r3, r1, #17
 8001152:	0c5b      	lsrs	r3, r3, #17
 8001154:	0d11      	lsrs	r1, r2, #20
 8001156:	ea41 2207 	orr.w	r2, r1, r7, lsl #8
 800115a:	ea43 3106 	orr.w	r1, r3, r6, lsl #12
 800115e:	b28b      	uxth	r3, r1
 8001160:	ea42 3205 	orr.w	r2, r2, r5, lsl #12
 8001164:	b291      	uxth	r1, r2
 8001166:	f443 5280 	orr.w	r2, r3, #4096	; 0x1000
 800116a:	8381      	strh	r1, [r0, #28]
 800116c:	8402      	strh	r2, [r0, #32]
 800116e:	8b83      	ldrh	r3, [r0, #28]
 8001170:	f423 6140 	bic.w	r1, r3, #3072	; 0xc00
 8001174:	040a      	lsls	r2, r1, #16
 8001176:	0c13      	lsrs	r3, r2, #16
 8001178:	8383      	strh	r3, [r0, #28]
 800117a:	8b81      	ldrh	r1, [r0, #28]
 800117c:	b28a      	uxth	r2, r1
 800117e:	ea42 2304 	orr.w	r3, r2, r4, lsl #8
 8001182:	b299      	uxth	r1, r3
 8001184:	8381      	strh	r1, [r0, #28]
 8001186:	bcf0      	pop	{r4, r5, r6, r7}
 8001188:	4770      	bx	lr
 800118a:	8c03      	ldrh	r3, [r0, #32]
 800118c:	884e      	ldrh	r6, [r1, #2]
 800118e:	888d      	ldrh	r5, [r1, #4]
 8001190:	890f      	ldrh	r7, [r1, #8]
 8001192:	88cc      	ldrh	r4, [r1, #6]
 8001194:	f023 0101 	bic.w	r1, r3, #1
 8001198:	040a      	lsls	r2, r1, #16
 800119a:	0c13      	lsrs	r3, r2, #16
 800119c:	8403      	strh	r3, [r0, #32]
 800119e:	8b01      	ldrh	r1, [r0, #24]
 80011a0:	8c03      	ldrh	r3, [r0, #32]
 80011a2:	f021 02f3 	bic.w	r2, r1, #243	; 0xf3
 80011a6:	0411      	lsls	r1, r2, #16
 80011a8:	0c0a      	lsrs	r2, r1, #16
 80011aa:	f023 030a 	bic.w	r3, r3, #10
 80011ae:	ea42 1107 	orr.w	r1, r2, r7, lsl #4
 80011b2:	041b      	lsls	r3, r3, #16
 80011b4:	b28a      	uxth	r2, r1
 80011b6:	0c1b      	lsrs	r3, r3, #16
 80011b8:	f046 0101 	orr.w	r1, r6, #1
 80011bc:	430b      	orrs	r3, r1
 80011be:	432a      	orrs	r2, r5
 80011c0:	8302      	strh	r2, [r0, #24]
 80011c2:	8403      	strh	r3, [r0, #32]
 80011c4:	8b02      	ldrh	r2, [r0, #24]
 80011c6:	f022 030c 	bic.w	r3, r2, #12
 80011ca:	0419      	lsls	r1, r3, #16
 80011cc:	0c0a      	lsrs	r2, r1, #16
 80011ce:	8302      	strh	r2, [r0, #24]
 80011d0:	8b03      	ldrh	r3, [r0, #24]
 80011d2:	b299      	uxth	r1, r3
 80011d4:	4321      	orrs	r1, r4
 80011d6:	8301      	strh	r1, [r0, #24]
 80011d8:	e7d5      	b.n	8001186 <TIM_ICInit+0x6a>
 80011da:	8c02      	ldrh	r2, [r0, #32]
 80011dc:	884e      	ldrh	r6, [r1, #2]
 80011de:	888d      	ldrh	r5, [r1, #4]
 80011e0:	890f      	ldrh	r7, [r1, #8]
 80011e2:	88cc      	ldrh	r4, [r1, #6]
 80011e4:	f022 0110 	bic.w	r1, r2, #16
 80011e8:	040b      	lsls	r3, r1, #16
 80011ea:	0c1a      	lsrs	r2, r3, #16
 80011ec:	8402      	strh	r2, [r0, #32]
 80011ee:	8b01      	ldrh	r1, [r0, #24]
 80011f0:	8c03      	ldrh	r3, [r0, #32]
 80011f2:	f421 7240 	bic.w	r2, r1, #768	; 0x300
 80011f6:	0511      	lsls	r1, r2, #20
 80011f8:	f023 03a0 	bic.w	r3, r3, #160	; 0xa0
 80011fc:	0d0a      	lsrs	r2, r1, #20
 80011fe:	0419      	lsls	r1, r3, #16
 8001200:	ea42 3207 	orr.w	r2, r2, r7, lsl #12
 8001204:	0c0b      	lsrs	r3, r1, #16
 8001206:	ea43 1306 	orr.w	r3, r3, r6, lsl #4
 800120a:	b291      	uxth	r1, r2
 800120c:	ea41 2205 	orr.w	r2, r1, r5, lsl #8
 8001210:	b299      	uxth	r1, r3
 8001212:	f041 0310 	orr.w	r3, r1, #16
 8001216:	b292      	uxth	r2, r2
 8001218:	8302      	strh	r2, [r0, #24]
 800121a:	8403      	strh	r3, [r0, #32]
 800121c:	8b01      	ldrh	r1, [r0, #24]
 800121e:	f421 6240 	bic.w	r2, r1, #3072	; 0xc00
 8001222:	0413      	lsls	r3, r2, #16
 8001224:	0c19      	lsrs	r1, r3, #16
 8001226:	8301      	strh	r1, [r0, #24]
 8001228:	8b02      	ldrh	r2, [r0, #24]
 800122a:	b293      	uxth	r3, r2
 800122c:	ea43 2104 	orr.w	r1, r3, r4, lsl #8
 8001230:	b28a      	uxth	r2, r1
 8001232:	8302      	strh	r2, [r0, #24]
 8001234:	e7a7      	b.n	8001186 <TIM_ICInit+0x6a>
 8001236:	f422 7280 	bic.w	r2, r2, #256	; 0x100
 800123a:	0413      	lsls	r3, r2, #16
 800123c:	888d      	ldrh	r5, [r1, #4]
 800123e:	890f      	ldrh	r7, [r1, #8]
 8001240:	88cc      	ldrh	r4, [r1, #6]
 8001242:	0c19      	lsrs	r1, r3, #16
 8001244:	8401      	strh	r1, [r0, #32]
 8001246:	8b82      	ldrh	r2, [r0, #28]
 8001248:	8c03      	ldrh	r3, [r0, #32]
 800124a:	f022 01f3 	bic.w	r1, r2, #243	; 0xf3
 800124e:	f423 6320 	bic.w	r3, r3, #2560	; 0xa00
 8001252:	040a      	lsls	r2, r1, #16
 8001254:	0419      	lsls	r1, r3, #16
 8001256:	0c12      	lsrs	r2, r2, #16
 8001258:	0c0b      	lsrs	r3, r1, #16
 800125a:	ea43 2306 	orr.w	r3, r3, r6, lsl #8
 800125e:	ea42 1107 	orr.w	r1, r2, r7, lsl #4
 8001262:	b28a      	uxth	r2, r1
 8001264:	b299      	uxth	r1, r3
 8001266:	f441 7380 	orr.w	r3, r1, #256	; 0x100
 800126a:	432a      	orrs	r2, r5
 800126c:	8382      	strh	r2, [r0, #28]
 800126e:	8403      	strh	r3, [r0, #32]
 8001270:	8b82      	ldrh	r2, [r0, #28]
 8001272:	f022 010c 	bic.w	r1, r2, #12
 8001276:	040b      	lsls	r3, r1, #16
 8001278:	0c1a      	lsrs	r2, r3, #16
 800127a:	8382      	strh	r2, [r0, #28]
 800127c:	8b81      	ldrh	r1, [r0, #28]
 800127e:	b28b      	uxth	r3, r1
 8001280:	4323      	orrs	r3, r4
 8001282:	8383      	strh	r3, [r0, #28]
 8001284:	e77f      	b.n	8001186 <TIM_ICInit+0x6a>
 8001286:	bf00      	nop

08001288 <TIM_ICStructInit>:
 8001288:	2300      	movs	r3, #0
 800128a:	2201      	movs	r2, #1
 800128c:	8003      	strh	r3, [r0, #0]
 800128e:	8043      	strh	r3, [r0, #2]
 8001290:	8082      	strh	r2, [r0, #4]
 8001292:	80c3      	strh	r3, [r0, #6]
 8001294:	8103      	strh	r3, [r0, #8]
 8001296:	4770      	bx	lr

08001298 <TIM_PWMIConfig>:
 8001298:	884a      	ldrh	r2, [r1, #2]
 800129a:	888b      	ldrh	r3, [r1, #4]
 800129c:	e92d 01f0 	stmdb	sp!, {r4, r5, r6, r7, r8}
 80012a0:	880c      	ldrh	r4, [r1, #0]
 80012a2:	2a00      	cmp	r2, #0
 80012a4:	bf0c      	ite	eq
 80012a6:	2602      	moveq	r6, #2
 80012a8:	2600      	movne	r6, #0
 80012aa:	2b01      	cmp	r3, #1
 80012ac:	bf14      	ite	ne
 80012ae:	f44f 7580 	movne.w	r5, #256	; 0x100
 80012b2:	f44f 7500 	moveq.w	r5, #512	; 0x200
 80012b6:	bf14      	ite	ne
 80012b8:	f04f 0801 	movne.w	r8, #1
 80012bc:	f04f 0802 	moveq.w	r8, #2
 80012c0:	2c00      	cmp	r4, #0
 80012c2:	d053      	beq.n	800136c <TIM_PWMIConfig+0xd4>
 80012c4:	8c04      	ldrh	r4, [r0, #32]
 80012c6:	f8b1 c008 	ldrh.w	ip, [r1, #8]
 80012ca:	88cf      	ldrh	r7, [r1, #6]
 80012cc:	f024 0110 	bic.w	r1, r4, #16
 80012d0:	040d      	lsls	r5, r1, #16
 80012d2:	0c2d      	lsrs	r5, r5, #16
 80012d4:	8405      	strh	r5, [r0, #32]
 80012d6:	8b04      	ldrh	r4, [r0, #24]
 80012d8:	8c01      	ldrh	r1, [r0, #32]
 80012da:	f424 7440 	bic.w	r4, r4, #768	; 0x300
 80012de:	0524      	lsls	r4, r4, #20
 80012e0:	f021 01a0 	bic.w	r1, r1, #160	; 0xa0
 80012e4:	0d24      	lsrs	r4, r4, #20
 80012e6:	0409      	lsls	r1, r1, #16
 80012e8:	0c09      	lsrs	r1, r1, #16
 80012ea:	ea44 340c 	orr.w	r4, r4, ip, lsl #12
 80012ee:	ea41 1202 	orr.w	r2, r1, r2, lsl #4
 80012f2:	b2a4      	uxth	r4, r4
 80012f4:	b291      	uxth	r1, r2
 80012f6:	ea44 2303 	orr.w	r3, r4, r3, lsl #8
 80012fa:	f041 0210 	orr.w	r2, r1, #16
 80012fe:	b29b      	uxth	r3, r3
 8001300:	8303      	strh	r3, [r0, #24]
 8001302:	8402      	strh	r2, [r0, #32]
 8001304:	8b01      	ldrh	r1, [r0, #24]
 8001306:	f421 6340 	bic.w	r3, r1, #3072	; 0xc00
 800130a:	041a      	lsls	r2, r3, #16
 800130c:	0c11      	lsrs	r1, r2, #16
 800130e:	8301      	strh	r1, [r0, #24]
 8001310:	8b03      	ldrh	r3, [r0, #24]
 8001312:	b29a      	uxth	r2, r3
 8001314:	ea42 2107 	orr.w	r1, r2, r7, lsl #8
 8001318:	b28b      	uxth	r3, r1
 800131a:	8303      	strh	r3, [r0, #24]
 800131c:	8c02      	ldrh	r2, [r0, #32]
 800131e:	f022 0101 	bic.w	r1, r2, #1
 8001322:	040b      	lsls	r3, r1, #16
 8001324:	0c1a      	lsrs	r2, r3, #16
 8001326:	8402      	strh	r2, [r0, #32]
 8001328:	8b01      	ldrh	r1, [r0, #24]
 800132a:	8c03      	ldrh	r3, [r0, #32]
 800132c:	f021 02f3 	bic.w	r2, r1, #243	; 0xf3
 8001330:	0411      	lsls	r1, r2, #16
 8001332:	f023 030a 	bic.w	r3, r3, #10
 8001336:	0c0a      	lsrs	r2, r1, #16
 8001338:	0419      	lsls	r1, r3, #16
 800133a:	0c0b      	lsrs	r3, r1, #16
 800133c:	ea42 120c 	orr.w	r2, r2, ip, lsl #4
 8001340:	b291      	uxth	r1, r2
 8001342:	f043 0201 	orr.w	r2, r3, #1
 8001346:	ea41 0808 	orr.w	r8, r1, r8
 800134a:	4316      	orrs	r6, r2
 800134c:	f8a0 8018 	strh.w	r8, [r0, #24]
 8001350:	8406      	strh	r6, [r0, #32]
 8001352:	8b03      	ldrh	r3, [r0, #24]
 8001354:	f023 010c 	bic.w	r1, r3, #12
 8001358:	040a      	lsls	r2, r1, #16
 800135a:	0c13      	lsrs	r3, r2, #16
 800135c:	8303      	strh	r3, [r0, #24]
 800135e:	8b01      	ldrh	r1, [r0, #24]
 8001360:	b28a      	uxth	r2, r1
 8001362:	4317      	orrs	r7, r2
 8001364:	8307      	strh	r7, [r0, #24]
 8001366:	e8bd 01f0 	ldmia.w	sp!, {r4, r5, r6, r7, r8}
 800136a:	4770      	bx	lr
 800136c:	8c04      	ldrh	r4, [r0, #32]
 800136e:	f8b1 c008 	ldrh.w	ip, [r1, #8]
 8001372:	88cf      	ldrh	r7, [r1, #6]
 8001374:	f024 0101 	bic.w	r1, r4, #1
 8001378:	040c      	lsls	r4, r1, #16
 800137a:	0c21      	lsrs	r1, r4, #16
 800137c:	8401      	strh	r1, [r0, #32]
 800137e:	8b01      	ldrh	r1, [r0, #24]
 8001380:	8c04      	ldrh	r4, [r0, #32]
 8001382:	f021 01f3 	bic.w	r1, r1, #243	; 0xf3
 8001386:	0409      	lsls	r1, r1, #16
 8001388:	0c09      	lsrs	r1, r1, #16
 800138a:	f024 040a 	bic.w	r4, r4, #10
 800138e:	ea41 110c 	orr.w	r1, r1, ip, lsl #4
 8001392:	0424      	lsls	r4, r4, #16
 8001394:	b289      	uxth	r1, r1
 8001396:	f042 0201 	orr.w	r2, r2, #1
 800139a:	0c24      	lsrs	r4, r4, #16
 800139c:	430b      	orrs	r3, r1
 800139e:	4314      	orrs	r4, r2
 80013a0:	8303      	strh	r3, [r0, #24]
 80013a2:	8404      	strh	r4, [r0, #32]
 80013a4:	8b01      	ldrh	r1, [r0, #24]
 80013a6:	f021 020c 	bic.w	r2, r1, #12
 80013aa:	0413      	lsls	r3, r2, #16
 80013ac:	0c19      	lsrs	r1, r3, #16
 80013ae:	8301      	strh	r1, [r0, #24]
 80013b0:	8b02      	ldrh	r2, [r0, #24]
 80013b2:	b293      	uxth	r3, r2
 80013b4:	433b      	orrs	r3, r7
 80013b6:	8303      	strh	r3, [r0, #24]
 80013b8:	8c01      	ldrh	r1, [r0, #32]
 80013ba:	f021 0210 	bic.w	r2, r1, #16
 80013be:	0413      	lsls	r3, r2, #16
 80013c0:	0c19      	lsrs	r1, r3, #16
 80013c2:	8401      	strh	r1, [r0, #32]
 80013c4:	8b02      	ldrh	r2, [r0, #24]
 80013c6:	8c03      	ldrh	r3, [r0, #32]
 80013c8:	f422 7140 	bic.w	r1, r2, #768	; 0x300
 80013cc:	050a      	lsls	r2, r1, #20
 80013ce:	f023 03a0 	bic.w	r3, r3, #160	; 0xa0
 80013d2:	0d11      	lsrs	r1, r2, #20
 80013d4:	041b      	lsls	r3, r3, #16
 80013d6:	ea41 320c 	orr.w	r2, r1, ip, lsl #12
 80013da:	0c19      	lsrs	r1, r3, #16
 80013dc:	f041 0310 	orr.w	r3, r1, #16
 80013e0:	b292      	uxth	r2, r2
 80013e2:	4315      	orrs	r5, r2
 80013e4:	ea43 1606 	orr.w	r6, r3, r6, lsl #4
 80013e8:	8305      	strh	r5, [r0, #24]
 80013ea:	8406      	strh	r6, [r0, #32]
 80013ec:	8b01      	ldrh	r1, [r0, #24]
 80013ee:	f421 6240 	bic.w	r2, r1, #3072	; 0xc00
 80013f2:	0413      	lsls	r3, r2, #16
 80013f4:	0c19      	lsrs	r1, r3, #16
 80013f6:	8301      	strh	r1, [r0, #24]
 80013f8:	8b02      	ldrh	r2, [r0, #24]
 80013fa:	b293      	uxth	r3, r2
 80013fc:	ea43 2707 	orr.w	r7, r3, r7, lsl #8
 8001400:	b2bf      	uxth	r7, r7
 8001402:	8307      	strh	r7, [r0, #24]
 8001404:	e7af      	b.n	8001366 <TIM_PWMIConfig+0xce>
 8001406:	bf00      	nop

08001408 <TIM_GetCapture1>:
 8001408:	6b40      	ldr	r0, [r0, #52]	; 0x34
 800140a:	4770      	bx	lr

0800140c <TIM_GetCapture2>:
 800140c:	6b80      	ldr	r0, [r0, #56]	; 0x38
 800140e:	4770      	bx	lr

08001410 <TIM_GetCapture3>:
 8001410:	6bc0      	ldr	r0, [r0, #60]	; 0x3c
 8001412:	4770      	bx	lr

08001414 <TIM_GetCapture4>:
 8001414:	6c00      	ldr	r0, [r0, #64]	; 0x40
 8001416:	4770      	bx	lr

08001418 <TIM_SetIC1Prescaler>:
 8001418:	8b03      	ldrh	r3, [r0, #24]
 800141a:	f023 020c 	bic.w	r2, r3, #12
 800141e:	0413      	lsls	r3, r2, #16
 8001420:	0c1a      	lsrs	r2, r3, #16
 8001422:	8302      	strh	r2, [r0, #24]
 8001424:	8b03      	ldrh	r3, [r0, #24]
 8001426:	b29a      	uxth	r2, r3
 8001428:	4311      	orrs	r1, r2
 800142a:	8301      	strh	r1, [r0, #24]
 800142c:	4770      	bx	lr
 800142e:	bf00      	nop

08001430 <TIM_SetIC2Prescaler>:
 8001430:	8b03      	ldrh	r3, [r0, #24]
 8001432:	f423 6240 	bic.w	r2, r3, #3072	; 0xc00
 8001436:	0413      	lsls	r3, r2, #16
 8001438:	0c1a      	lsrs	r2, r3, #16
 800143a:	8302      	strh	r2, [r0, #24]
 800143c:	8b03      	ldrh	r3, [r0, #24]
 800143e:	b29a      	uxth	r2, r3
 8001440:	ea42 2101 	orr.w	r1, r2, r1, lsl #8
 8001444:	b28b      	uxth	r3, r1
 8001446:	8303      	strh	r3, [r0, #24]
 8001448:	4770      	bx	lr
 800144a:	bf00      	nop

0800144c <TIM_SetIC3Prescaler>:
 800144c:	8b83      	ldrh	r3, [r0, #28]
 800144e:	f023 020c 	bic.w	r2, r3, #12
 8001452:	0413      	lsls	r3, r2, #16
 8001454:	0c1a      	lsrs	r2, r3, #16
 8001456:	8382      	strh	r2, [r0, #28]
 8001458:	8b83      	ldrh	r3, [r0, #28]
 800145a:	b29a      	uxth	r2, r3
 800145c:	4311      	orrs	r1, r2
 800145e:	8381      	strh	r1, [r0, #28]
 8001460:	4770      	bx	lr
 8001462:	bf00      	nop

08001464 <TIM_SetIC4Prescaler>:
 8001464:	8b83      	ldrh	r3, [r0, #28]
 8001466:	f423 6240 	bic.w	r2, r3, #3072	; 0xc00
 800146a:	0413      	lsls	r3, r2, #16
 800146c:	0c1a      	lsrs	r2, r3, #16
 800146e:	8382      	strh	r2, [r0, #28]
 8001470:	8b83      	ldrh	r3, [r0, #28]
 8001472:	b29a      	uxth	r2, r3
 8001474:	ea42 2101 	orr.w	r1, r2, r1, lsl #8
 8001478:	b28b      	uxth	r3, r1
 800147a:	8383      	strh	r3, [r0, #28]
 800147c:	4770      	bx	lr
 800147e:	bf00      	nop

08001480 <TIM_BDTRConfig>:
 8001480:	880b      	ldrh	r3, [r1, #0]
 8001482:	f8b1 c002 	ldrh.w	ip, [r1, #2]
 8001486:	898a      	ldrh	r2, [r1, #12]
 8001488:	b4f0      	push	{r4, r5, r6, r7}
 800148a:	888f      	ldrh	r7, [r1, #4]
 800148c:	88ce      	ldrh	r6, [r1, #6]
 800148e:	890d      	ldrh	r5, [r1, #8]
 8001490:	894c      	ldrh	r4, [r1, #10]
 8001492:	ea4c 0103 	orr.w	r1, ip, r3
 8001496:	4339      	orrs	r1, r7
 8001498:	4331      	orrs	r1, r6
 800149a:	4329      	orrs	r1, r5
 800149c:	4321      	orrs	r1, r4
 800149e:	4311      	orrs	r1, r2
 80014a0:	b28b      	uxth	r3, r1
 80014a2:	f8a0 3044 	strh.w	r3, [r0, #68]	; 0x44
 80014a6:	bcf0      	pop	{r4, r5, r6, r7}
 80014a8:	4770      	bx	lr
 80014aa:	bf00      	nop

080014ac <TIM_BDTRStructInit>:
 80014ac:	2300      	movs	r3, #0
 80014ae:	8003      	strh	r3, [r0, #0]
 80014b0:	8043      	strh	r3, [r0, #2]
 80014b2:	8083      	strh	r3, [r0, #4]
 80014b4:	80c3      	strh	r3, [r0, #6]
 80014b6:	8103      	strh	r3, [r0, #8]
 80014b8:	8143      	strh	r3, [r0, #10]
 80014ba:	8183      	strh	r3, [r0, #12]
 80014bc:	4770      	bx	lr
 80014be:	bf00      	nop

080014c0 <TIM_CtrlPWMOutputs>:
 80014c0:	f8b0 3044 	ldrh.w	r3, [r0, #68]	; 0x44
 80014c4:	b921      	cbnz	r1, 80014d0 <TIM_CtrlPWMOutputs+0x10>
 80014c6:	0459      	lsls	r1, r3, #17
 80014c8:	0c4a      	lsrs	r2, r1, #17
 80014ca:	f8a0 2044 	strh.w	r2, [r0, #68]	; 0x44
 80014ce:	4770      	bx	lr
 80014d0:	ea6f 4343 	mvn.w	r3, r3, lsl #17
 80014d4:	ea6f 4153 	mvn.w	r1, r3, lsr #17
 80014d8:	b28a      	uxth	r2, r1
 80014da:	f8a0 2044 	strh.w	r2, [r0, #68]	; 0x44
 80014de:	4770      	bx	lr

080014e0 <TIM_SelectCOM>:
 80014e0:	8883      	ldrh	r3, [r0, #4]
 80014e2:	b929      	cbnz	r1, 80014f0 <TIM_SelectCOM+0x10>
 80014e4:	f023 0104 	bic.w	r1, r3, #4
 80014e8:	040a      	lsls	r2, r1, #16
 80014ea:	0c13      	lsrs	r3, r2, #16
 80014ec:	8083      	strh	r3, [r0, #4]
 80014ee:	4770      	bx	lr
 80014f0:	b299      	uxth	r1, r3
 80014f2:	f041 0204 	orr.w	r2, r1, #4
 80014f6:	8082      	strh	r2, [r0, #4]
 80014f8:	4770      	bx	lr
 80014fa:	bf00      	nop

080014fc <TIM_CCPreloadControl>:
 80014fc:	8883      	ldrh	r3, [r0, #4]
 80014fe:	b929      	cbnz	r1, 800150c <TIM_CCPreloadControl+0x10>
 8001500:	f023 0101 	bic.w	r1, r3, #1
 8001504:	040a      	lsls	r2, r1, #16
 8001506:	0c13      	lsrs	r3, r2, #16
 8001508:	8083      	strh	r3, [r0, #4]
 800150a:	4770      	bx	lr
 800150c:	b299      	uxth	r1, r3
 800150e:	f041 0201 	orr.w	r2, r1, #1
 8001512:	8082      	strh	r2, [r0, #4]
 8001514:	4770      	bx	lr
 8001516:	bf00      	nop

08001518 <TIM_ITConfig>:
 8001518:	8983      	ldrh	r3, [r0, #12]
 800151a:	b29b      	uxth	r3, r3
 800151c:	b91a      	cbnz	r2, 8001526 <TIM_ITConfig+0xe>
 800151e:	ea23 0101 	bic.w	r1, r3, r1
 8001522:	8181      	strh	r1, [r0, #12]
 8001524:	4770      	bx	lr
 8001526:	4319      	orrs	r1, r3
 8001528:	8181      	strh	r1, [r0, #12]
 800152a:	4770      	bx	lr

0800152c <TIM_GenerateEvent>:
 800152c:	8281      	strh	r1, [r0, #20]
 800152e:	4770      	bx	lr

08001530 <TIM_GetFlagStatus>:
 8001530:	8a03      	ldrh	r3, [r0, #16]
 8001532:	4219      	tst	r1, r3
 8001534:	bf0c      	ite	eq
 8001536:	2000      	moveq	r0, #0
 8001538:	2001      	movne	r0, #1
 800153a:	4770      	bx	lr

0800153c <TIM_ClearFlag>:
 800153c:	43c9      	mvns	r1, r1
 800153e:	b28a      	uxth	r2, r1
 8001540:	8202      	strh	r2, [r0, #16]
 8001542:	4770      	bx	lr

08001544 <TIM_GetITStatus>:
 8001544:	8a03      	ldrh	r3, [r0, #16]
 8001546:	8982      	ldrh	r2, [r0, #12]
 8001548:	ea11 0003 	ands.w	r0, r1, r3
 800154c:	b292      	uxth	r2, r2
 800154e:	d003      	beq.n	8001558 <TIM_GetITStatus+0x14>
 8001550:	4211      	tst	r1, r2
 8001552:	bf0c      	ite	eq
 8001554:	2000      	moveq	r0, #0
 8001556:	2001      	movne	r0, #1
 8001558:	4770      	bx	lr
 800155a:	bf00      	nop

0800155c <TIM_ClearITPendingBit>:
 800155c:	43c9      	mvns	r1, r1
 800155e:	b28a      	uxth	r2, r1
 8001560:	8202      	strh	r2, [r0, #16]
 8001562:	4770      	bx	lr

08001564 <TIM_DMAConfig>:
 8001564:	430a      	orrs	r2, r1
 8001566:	f8a0 2048 	strh.w	r2, [r0, #72]	; 0x48
 800156a:	4770      	bx	lr

0800156c <TIM_DMACmd>:
 800156c:	8983      	ldrh	r3, [r0, #12]
 800156e:	b29b      	uxth	r3, r3
 8001570:	b91a      	cbnz	r2, 800157a <TIM_DMACmd+0xe>
 8001572:	ea23 0101 	bic.w	r1, r3, r1
 8001576:	8181      	strh	r1, [r0, #12]
 8001578:	4770      	bx	lr
 800157a:	4319      	orrs	r1, r3
 800157c:	8181      	strh	r1, [r0, #12]
 800157e:	4770      	bx	lr

08001580 <TIM_SelectCCDMA>:
 8001580:	8883      	ldrh	r3, [r0, #4]
 8001582:	b929      	cbnz	r1, 8001590 <TIM_SelectCCDMA+0x10>
 8001584:	f023 0108 	bic.w	r1, r3, #8
 8001588:	040a      	lsls	r2, r1, #16
 800158a:	0c13      	lsrs	r3, r2, #16
 800158c:	8083      	strh	r3, [r0, #4]
 800158e:	4770      	bx	lr
 8001590:	b299      	uxth	r1, r3
 8001592:	f041 0208 	orr.w	r2, r1, #8
 8001596:	8082      	strh	r2, [r0, #4]
 8001598:	4770      	bx	lr
 800159a:	bf00      	nop

0800159c <TIM_InternalClockConfig>:
 800159c:	8903      	ldrh	r3, [r0, #8]
 800159e:	f023 0107 	bic.w	r1, r3, #7
 80015a2:	040a      	lsls	r2, r1, #16
 80015a4:	0c13      	lsrs	r3, r2, #16
 80015a6:	8103      	strh	r3, [r0, #8]
 80015a8:	4770      	bx	lr
 80015aa:	bf00      	nop

080015ac <TIM_ITRxExternalClockConfig>:
 80015ac:	8903      	ldrh	r3, [r0, #8]
 80015ae:	f023 0270 	bic.w	r2, r3, #112	; 0x70
 80015b2:	0413      	lsls	r3, r2, #16
 80015b4:	0c1a      	lsrs	r2, r3, #16
 80015b6:	4311      	orrs	r1, r2
 80015b8:	8101      	strh	r1, [r0, #8]
 80015ba:	8901      	ldrh	r1, [r0, #8]
 80015bc:	b28b      	uxth	r3, r1
 80015be:	f043 0207 	orr.w	r2, r3, #7
 80015c2:	8102      	strh	r2, [r0, #8]
 80015c4:	4770      	bx	lr
 80015c6:	bf00      	nop

080015c8 <TIM_TIxExternalClockConfig>:
 80015c8:	2960      	cmp	r1, #96	; 0x60
 80015ca:	b470      	push	{r4, r5, r6}
 80015cc:	d027      	beq.n	800161e <TIM_TIxExternalClockConfig+0x56>
 80015ce:	8c06      	ldrh	r6, [r0, #32]
 80015d0:	f026 0401 	bic.w	r4, r6, #1
 80015d4:	0425      	lsls	r5, r4, #16
 80015d6:	0c2e      	lsrs	r6, r5, #16
 80015d8:	8406      	strh	r6, [r0, #32]
 80015da:	8b05      	ldrh	r5, [r0, #24]
 80015dc:	8c04      	ldrh	r4, [r0, #32]
 80015de:	f025 05f3 	bic.w	r5, r5, #243	; 0xf3
 80015e2:	042d      	lsls	r5, r5, #16
 80015e4:	f024 040a 	bic.w	r4, r4, #10
 80015e8:	0c2d      	lsrs	r5, r5, #16
 80015ea:	0424      	lsls	r4, r4, #16
 80015ec:	f045 0501 	orr.w	r5, r5, #1
 80015f0:	0c24      	lsrs	r4, r4, #16
 80015f2:	ea45 1303 	orr.w	r3, r5, r3, lsl #4
 80015f6:	f044 0401 	orr.w	r4, r4, #1
 80015fa:	b29b      	uxth	r3, r3
 80015fc:	4322      	orrs	r2, r4
 80015fe:	8303      	strh	r3, [r0, #24]
 8001600:	8402      	strh	r2, [r0, #32]
 8001602:	8903      	ldrh	r3, [r0, #8]
 8001604:	f023 0270 	bic.w	r2, r3, #112	; 0x70
 8001608:	0413      	lsls	r3, r2, #16
 800160a:	0c1a      	lsrs	r2, r3, #16
 800160c:	4311      	orrs	r1, r2
 800160e:	8101      	strh	r1, [r0, #8]
 8001610:	8903      	ldrh	r3, [r0, #8]
 8001612:	b29a      	uxth	r2, r3
 8001614:	f042 0107 	orr.w	r1, r2, #7
 8001618:	8101      	strh	r1, [r0, #8]
 800161a:	bc70      	pop	{r4, r5, r6}
 800161c:	4770      	bx	lr
 800161e:	8c05      	ldrh	r5, [r0, #32]
 8001620:	f025 0410 	bic.w	r4, r5, #16
 8001624:	0425      	lsls	r5, r4, #16
 8001626:	0c2c      	lsrs	r4, r5, #16
 8001628:	8404      	strh	r4, [r0, #32]
 800162a:	8b05      	ldrh	r5, [r0, #24]
 800162c:	8c04      	ldrh	r4, [r0, #32]
 800162e:	f425 7540 	bic.w	r5, r5, #768	; 0x300
 8001632:	f024 04a0 	bic.w	r4, r4, #160	; 0xa0
 8001636:	052d      	lsls	r5, r5, #20
 8001638:	0424      	lsls	r4, r4, #16
 800163a:	0d2d      	lsrs	r5, r5, #20
 800163c:	0c24      	lsrs	r4, r4, #16
 800163e:	f445 7580 	orr.w	r5, r5, #256	; 0x100
 8001642:	f044 0410 	orr.w	r4, r4, #16
 8001646:	ea45 3303 	orr.w	r3, r5, r3, lsl #12
 800164a:	ea44 1202 	orr.w	r2, r4, r2, lsl #4
 800164e:	b29b      	uxth	r3, r3
 8001650:	b292      	uxth	r2, r2
 8001652:	8303      	strh	r3, [r0, #24]
 8001654:	8402      	strh	r2, [r0, #32]
 8001656:	e7d4      	b.n	8001602 <TIM_TIxExternalClockConfig+0x3a>

08001658 <TIM_ETRClockMode1Config>:
 8001658:	b410      	push	{r4}
 800165a:	8904      	ldrh	r4, [r0, #8]
 800165c:	b2e4      	uxtb	r4, r4
 800165e:	4321      	orrs	r1, r4
 8001660:	430a      	orrs	r2, r1
 8001662:	ea42 2303 	orr.w	r3, r2, r3, lsl #8
 8001666:	b29c      	uxth	r4, r3
 8001668:	8104      	strh	r4, [r0, #8]
 800166a:	8901      	ldrh	r1, [r0, #8]
 800166c:	f021 0277 	bic.w	r2, r1, #119	; 0x77
 8001670:	0413      	lsls	r3, r2, #16
 8001672:	0c19      	lsrs	r1, r3, #16
 8001674:	f041 0277 	orr.w	r2, r1, #119	; 0x77
 8001678:	8102      	strh	r2, [r0, #8]
 800167a:	bc10      	pop	{r4}
 800167c:	4770      	bx	lr
 800167e:	bf00      	nop

08001680 <TIM_ETRClockMode2Config>:
 8001680:	b410      	push	{r4}
 8001682:	8904      	ldrh	r4, [r0, #8]
 8001684:	b2e4      	uxtb	r4, r4
 8001686:	4321      	orrs	r1, r4
 8001688:	430a      	orrs	r2, r1
 800168a:	ea42 2303 	orr.w	r3, r2, r3, lsl #8
 800168e:	b29c      	uxth	r4, r3
 8001690:	8104      	strh	r4, [r0, #8]
 8001692:	8901      	ldrh	r1, [r0, #8]
 8001694:	b28a      	uxth	r2, r1
 8001696:	f442 4380 	orr.w	r3, r2, #16384	; 0x4000
 800169a:	8103      	strh	r3, [r0, #8]
 800169c:	bc10      	pop	{r4}
 800169e:	4770      	bx	lr

080016a0 <TIM_SelectInputTrigger>:
 80016a0:	8903      	ldrh	r3, [r0, #8]
 80016a2:	f023 0270 	bic.w	r2, r3, #112	; 0x70
 80016a6:	0413      	lsls	r3, r2, #16
 80016a8:	0c1a      	lsrs	r2, r3, #16
 80016aa:	4311      	orrs	r1, r2
 80016ac:	8101      	strh	r1, [r0, #8]
 80016ae:	4770      	bx	lr

080016b0 <TIM_SelectOutputTrigger>:
 80016b0:	8883      	ldrh	r3, [r0, #4]
 80016b2:	f023 0270 	bic.w	r2, r3, #112	; 0x70
 80016b6:	0413      	lsls	r3, r2, #16
 80016b8:	0c1a      	lsrs	r2, r3, #16
 80016ba:	8082      	strh	r2, [r0, #4]
 80016bc:	8883      	ldrh	r3, [r0, #4]
 80016be:	b29a      	uxth	r2, r3
 80016c0:	4311      	orrs	r1, r2
 80016c2:	8081      	strh	r1, [r0, #4]
 80016c4:	4770      	bx	lr
 80016c6:	bf00      	nop

080016c8 <TIM_SelectSlaveMode>:
 80016c8:	8903      	ldrh	r3, [r0, #8]
 80016ca:	f023 0207 	bic.w	r2, r3, #7
 80016ce:	0413      	lsls	r3, r2, #16
 80016d0:	0c1a      	lsrs	r2, r3, #16
 80016d2:	8102      	strh	r2, [r0, #8]
 80016d4:	8903      	ldrh	r3, [r0, #8]
 80016d6:	b29a      	uxth	r2, r3
 80016d8:	4311      	orrs	r1, r2
 80016da:	8101      	strh	r1, [r0, #8]
 80016dc:	4770      	bx	lr
 80016de:	bf00      	nop

080016e0 <TIM_SelectMasterSlaveMode>:
 80016e0:	8903      	ldrh	r3, [r0, #8]
 80016e2:	f023 0280 	bic.w	r2, r3, #128	; 0x80
 80016e6:	0413      	lsls	r3, r2, #16
 80016e8:	0c1a      	lsrs	r2, r3, #16
 80016ea:	8102      	strh	r2, [r0, #8]
 80016ec:	8903      	ldrh	r3, [r0, #8]
 80016ee:	b29a      	uxth	r2, r3
 80016f0:	4311      	orrs	r1, r2
 80016f2:	8101      	strh	r1, [r0, #8]
 80016f4:	4770      	bx	lr
 80016f6:	bf00      	nop

080016f8 <TIM_ETRConfig>:
 80016f8:	b410      	push	{r4}
 80016fa:	8904      	ldrh	r4, [r0, #8]
 80016fc:	b2e4      	uxtb	r4, r4
 80016fe:	4321      	orrs	r1, r4
 8001700:	430a      	orrs	r2, r1
 8001702:	ea42 2303 	orr.w	r3, r2, r3, lsl #8
 8001706:	b29c      	uxth	r4, r3
 8001708:	8104      	strh	r4, [r0, #8]
 800170a:	bc10      	pop	{r4}
 800170c:	4770      	bx	lr
 800170e:	bf00      	nop

08001710 <TIM_EncoderInterfaceConfig>:
 8001710:	b470      	push	{r4, r5, r6}
 8001712:	8905      	ldrh	r5, [r0, #8]
 8001714:	8b04      	ldrh	r4, [r0, #24]
 8001716:	8c06      	ldrh	r6, [r0, #32]
 8001718:	f424 7440 	bic.w	r4, r4, #768	; 0x300
 800171c:	f026 0622 	bic.w	r6, r6, #34	; 0x22
 8001720:	f024 0403 	bic.w	r4, r4, #3
 8001724:	0436      	lsls	r6, r6, #16
 8001726:	0c36      	lsrs	r6, r6, #16
 8001728:	f025 0507 	bic.w	r5, r5, #7
 800172c:	0424      	lsls	r4, r4, #16
 800172e:	0c24      	lsrs	r4, r4, #16
 8001730:	4332      	orrs	r2, r6
 8001732:	042d      	lsls	r5, r5, #16
 8001734:	f444 7680 	orr.w	r6, r4, #256	; 0x100
 8001738:	0c2d      	lsrs	r5, r5, #16
 800173a:	ea42 1303 	orr.w	r3, r2, r3, lsl #4
 800173e:	f046 0401 	orr.w	r4, r6, #1
 8001742:	4329      	orrs	r1, r5
 8001744:	b29e      	uxth	r6, r3
 8001746:	8101      	strh	r1, [r0, #8]
 8001748:	8304      	strh	r4, [r0, #24]
 800174a:	8406      	strh	r6, [r0, #32]
 800174c:	bc70      	pop	{r4, r5, r6}
 800174e:	4770      	bx	lr

08001750 <TIM_SelectHallSensor>:
 8001750:	8883      	ldrh	r3, [r0, #4]
 8001752:	b929      	cbnz	r1, 8001760 <TIM_SelectHallSensor+0x10>
 8001754:	f023 0180 	bic.w	r1, r3, #128	; 0x80
 8001758:	040a      	lsls	r2, r1, #16
 800175a:	0c13      	lsrs	r3, r2, #16
 800175c:	8083      	strh	r3, [r0, #4]
 800175e:	4770      	bx	lr
 8001760:	b299      	uxth	r1, r3
 8001762:	f041 0280 	orr.w	r2, r1, #128	; 0x80
 8001766:	8082      	strh	r2, [r0, #4]
 8001768:	4770      	bx	lr
 800176a:	bf00      	nop

0800176c <TIM_RemapConfig>:
 800176c:	f8a0 1050 	strh.w	r1, [r0, #80]	; 0x50
 8001770:	4770      	bx	lr
 8001772:	bf00      	nop

08001774 <SystemInit>:
 8001774:	f44f 426d 	mov.w	r2, #60672	; 0xed00
 8001778:	f2ce 0200 	movt	r2, #57344	; 0xe000
 800177c:	f44f 5360 	mov.w	r3, #14336	; 0x3800
 8001780:	f8d2 1088 	ldr.w	r1, [r2, #136]	; 0x88
 8001784:	f2c4 0302 	movt	r3, #16386	; 0x4002
 8001788:	f441 0070 	orr.w	r0, r1, #15728640	; 0xf00000
 800178c:	f8c2 0088 	str.w	r0, [r2, #136]	; 0x88
 8001790:	6819      	ldr	r1, [r3, #0]
 8001792:	2200      	movs	r2, #0
 8001794:	f041 0001 	orr.w	r0, r1, #1
 8001798:	6018      	str	r0, [r3, #0]
 800179a:	609a      	str	r2, [r3, #8]
 800179c:	6818      	ldr	r0, [r3, #0]
 800179e:	f243 0110 	movw	r1, #12304	; 0x3010
 80017a2:	f020 7084 	bic.w	r0, r0, #17301504	; 0x1080000
 80017a6:	f420 3080 	bic.w	r0, r0, #65536	; 0x10000
 80017aa:	f2c2 4100 	movt	r1, #9216	; 0x2400
 80017ae:	6018      	str	r0, [r3, #0]
 80017b0:	6059      	str	r1, [r3, #4]
 80017b2:	6819      	ldr	r1, [r3, #0]
 80017b4:	b082      	sub	sp, #8
 80017b6:	f421 2080 	bic.w	r0, r1, #262144	; 0x40000
 80017ba:	6018      	str	r0, [r3, #0]
 80017bc:	60da      	str	r2, [r3, #12]
 80017be:	9200      	str	r2, [sp, #0]
 80017c0:	9201      	str	r2, [sp, #4]
 80017c2:	681a      	ldr	r2, [r3, #0]
 80017c4:	f442 3180 	orr.w	r1, r2, #65536	; 0x10000
 80017c8:	6019      	str	r1, [r3, #0]
 80017ca:	4618      	mov	r0, r3
 80017cc:	e003      	b.n	80017d6 <SystemInit+0x62>
 80017ce:	9900      	ldr	r1, [sp, #0]
 80017d0:	f5b1 6fa0 	cmp.w	r1, #1280	; 0x500
 80017d4:	d009      	beq.n	80017ea <SystemInit+0x76>
 80017d6:	6803      	ldr	r3, [r0, #0]
 80017d8:	f403 3200 	and.w	r2, r3, #131072	; 0x20000
 80017dc:	9201      	str	r2, [sp, #4]
 80017de:	9900      	ldr	r1, [sp, #0]
 80017e0:	1c4b      	adds	r3, r1, #1
 80017e2:	9300      	str	r3, [sp, #0]
 80017e4:	9a01      	ldr	r2, [sp, #4]
 80017e6:	2a00      	cmp	r2, #0
 80017e8:	d0f1      	beq.n	80017ce <SystemInit+0x5a>
 80017ea:	f44f 5060 	mov.w	r0, #14336	; 0x3800
 80017ee:	f2c4 0002 	movt	r0, #16386	; 0x4002
 80017f2:	6803      	ldr	r3, [r0, #0]
 80017f4:	f413 3200 	ands.w	r2, r3, #131072	; 0x20000
 80017f8:	d00d      	beq.n	8001816 <SystemInit+0xa2>
 80017fa:	2101      	movs	r1, #1
 80017fc:	9101      	str	r1, [sp, #4]
 80017fe:	9801      	ldr	r0, [sp, #4]
 8001800:	2801      	cmp	r0, #1
 8001802:	d00c      	beq.n	800181e <SystemInit+0xaa>
 8001804:	f44f 436d 	mov.w	r3, #60672	; 0xed00
 8001808:	f2ce 0300 	movt	r3, #57344	; 0xe000
 800180c:	f04f 6100 	mov.w	r1, #134217728	; 0x8000000
 8001810:	6099      	str	r1, [r3, #8]
 8001812:	b002      	add	sp, #8
 8001814:	4770      	bx	lr
 8001816:	9201      	str	r2, [sp, #4]
 8001818:	9801      	ldr	r0, [sp, #4]
 800181a:	2801      	cmp	r0, #1
 800181c:	d1f2      	bne.n	8001804 <SystemInit+0x90>
 800181e:	f44f 5360 	mov.w	r3, #14336	; 0x3800
 8001822:	f2c4 0302 	movt	r3, #16386	; 0x4002
 8001826:	f44f 42e0 	mov.w	r2, #28672	; 0x7000
 800182a:	6c19      	ldr	r1, [r3, #64]	; 0x40
 800182c:	f2c4 0200 	movt	r2, #16384	; 0x4000
 8001830:	f041 5080 	orr.w	r0, r1, #268435456	; 0x10000000
 8001834:	6418      	str	r0, [r3, #64]	; 0x40
 8001836:	6811      	ldr	r1, [r2, #0]
 8001838:	f441 4080 	orr.w	r0, r1, #16384	; 0x4000
 800183c:	6010      	str	r0, [r2, #0]
 800183e:	689a      	ldr	r2, [r3, #8]
 8001840:	609a      	str	r2, [r3, #8]
 8001842:	6899      	ldr	r1, [r3, #8]
 8001844:	f441 4000 	orr.w	r0, r1, #32768	; 0x8000
 8001848:	6098      	str	r0, [r3, #8]
 800184a:	6899      	ldr	r1, [r3, #8]
 800184c:	f245 4208 	movw	r2, #21512	; 0x5408
 8001850:	f441 50a0 	orr.w	r0, r1, #5120	; 0x1400
 8001854:	f2c0 7240 	movt	r2, #1856	; 0x740
 8001858:	6098      	str	r0, [r3, #8]
 800185a:	605a      	str	r2, [r3, #4]
 800185c:	6819      	ldr	r1, [r3, #0]
 800185e:	f041 7280 	orr.w	r2, r1, #16777216	; 0x1000000
 8001862:	601a      	str	r2, [r3, #0]
 8001864:	4618      	mov	r0, r3
 8001866:	6801      	ldr	r1, [r0, #0]
 8001868:	f44f 5360 	mov.w	r3, #14336	; 0x3800
 800186c:	018a      	lsls	r2, r1, #6
 800186e:	f2c4 0302 	movt	r3, #16386	; 0x4002
 8001872:	d5f8      	bpl.n	8001866 <SystemInit+0xf2>
 8001874:	f44f 5270 	mov.w	r2, #15360	; 0x3c00
 8001878:	f2c4 0202 	movt	r2, #16386	; 0x4002
 800187c:	f240 6005 	movw	r0, #1541	; 0x605
 8001880:	6010      	str	r0, [r2, #0]
 8001882:	6899      	ldr	r1, [r3, #8]
 8001884:	f021 0203 	bic.w	r2, r1, #3
 8001888:	609a      	str	r2, [r3, #8]
 800188a:	6898      	ldr	r0, [r3, #8]
 800188c:	f040 0102 	orr.w	r1, r0, #2
 8001890:	6099      	str	r1, [r3, #8]
 8001892:	689a      	ldr	r2, [r3, #8]
 8001894:	f002 000c 	and.w	r0, r2, #12
 8001898:	2808      	cmp	r0, #8
 800189a:	d1fa      	bne.n	8001892 <SystemInit+0x11e>
 800189c:	e7b2      	b.n	8001804 <SystemInit+0x90>
 800189e:	bf00      	nop

080018a0 <SystemCoreClockUpdate>:
 80018a0:	f44f 5360 	mov.w	r3, #14336	; 0x3800
 80018a4:	f2c4 0302 	movt	r3, #16386	; 0x4002
 80018a8:	689a      	ldr	r2, [r3, #8]
 80018aa:	f002 000c 	and.w	r0, r2, #12
 80018ae:	2804      	cmp	r0, #4
 80018b0:	d012      	beq.n	80018d8 <SystemCoreClockUpdate+0x38>
 80018b2:	2808      	cmp	r0, #8
 80018b4:	d015      	beq.n	80018e2 <SystemCoreClockUpdate+0x42>
 80018b6:	f44f 5110 	mov.w	r1, #9216	; 0x2400
 80018ba:	f2c0 01f4 	movt	r1, #244	; 0xf4
 80018be:	f44f 5060 	mov.w	r0, #14336	; 0x3800
 80018c2:	f2c4 0002 	movt	r0, #16386	; 0x4002
 80018c6:	4b18      	ldr	r3, [pc, #96]	; (8001928 <SystemCoreClockUpdate+0x88>)
 80018c8:	6882      	ldr	r2, [r0, #8]
 80018ca:	f3c2 1003 	ubfx	r0, r2, #4, #4
 80018ce:	5c1a      	ldrb	r2, [r3, r0]
 80018d0:	fa21 f102 	lsr.w	r1, r1, r2
 80018d4:	6119      	str	r1, [r3, #16]
 80018d6:	4770      	bx	lr
 80018d8:	f44f 5190 	mov.w	r1, #4608	; 0x1200
 80018dc:	f2c0 017a 	movt	r1, #122	; 0x7a
 80018e0:	e7ed      	b.n	80018be <SystemCoreClockUpdate+0x1e>
 80018e2:	6858      	ldr	r0, [r3, #4]
 80018e4:	685a      	ldr	r2, [r3, #4]
 80018e6:	f410 0f80 	tst.w	r0, #4194304	; 0x400000
 80018ea:	6858      	ldr	r0, [r3, #4]
 80018ec:	f002 013f 	and.w	r1, r2, #63	; 0x3f
 80018f0:	bf14      	ite	ne
 80018f2:	f44f 5390 	movne.w	r3, #4608	; 0x1200
 80018f6:	f44f 5310 	moveq.w	r3, #9216	; 0x2400
 80018fa:	f3c0 1288 	ubfx	r2, r0, #6, #9
 80018fe:	f44f 5060 	mov.w	r0, #14336	; 0x3800
 8001902:	bf14      	ite	ne
 8001904:	f2c0 037a 	movtne	r3, #122	; 0x7a
 8001908:	f2c0 03f4 	movteq	r3, #244	; 0xf4
 800190c:	f2c4 0002 	movt	r0, #16386	; 0x4002
 8001910:	fbb3 f3f1 	udiv	r3, r3, r1
 8001914:	fb03 f102 	mul.w	r1, r3, r2
 8001918:	6842      	ldr	r2, [r0, #4]
 800191a:	f3c2 4301 	ubfx	r3, r2, #16, #2
 800191e:	1c58      	adds	r0, r3, #1
 8001920:	0042      	lsls	r2, r0, #1
 8001922:	fbb1 f1f2 	udiv	r1, r1, r2
 8001926:	e7ca      	b.n	80018be <SystemCoreClockUpdate+0x1e>
 8001928:	20000010 	.word	0x20000010

0800192c <NMI_Handler>:
 800192c:	4770      	bx	lr
 800192e:	bf00      	nop

08001930 <HardFault_Handler>:
 8001930:	e7fe      	b.n	8001930 <HardFault_Handler>
 8001932:	bf00      	nop

08001934 <MemManage_Handler>:
 8001934:	e7fe      	b.n	8001934 <MemManage_Handler>
 8001936:	bf00      	nop

08001938 <BusFault_Handler>:
 8001938:	e7fe      	b.n	8001938 <BusFault_Handler>
 800193a:	bf00      	nop

0800193c <UsageFault_Handler>:
 800193c:	e7fe      	b.n	800193c <UsageFault_Handler>
 800193e:	bf00      	nop

08001940 <SVC_Handler>:
 8001940:	4770      	bx	lr
 8001942:	bf00      	nop

08001944 <DebugMon_Handler>:
 8001944:	4770      	bx	lr
 8001946:	bf00      	nop

08001948 <PendSV_Handler>:
 8001948:	4770      	bx	lr
 800194a:	bf00      	nop

0800194c <SysTick_Handler>:
 800194c:	f000 b800 	b.w	8001950 <rt_OneStep>

08001950 <rt_OneStep>:
 8001950:	f240 0224 	movw	r2, #36	; 0x24
 8001954:	f2c2 0200 	movt	r2, #8192	; 0x2000
 8001958:	f640 7300 	movw	r3, #3840	; 0xf00
 800195c:	f2c2 0300 	movt	r3, #8192	; 0x2000
 8001960:	2101      	movs	r1, #1
 8001962:	6011      	str	r1, [r2, #0]
 8001964:	6818      	ldr	r0, [r3, #0]
 8001966:	1842      	adds	r2, r0, r1
 8001968:	601a      	str	r2, [r3, #0]
 800196a:	4770      	bx	lr

0800196c <main>:
 800196c:	b570      	push	{r4, r5, r6, lr}
 800196e:	f003 fc1f 	bl	80051b0 <BalanceFuzzy_initialize>
 8001972:	f24e 0310 	movw	r3, #57360	; 0xe010
 8001976:	f44f 416d 	mov.w	r1, #60672	; 0xed00
 800197a:	f2ce 0300 	movt	r3, #57344	; 0xe000
 800197e:	f2ce 0100 	movt	r1, #57344	; 0xe000
 8001982:	f24a 207f 	movw	r0, #41599	; 0xa27f
 8001986:	25f0      	movs	r5, #240	; 0xf0
 8001988:	4c09      	ldr	r4, [pc, #36]	; (80019b0 <main+0x44>)
 800198a:	f2c0 0019 	movt	r0, #25
 800198e:	6058      	str	r0, [r3, #4]
 8001990:	2200      	movs	r2, #0
 8001992:	f881 5023 	strb.w	r5, [r1, #35]	; 0x23
 8001996:	2107      	movs	r1, #7
 8001998:	609a      	str	r2, [r3, #8]
 800199a:	4626      	mov	r6, r4
 800199c:	4615      	mov	r5, r2
 800199e:	6019      	str	r1, [r3, #0]
 80019a0:	6823      	ldr	r3, [r4, #0]
 80019a2:	2b00      	cmp	r3, #0
 80019a4:	d0fc      	beq.n	80019a0 <main+0x34>
 80019a6:	6035      	str	r5, [r6, #0]
 80019a8:	f001 fa4e 	bl	8002e48 <BalanceFuzzy_step>
 80019ac:	e7f8      	b.n	80019a0 <main+0x34>
 80019ae:	bf00      	nop
 80019b0:	20000024 	.word	0x20000024
 80019b4:	00000000 	.word	0x00000000

080019b8 <pulsetoangle1_Outputs_wrapper>:
 80019b8:	6800      	ldr	r0, [r0, #0]
 80019ba:	b510      	push	{r4, lr}
 80019bc:	0040      	lsls	r0, r0, #1
 80019be:	460c      	mov	r4, r1
 80019c0:	f004 fb88 	bl	80060d4 <__aeabi_i2d>
 80019c4:	a306      	add	r3, pc, #24	; (adr r3, 80019e0 <pulsetoangle1_Outputs_wrapper+0x28>)
 80019c6:	e9d3 2300 	ldrd	r2, r3, [r3]
 80019ca:	f004 fbe9 	bl	80061a0 <__aeabi_dmul>
 80019ce:	a306      	add	r3, pc, #24	; (adr r3, 80019e8 <pulsetoangle1_Outputs_wrapper+0x30>)
 80019d0:	e9d3 2300 	ldrd	r2, r3, [r3]
 80019d4:	f004 fa32 	bl	8005e3c <__adddf3>
 80019d8:	e9c4 0100 	strd	r0, r1, [r4]
 80019dc:	bd10      	pop	{r4, pc}
 80019de:	bf00      	nop
 80019e0:	b68b71c3 	.word	0xb68b71c3
 80019e4:	3f49bc65 	.word	0x3f49bc65
 80019e8:	54442d18 	.word	0x54442d18
 80019ec:	400921fb 	.word	0x400921fb

080019f0 <NVIC_PriorityGroupConfig>:
 80019f0:	f44f 436d 	mov.w	r3, #60672	; 0xed00
 80019f4:	f040 60bf 	orr.w	r0, r0, #100139008	; 0x5f80000
 80019f8:	f2ce 0300 	movt	r3, #57344	; 0xe000
 80019fc:	f440 3100 	orr.w	r1, r0, #131072	; 0x20000
 8001a00:	60d9      	str	r1, [r3, #12]
 8001a02:	4770      	bx	lr

08001a04 <NVIC_Init>:
 8001a04:	78c3      	ldrb	r3, [r0, #3]
 8001a06:	b430      	push	{r4, r5}
 8001a08:	b97b      	cbnz	r3, 8001a2a <NVIC_Init+0x26>
 8001a0a:	7802      	ldrb	r2, [r0, #0]
 8001a0c:	f44f 4361 	mov.w	r3, #57600	; 0xe100
 8001a10:	0951      	lsrs	r1, r2, #5
 8001a12:	f2ce 0300 	movt	r3, #57344	; 0xe000
 8001a16:	f002 021f 	and.w	r2, r2, #31
 8001a1a:	3120      	adds	r1, #32
 8001a1c:	2001      	movs	r0, #1
 8001a1e:	fa00 f202 	lsl.w	r2, r0, r2
 8001a22:	f843 2021 	str.w	r2, [r3, r1, lsl #2]
 8001a26:	bc30      	pop	{r4, r5}
 8001a28:	4770      	bx	lr
 8001a2a:	f44f 446d 	mov.w	r4, #60672	; 0xed00
 8001a2e:	f2ce 0400 	movt	r4, #57344	; 0xe000
 8001a32:	7845      	ldrb	r5, [r0, #1]
 8001a34:	68e1      	ldr	r1, [r4, #12]
 8001a36:	7884      	ldrb	r4, [r0, #2]
 8001a38:	7803      	ldrb	r3, [r0, #0]
 8001a3a:	43ca      	mvns	r2, r1
 8001a3c:	f3c2 2202 	ubfx	r2, r2, #8, #3
 8001a40:	f1c2 0104 	rsb	r1, r2, #4
 8001a44:	b2c9      	uxtb	r1, r1
 8001a46:	fa05 f101 	lsl.w	r1, r5, r1
 8001a4a:	250f      	movs	r5, #15
 8001a4c:	fa45 f202 	asr.w	r2, r5, r2
 8001a50:	b2c9      	uxtb	r1, r1
 8001a52:	4022      	ands	r2, r4
 8001a54:	430a      	orrs	r2, r1
 8001a56:	f103 4360 	add.w	r3, r3, #3758096384	; 0xe0000000
 8001a5a:	0111      	lsls	r1, r2, #4
 8001a5c:	f503 4361 	add.w	r3, r3, #57600	; 0xe100
 8001a60:	b2ca      	uxtb	r2, r1
 8001a62:	f883 2300 	strb.w	r2, [r3, #768]	; 0x300
 8001a66:	7800      	ldrb	r0, [r0, #0]
 8001a68:	f44f 4361 	mov.w	r3, #57600	; 0xe100
 8001a6c:	0941      	lsrs	r1, r0, #5
 8001a6e:	f000 021f 	and.w	r2, r0, #31
 8001a72:	f2ce 0300 	movt	r3, #57344	; 0xe000
 8001a76:	2001      	movs	r0, #1
 8001a78:	fa00 f202 	lsl.w	r2, r0, r2
 8001a7c:	f843 2021 	str.w	r2, [r3, r1, lsl #2]
 8001a80:	e7d1      	b.n	8001a26 <NVIC_Init+0x22>
 8001a82:	bf00      	nop

08001a84 <NVIC_SetVectorTable>:
 8001a84:	f021 4160 	bic.w	r1, r1, #3758096384	; 0xe0000000
 8001a88:	f44f 436d 	mov.w	r3, #60672	; 0xed00
 8001a8c:	f021 027f 	bic.w	r2, r1, #127	; 0x7f
 8001a90:	f2ce 0300 	movt	r3, #57344	; 0xe000
 8001a94:	4310      	orrs	r0, r2
 8001a96:	6098      	str	r0, [r3, #8]
 8001a98:	4770      	bx	lr
 8001a9a:	bf00      	nop

08001a9c <NVIC_SystemLPConfig>:
 8001a9c:	f44f 436d 	mov.w	r3, #60672	; 0xed00
 8001aa0:	f2ce 0300 	movt	r3, #57344	; 0xe000
 8001aa4:	691a      	ldr	r2, [r3, #16]
 8001aa6:	b919      	cbnz	r1, 8001ab0 <NVIC_SystemLPConfig+0x14>
 8001aa8:	ea22 0000 	bic.w	r0, r2, r0
 8001aac:	6118      	str	r0, [r3, #16]
 8001aae:	4770      	bx	lr
 8001ab0:	4310      	orrs	r0, r2
 8001ab2:	6118      	str	r0, [r3, #16]
 8001ab4:	4770      	bx	lr
 8001ab6:	bf00      	nop

08001ab8 <SysTick_CLKSourceConfig>:
 8001ab8:	f24e 0310 	movw	r3, #57360	; 0xe010
 8001abc:	f2ce 0300 	movt	r3, #57344	; 0xe000
 8001ac0:	2804      	cmp	r0, #4
 8001ac2:	681a      	ldr	r2, [r3, #0]
 8001ac4:	bf0c      	ite	eq
 8001ac6:	f042 0204 	orreq.w	r2, r2, #4
 8001aca:	f022 0204 	bicne.w	r2, r2, #4
 8001ace:	601a      	str	r2, [r3, #0]
 8001ad0:	4770      	bx	lr
 8001ad2:	bf00      	nop

08001ad4 <DMA_DeInit>:
 8001ad4:	6801      	ldr	r1, [r0, #0]
 8001ad6:	f246 0210 	movw	r2, #24592	; 0x6010
 8001ada:	2300      	movs	r3, #0
 8001adc:	f021 0101 	bic.w	r1, r1, #1
 8001ae0:	f2c4 0202 	movt	r2, #16386	; 0x4002
 8001ae4:	6001      	str	r1, [r0, #0]
 8001ae6:	6003      	str	r3, [r0, #0]
 8001ae8:	6043      	str	r3, [r0, #4]
 8001aea:	6083      	str	r3, [r0, #8]
 8001aec:	60c3      	str	r3, [r0, #12]
 8001aee:	6103      	str	r3, [r0, #16]
 8001af0:	2321      	movs	r3, #33	; 0x21
 8001af2:	4290      	cmp	r0, r2
 8001af4:	6143      	str	r3, [r0, #20]
 8001af6:	d065      	beq.n	8001bc4 <DMA_DeInit+0xf0>
 8001af8:	f246 0228 	movw	r2, #24616	; 0x6028
 8001afc:	f2c4 0202 	movt	r2, #16386	; 0x4002
 8001b00:	4290      	cmp	r0, r2
 8001b02:	d066      	beq.n	8001bd2 <DMA_DeInit+0xfe>
 8001b04:	f246 0140 	movw	r1, #24640	; 0x6040
 8001b08:	f2c4 0102 	movt	r1, #16386	; 0x4002
 8001b0c:	4288      	cmp	r0, r1
 8001b0e:	d068      	beq.n	8001be2 <DMA_DeInit+0x10e>
 8001b10:	f246 0358 	movw	r3, #24664	; 0x6058
 8001b14:	f2c4 0302 	movt	r3, #16386	; 0x4002
 8001b18:	4298      	cmp	r0, r3
 8001b1a:	d06a      	beq.n	8001bf2 <DMA_DeInit+0x11e>
 8001b1c:	f246 0270 	movw	r2, #24688	; 0x6070
 8001b20:	f2c4 0202 	movt	r2, #16386	; 0x4002
 8001b24:	4290      	cmp	r0, r2
 8001b26:	d06c      	beq.n	8001c02 <DMA_DeInit+0x12e>
 8001b28:	f246 0188 	movw	r1, #24712	; 0x6088
 8001b2c:	f2c4 0102 	movt	r1, #16386	; 0x4002
 8001b30:	4288      	cmp	r0, r1
 8001b32:	d06f      	beq.n	8001c14 <DMA_DeInit+0x140>
 8001b34:	f246 03a0 	movw	r3, #24736	; 0x60a0
 8001b38:	f2c4 0302 	movt	r3, #16386	; 0x4002
 8001b3c:	4298      	cmp	r0, r3
 8001b3e:	d038      	beq.n	8001bb2 <DMA_DeInit+0xde>
 8001b40:	f246 02b8 	movw	r2, #24760	; 0x60b8
 8001b44:	f2c4 0202 	movt	r2, #16386	; 0x4002
 8001b48:	4290      	cmp	r0, r2
 8001b4a:	d075      	beq.n	8001c38 <DMA_DeInit+0x164>
 8001b4c:	f246 4110 	movw	r1, #25616	; 0x6410
 8001b50:	f2c4 0102 	movt	r1, #16386	; 0x4002
 8001b54:	4288      	cmp	r0, r1
 8001b56:	d077      	beq.n	8001c48 <DMA_DeInit+0x174>
 8001b58:	f246 4328 	movw	r3, #25640	; 0x6428
 8001b5c:	f2c4 0302 	movt	r3, #16386	; 0x4002
 8001b60:	4298      	cmp	r0, r3
 8001b62:	d078      	beq.n	8001c56 <DMA_DeInit+0x182>
 8001b64:	f246 4240 	movw	r2, #25664	; 0x6440
 8001b68:	f2c4 0202 	movt	r2, #16386	; 0x4002
 8001b6c:	4290      	cmp	r0, r2
 8001b6e:	d07a      	beq.n	8001c66 <DMA_DeInit+0x192>
 8001b70:	f246 4158 	movw	r1, #25688	; 0x6458
 8001b74:	f2c4 0102 	movt	r1, #16386	; 0x4002
 8001b78:	4288      	cmp	r0, r1
 8001b7a:	d07c      	beq.n	8001c76 <DMA_DeInit+0x1a2>
 8001b7c:	f246 4370 	movw	r3, #25712	; 0x6470
 8001b80:	f2c4 0302 	movt	r3, #16386	; 0x4002
 8001b84:	4298      	cmp	r0, r3
 8001b86:	d07e      	beq.n	8001c86 <DMA_DeInit+0x1b2>
 8001b88:	f246 4288 	movw	r2, #25736	; 0x6488
 8001b8c:	f2c4 0202 	movt	r2, #16386	; 0x4002
 8001b90:	4290      	cmp	r0, r2
 8001b92:	f000 8081 	beq.w	8001c98 <DMA_DeInit+0x1c4>
 8001b96:	f246 41a0 	movw	r1, #25760	; 0x64a0
 8001b9a:	f2c4 0102 	movt	r1, #16386	; 0x4002
 8001b9e:	4288      	cmp	r0, r1
 8001ba0:	f000 8084 	beq.w	8001cac <DMA_DeInit+0x1d8>
 8001ba4:	f246 43b8 	movw	r3, #25784	; 0x64b8
 8001ba8:	f2c4 0302 	movt	r3, #16386	; 0x4002
 8001bac:	4298      	cmp	r0, r3
 8001bae:	d03b      	beq.n	8001c28 <DMA_DeInit+0x154>
 8001bb0:	4770      	bx	lr
 8001bb2:	f44f 41c0 	mov.w	r1, #24576	; 0x6000
 8001bb6:	f2c4 0102 	movt	r1, #16386	; 0x4002
 8001bba:	2300      	movs	r3, #0
 8001bbc:	f2c2 033d 	movt	r3, #8253	; 0x203d
 8001bc0:	60cb      	str	r3, [r1, #12]
 8001bc2:	4770      	bx	lr
 8001bc4:	f44f 41c0 	mov.w	r1, #24576	; 0x6000
 8001bc8:	f2c4 0102 	movt	r1, #16386	; 0x4002
 8001bcc:	233d      	movs	r3, #61	; 0x3d
 8001bce:	608b      	str	r3, [r1, #8]
 8001bd0:	4770      	bx	lr
 8001bd2:	f44f 40c0 	mov.w	r0, #24576	; 0x6000
 8001bd6:	f2c4 0002 	movt	r0, #16386	; 0x4002
 8001bda:	f44f 6274 	mov.w	r2, #3904	; 0xf40
 8001bde:	6082      	str	r2, [r0, #8]
 8001be0:	4770      	bx	lr
 8001be2:	f44f 41c0 	mov.w	r1, #24576	; 0x6000
 8001be6:	f2c4 0102 	movt	r1, #16386	; 0x4002
 8001bea:	f44f 1374 	mov.w	r3, #3997696	; 0x3d0000
 8001bee:	608b      	str	r3, [r1, #8]
 8001bf0:	4770      	bx	lr
 8001bf2:	f44f 40c0 	mov.w	r0, #24576	; 0x6000
 8001bf6:	f2c4 0002 	movt	r0, #16386	; 0x4002
 8001bfa:	f04f 6274 	mov.w	r2, #255852544	; 0xf400000
 8001bfe:	6082      	str	r2, [r0, #8]
 8001c00:	4770      	bx	lr
 8001c02:	f44f 41c0 	mov.w	r1, #24576	; 0x6000
 8001c06:	f2c4 0102 	movt	r1, #16386	; 0x4002
 8001c0a:	233d      	movs	r3, #61	; 0x3d
 8001c0c:	f2c2 0300 	movt	r3, #8192	; 0x2000
 8001c10:	60cb      	str	r3, [r1, #12]
 8001c12:	4770      	bx	lr
 8001c14:	f44f 40c0 	mov.w	r0, #24576	; 0x6000
 8001c18:	f2c4 0002 	movt	r0, #16386	; 0x4002
 8001c1c:	f44f 6274 	mov.w	r2, #3904	; 0xf40
 8001c20:	f2c2 0200 	movt	r2, #8192	; 0x2000
 8001c24:	60c2      	str	r2, [r0, #12]
 8001c26:	4770      	bx	lr
 8001c28:	f44f 40c8 	mov.w	r0, #25600	; 0x6400
 8001c2c:	f2c4 0002 	movt	r0, #16386	; 0x4002
 8001c30:	f04f 523d 	mov.w	r2, #792723456	; 0x2f400000
 8001c34:	60c2      	str	r2, [r0, #12]
 8001c36:	e7bb      	b.n	8001bb0 <DMA_DeInit+0xdc>
 8001c38:	f44f 40c0 	mov.w	r0, #24576	; 0x6000
 8001c3c:	f2c4 0002 	movt	r0, #16386	; 0x4002
 8001c40:	f04f 523d 	mov.w	r2, #792723456	; 0x2f400000
 8001c44:	60c2      	str	r2, [r0, #12]
 8001c46:	4770      	bx	lr
 8001c48:	f44f 41c8 	mov.w	r1, #25600	; 0x6400
 8001c4c:	f2c4 0102 	movt	r1, #16386	; 0x4002
 8001c50:	233d      	movs	r3, #61	; 0x3d
 8001c52:	608b      	str	r3, [r1, #8]
 8001c54:	4770      	bx	lr
 8001c56:	f44f 40c8 	mov.w	r0, #25600	; 0x6400
 8001c5a:	f2c4 0002 	movt	r0, #16386	; 0x4002
 8001c5e:	f44f 6274 	mov.w	r2, #3904	; 0xf40
 8001c62:	6082      	str	r2, [r0, #8]
 8001c64:	4770      	bx	lr
 8001c66:	f44f 41c8 	mov.w	r1, #25600	; 0x6400
 8001c6a:	f2c4 0102 	movt	r1, #16386	; 0x4002
 8001c6e:	f44f 1374 	mov.w	r3, #3997696	; 0x3d0000
 8001c72:	608b      	str	r3, [r1, #8]
 8001c74:	4770      	bx	lr
 8001c76:	f44f 40c8 	mov.w	r0, #25600	; 0x6400
 8001c7a:	f2c4 0002 	movt	r0, #16386	; 0x4002
 8001c7e:	f04f 6274 	mov.w	r2, #255852544	; 0xf400000
 8001c82:	6082      	str	r2, [r0, #8]
 8001c84:	4770      	bx	lr
 8001c86:	f44f 41c8 	mov.w	r1, #25600	; 0x6400
 8001c8a:	f2c4 0102 	movt	r1, #16386	; 0x4002
 8001c8e:	233d      	movs	r3, #61	; 0x3d
 8001c90:	f2c2 0300 	movt	r3, #8192	; 0x2000
 8001c94:	60cb      	str	r3, [r1, #12]
 8001c96:	4770      	bx	lr
 8001c98:	f44f 40c8 	mov.w	r0, #25600	; 0x6400
 8001c9c:	f2c4 0002 	movt	r0, #16386	; 0x4002
 8001ca0:	f44f 6274 	mov.w	r2, #3904	; 0xf40
 8001ca4:	f2c2 0200 	movt	r2, #8192	; 0x2000
 8001ca8:	60c2      	str	r2, [r0, #12]
 8001caa:	4770      	bx	lr
 8001cac:	f44f 41c8 	mov.w	r1, #25600	; 0x6400
 8001cb0:	f2c4 0102 	movt	r1, #16386	; 0x4002
 8001cb4:	2300      	movs	r3, #0
 8001cb6:	f2c2 033d 	movt	r3, #8253	; 0x203d
 8001cba:	60cb      	str	r3, [r1, #12]
 8001cbc:	4770      	bx	lr
 8001cbe:	bf00      	nop

08001cc0 <DMA_Init>:
 8001cc0:	e92d 0ff0 	stmdb	sp!, {r4, r5, r6, r7, r8, r9, sl, fp}
 8001cc4:	f8d1 b00c 	ldr.w	fp, [r1, #12]
 8001cc8:	f8d1 a000 	ldr.w	sl, [r1]
 8001ccc:	f8d1 9014 	ldr.w	r9, [r1, #20]
 8001cd0:	f8d1 8018 	ldr.w	r8, [r1, #24]
 8001cd4:	f8d1 c01c 	ldr.w	ip, [r1, #28]
 8001cd8:	6a0f      	ldr	r7, [r1, #32]
 8001cda:	6b4b      	ldr	r3, [r1, #52]	; 0x34
 8001cdc:	6a4e      	ldr	r6, [r1, #36]	; 0x24
 8001cde:	6a8d      	ldr	r5, [r1, #40]	; 0x28
 8001ce0:	6802      	ldr	r2, [r0, #0]
 8001ce2:	6b8c      	ldr	r4, [r1, #56]	; 0x38
 8001ce4:	ea4b 0a0a 	orr.w	sl, fp, sl
 8001ce8:	ea4a 0909 	orr.w	r9, sl, r9
 8001cec:	ea49 0a08 	orr.w	sl, r9, r8
 8001cf0:	b084      	sub	sp, #16
 8001cf2:	ea4a 0a0c 	orr.w	sl, sl, ip
 8001cf6:	ea4a 0707 	orr.w	r7, sl, r7
 8001cfa:	9301      	str	r3, [sp, #4]
 8001cfc:	433e      	orrs	r6, r7
 8001cfe:	4335      	orrs	r5, r6
 8001d00:	9e01      	ldr	r6, [sp, #4]
 8001d02:	9200      	str	r2, [sp, #0]
 8001d04:	4335      	orrs	r5, r6
 8001d06:	f248 0c3f 	movw	ip, #32831	; 0x803f
 8001d0a:	9e00      	ldr	r6, [sp, #0]
 8001d0c:	9402      	str	r4, [sp, #8]
 8001d0e:	f2cf 0c1c 	movt	ip, #61468	; 0xf01c
 8001d12:	ea06 090c 	and.w	r9, r6, ip
 8001d16:	9e02      	ldr	r6, [sp, #8]
 8001d18:	6b0b      	ldr	r3, [r1, #48]	; 0x30
 8001d1a:	6acc      	ldr	r4, [r1, #44]	; 0x2c
 8001d1c:	690a      	ldr	r2, [r1, #16]
 8001d1e:	9303      	str	r3, [sp, #12]
 8001d20:	4335      	orrs	r5, r6
 8001d22:	ea45 0509 	orr.w	r5, r5, r9
 8001d26:	684b      	ldr	r3, [r1, #4]
 8001d28:	6889      	ldr	r1, [r1, #8]
 8001d2a:	6005      	str	r5, [r0, #0]
 8001d2c:	6945      	ldr	r5, [r0, #20]
 8001d2e:	9e03      	ldr	r6, [sp, #12]
 8001d30:	f025 0507 	bic.w	r5, r5, #7
 8001d34:	4334      	orrs	r4, r6
 8001d36:	432c      	orrs	r4, r5
 8001d38:	6144      	str	r4, [r0, #20]
 8001d3a:	6042      	str	r2, [r0, #4]
 8001d3c:	6083      	str	r3, [r0, #8]
 8001d3e:	60c1      	str	r1, [r0, #12]
 8001d40:	b004      	add	sp, #16
 8001d42:	e8bd 0ff0 	ldmia.w	sp!, {r4, r5, r6, r7, r8, r9, sl, fp}
 8001d46:	4770      	bx	lr

08001d48 <DMA_StructInit>:
 8001d48:	2300      	movs	r3, #0
 8001d4a:	6003      	str	r3, [r0, #0]
 8001d4c:	6043      	str	r3, [r0, #4]
 8001d4e:	6083      	str	r3, [r0, #8]
 8001d50:	60c3      	str	r3, [r0, #12]
 8001d52:	6103      	str	r3, [r0, #16]
 8001d54:	6143      	str	r3, [r0, #20]
 8001d56:	6183      	str	r3, [r0, #24]
 8001d58:	61c3      	str	r3, [r0, #28]
 8001d5a:	6203      	str	r3, [r0, #32]
 8001d5c:	6243      	str	r3, [r0, #36]	; 0x24
 8001d5e:	6283      	str	r3, [r0, #40]	; 0x28
 8001d60:	62c3      	str	r3, [r0, #44]	; 0x2c
 8001d62:	6303      	str	r3, [r0, #48]	; 0x30
 8001d64:	6343      	str	r3, [r0, #52]	; 0x34
 8001d66:	6383      	str	r3, [r0, #56]	; 0x38
 8001d68:	4770      	bx	lr
 8001d6a:	bf00      	nop

08001d6c <DMA_Cmd>:
 8001d6c:	6803      	ldr	r3, [r0, #0]
 8001d6e:	b919      	cbnz	r1, 8001d78 <DMA_Cmd+0xc>
 8001d70:	f023 0101 	bic.w	r1, r3, #1
 8001d74:	6001      	str	r1, [r0, #0]
 8001d76:	4770      	bx	lr
 8001d78:	f043 0201 	orr.w	r2, r3, #1
 8001d7c:	6002      	str	r2, [r0, #0]
 8001d7e:	4770      	bx	lr

08001d80 <DMA_PeriphIncOffsetSizeConfig>:
 8001d80:	6803      	ldr	r3, [r0, #0]
 8001d82:	b919      	cbnz	r1, 8001d8c <DMA_PeriphIncOffsetSizeConfig+0xc>
 8001d84:	f423 4100 	bic.w	r1, r3, #32768	; 0x8000
 8001d88:	6001      	str	r1, [r0, #0]
 8001d8a:	4770      	bx	lr
 8001d8c:	f443 4200 	orr.w	r2, r3, #32768	; 0x8000
 8001d90:	6002      	str	r2, [r0, #0]
 8001d92:	4770      	bx	lr

08001d94 <DMA_FlowControllerConfig>:
 8001d94:	6803      	ldr	r3, [r0, #0]
 8001d96:	b919      	cbnz	r1, 8001da0 <DMA_FlowControllerConfig+0xc>
 8001d98:	f023 0120 	bic.w	r1, r3, #32
 8001d9c:	6001      	str	r1, [r0, #0]
 8001d9e:	4770      	bx	lr
 8001da0:	f043 0220 	orr.w	r2, r3, #32
 8001da4:	6002      	str	r2, [r0, #0]
 8001da6:	4770      	bx	lr

08001da8 <DMA_SetCurrDataCounter>:
 8001da8:	6041      	str	r1, [r0, #4]
 8001daa:	4770      	bx	lr

08001dac <DMA_GetCurrDataCounter>:
 8001dac:	6840      	ldr	r0, [r0, #4]
 8001dae:	b280      	uxth	r0, r0
 8001db0:	4770      	bx	lr
 8001db2:	bf00      	nop

08001db4 <DMA_DoubleBufferModeConfig>:
 8001db4:	6803      	ldr	r3, [r0, #0]
 8001db6:	b922      	cbnz	r2, 8001dc2 <DMA_DoubleBufferModeConfig+0xe>
 8001db8:	f423 2200 	bic.w	r2, r3, #524288	; 0x80000
 8001dbc:	6002      	str	r2, [r0, #0]
 8001dbe:	6101      	str	r1, [r0, #16]
 8001dc0:	4770      	bx	lr
 8001dc2:	f443 2300 	orr.w	r3, r3, #524288	; 0x80000
 8001dc6:	6003      	str	r3, [r0, #0]
 8001dc8:	6101      	str	r1, [r0, #16]
 8001dca:	4770      	bx	lr

08001dcc <DMA_DoubleBufferModeCmd>:
 8001dcc:	6803      	ldr	r3, [r0, #0]
 8001dce:	b919      	cbnz	r1, 8001dd8 <DMA_DoubleBufferModeCmd+0xc>
 8001dd0:	f423 2180 	bic.w	r1, r3, #262144	; 0x40000
 8001dd4:	6001      	str	r1, [r0, #0]
 8001dd6:	4770      	bx	lr
 8001dd8:	f443 2280 	orr.w	r2, r3, #262144	; 0x40000
 8001ddc:	6002      	str	r2, [r0, #0]
 8001dde:	4770      	bx	lr

08001de0 <DMA_MemoryTargetConfig>:
 8001de0:	b90a      	cbnz	r2, 8001de6 <DMA_MemoryTargetConfig+0x6>
 8001de2:	60c1      	str	r1, [r0, #12]
 8001de4:	4770      	bx	lr
 8001de6:	6101      	str	r1, [r0, #16]
 8001de8:	4770      	bx	lr
 8001dea:	bf00      	nop

08001dec <DMA_GetCurrentMemoryTarget>:
 8001dec:	6800      	ldr	r0, [r0, #0]
 8001dee:	f3c0 40c0 	ubfx	r0, r0, #19, #1
 8001df2:	4770      	bx	lr

08001df4 <DMA_GetCmdStatus>:
 8001df4:	6800      	ldr	r0, [r0, #0]
 8001df6:	f000 0001 	and.w	r0, r0, #1
 8001dfa:	4770      	bx	lr

08001dfc <DMA_GetFIFOStatus>:
 8001dfc:	6940      	ldr	r0, [r0, #20]
 8001dfe:	f000 0038 	and.w	r0, r0, #56	; 0x38
 8001e02:	4770      	bx	lr

08001e04 <DMA_GetFlagStatus>:
 8001e04:	b410      	push	{r4}
 8001e06:	f44f 42c8 	mov.w	r2, #25600	; 0x6400
 8001e0a:	f246 440f 	movw	r4, #25615	; 0x640f
 8001e0e:	f44f 43c0 	mov.w	r3, #24576	; 0x6000
 8001e12:	f2c4 0202 	movt	r2, #16386	; 0x4002
 8001e16:	f2c4 0402 	movt	r4, #16386	; 0x4002
 8001e1a:	f2c4 0302 	movt	r3, #16386	; 0x4002
 8001e1e:	42a0      	cmp	r0, r4
 8001e20:	bf8c      	ite	hi
 8001e22:	4610      	movhi	r0, r2
 8001e24:	4618      	movls	r0, r3
 8001e26:	008a      	lsls	r2, r1, #2
 8001e28:	bf4c      	ite	mi
 8001e2a:	6842      	ldrmi	r2, [r0, #4]
 8001e2c:	6802      	ldrpl	r2, [r0, #0]
 8001e2e:	f021 21f0 	bic.w	r1, r1, #4026593280	; 0xf000f000
 8001e32:	f021 1382 	bic.w	r3, r1, #8519810	; 0x820082
 8001e36:	4213      	tst	r3, r2
 8001e38:	bf0c      	ite	eq
 8001e3a:	2000      	moveq	r0, #0
 8001e3c:	2001      	movne	r0, #1
 8001e3e:	bc10      	pop	{r4}
 8001e40:	4770      	bx	lr
 8001e42:	bf00      	nop

08001e44 <DMA_ClearFlag>:
 8001e44:	b410      	push	{r4}
 8001e46:	f44f 42c8 	mov.w	r2, #25600	; 0x6400
 8001e4a:	f246 440f 	movw	r4, #25615	; 0x640f
 8001e4e:	f44f 43c0 	mov.w	r3, #24576	; 0x6000
 8001e52:	f2c4 0202 	movt	r2, #16386	; 0x4002
 8001e56:	f2c4 0402 	movt	r4, #16386	; 0x4002
 8001e5a:	f2c4 0302 	movt	r3, #16386	; 0x4002
 8001e5e:	42a0      	cmp	r0, r4
 8001e60:	bf8c      	ite	hi
 8001e62:	4610      	movhi	r0, r2
 8001e64:	4618      	movls	r0, r3
 8001e66:	f011 5f00 	tst.w	r1, #536870912	; 0x20000000
 8001e6a:	f021 21f0 	bic.w	r1, r1, #4026593280	; 0xf000f000
 8001e6e:	f021 1282 	bic.w	r2, r1, #8519810	; 0x820082
 8001e72:	bf14      	ite	ne
 8001e74:	60c2      	strne	r2, [r0, #12]
 8001e76:	6082      	streq	r2, [r0, #8]
 8001e78:	bc10      	pop	{r4}
 8001e7a:	4770      	bx	lr

08001e7c <DMA_ITConfig>:
 8001e7c:	060b      	lsls	r3, r1, #24
 8001e7e:	d50c      	bpl.n	8001e9a <DMA_ITConfig+0x1e>
 8001e80:	6943      	ldr	r3, [r0, #20]
 8001e82:	b1aa      	cbz	r2, 8001eb0 <DMA_ITConfig+0x34>
 8001e84:	f043 0380 	orr.w	r3, r3, #128	; 0x80
 8001e88:	2980      	cmp	r1, #128	; 0x80
 8001e8a:	6143      	str	r3, [r0, #20]
 8001e8c:	d00f      	beq.n	8001eae <DMA_ITConfig+0x32>
 8001e8e:	6802      	ldr	r2, [r0, #0]
 8001e90:	f001 011e 	and.w	r1, r1, #30
 8001e94:	4311      	orrs	r1, r2
 8001e96:	6001      	str	r1, [r0, #0]
 8001e98:	4770      	bx	lr
 8001e9a:	2980      	cmp	r1, #128	; 0x80
 8001e9c:	d007      	beq.n	8001eae <DMA_ITConfig+0x32>
 8001e9e:	2a00      	cmp	r2, #0
 8001ea0:	d1f5      	bne.n	8001e8e <DMA_ITConfig+0x12>
 8001ea2:	6803      	ldr	r3, [r0, #0]
 8001ea4:	f001 011e 	and.w	r1, r1, #30
 8001ea8:	ea23 0201 	bic.w	r2, r3, r1
 8001eac:	6002      	str	r2, [r0, #0]
 8001eae:	4770      	bx	lr
 8001eb0:	f023 0280 	bic.w	r2, r3, #128	; 0x80
 8001eb4:	2980      	cmp	r1, #128	; 0x80
 8001eb6:	6142      	str	r2, [r0, #20]
 8001eb8:	d1f3      	bne.n	8001ea2 <DMA_ITConfig+0x26>
 8001eba:	4770      	bx	lr

08001ebc <DMA_GetITStatus>:
 8001ebc:	b470      	push	{r4, r5, r6}
 8001ebe:	f44f 42c0 	mov.w	r2, #24576	; 0x6000
 8001ec2:	f246 450f 	movw	r5, #25615	; 0x640f
 8001ec6:	f44f 44c8 	mov.w	r4, #25600	; 0x6400
 8001eca:	f021 23f0 	bic.w	r3, r1, #4026593280	; 0xf000f000
 8001ece:	f2c4 0502 	movt	r5, #16386	; 0x4002
 8001ed2:	f2c4 0402 	movt	r4, #16386	; 0x4002
 8001ed6:	f2c4 0202 	movt	r2, #16386	; 0x4002
 8001eda:	f023 16c3 	bic.w	r6, r3, #12779715	; 0xc300c3
 8001ede:	42a8      	cmp	r0, r5
 8001ee0:	bf88      	it	hi
 8001ee2:	4622      	movhi	r2, r4
 8001ee4:	b196      	cbz	r6, 8001f0c <DMA_GetITStatus+0x50>
 8001ee6:	6804      	ldr	r4, [r0, #0]
 8001ee8:	f004 001e 	and.w	r0, r4, #30
 8001eec:	ea00 24d1 	and.w	r4, r0, r1, lsr #11
 8001ef0:	0089      	lsls	r1, r1, #2
 8001ef2:	bf4c      	ite	mi
 8001ef4:	6852      	ldrmi	r2, [r2, #4]
 8001ef6:	6812      	ldrpl	r2, [r2, #0]
 8001ef8:	f023 1182 	bic.w	r1, r3, #8519810	; 0x820082
 8001efc:	ea11 0002 	ands.w	r0, r1, r2
 8001f00:	d002      	beq.n	8001f08 <DMA_GetITStatus+0x4c>
 8001f02:	1c20      	adds	r0, r4, #0
 8001f04:	bf18      	it	ne
 8001f06:	2001      	movne	r0, #1
 8001f08:	bc70      	pop	{r4, r5, r6}
 8001f0a:	4770      	bx	lr
 8001f0c:	6940      	ldr	r0, [r0, #20]
 8001f0e:	f000 0480 	and.w	r4, r0, #128	; 0x80
 8001f12:	e7ed      	b.n	8001ef0 <DMA_GetITStatus+0x34>

08001f14 <DMA_ClearITPendingBit>:
 8001f14:	b410      	push	{r4}
 8001f16:	f44f 42c8 	mov.w	r2, #25600	; 0x6400
 8001f1a:	f246 440f 	movw	r4, #25615	; 0x640f
 8001f1e:	f44f 43c0 	mov.w	r3, #24576	; 0x6000
 8001f22:	f2c4 0202 	movt	r2, #16386	; 0x4002
 8001f26:	f2c4 0402 	movt	r4, #16386	; 0x4002
 8001f2a:	f2c4 0302 	movt	r3, #16386	; 0x4002
 8001f2e:	42a0      	cmp	r0, r4
 8001f30:	bf8c      	ite	hi
 8001f32:	4610      	movhi	r0, r2
 8001f34:	4618      	movls	r0, r3
 8001f36:	f011 5f00 	tst.w	r1, #536870912	; 0x20000000
 8001f3a:	f021 21f0 	bic.w	r1, r1, #4026593280	; 0xf000f000
 8001f3e:	f021 1282 	bic.w	r2, r1, #8519810	; 0x820082
 8001f42:	bf14      	ite	ne
 8001f44:	60c2      	strne	r2, [r0, #12]
 8001f46:	6082      	streq	r2, [r0, #8]
 8001f48:	bc10      	pop	{r4}
 8001f4a:	4770      	bx	lr
 8001f4c:	0000      	movs	r0, r0
	...

08001f50 <rtGetNaN>:
 8001f50:	ed9f 0b01 	vldr	d0, [pc, #4]	; 8001f58 <rtGetNaN+0x8>
 8001f54:	4770      	bx	lr
 8001f56:	bf00      	nop
 8001f58:	00000000 	.word	0x00000000
 8001f5c:	fff80000 	.word	0xfff80000

08001f60 <rtGetNaNF>:
 8001f60:	ed9f 0a01 	vldr	s0, [pc, #4]	; 8001f68 <rtGetNaNF+0x8>
 8001f64:	4770      	bx	lr
 8001f66:	bf00      	nop
 8001f68:	ffc00000 	.word	0xffc00000
 8001f6c:	f3af 8000 	nop.w

08001f70 <enable_customio>:
 8001f70:	b5f0      	push	{r4, r5, r6, r7, lr}
 8001f72:	2010      	movs	r0, #16
 8001f74:	b083      	sub	sp, #12
 8001f76:	2101      	movs	r1, #1
 8001f78:	f7fe fb32 	bl	80005e0 <RCC_AHB1PeriphClockCmd>
 8001f7c:	2010      	movs	r0, #16
 8001f7e:	2101      	movs	r1, #1
 8001f80:	f7fe fb2e 	bl	80005e0 <RCC_AHB1PeriphClockCmd>
 8001f84:	2001      	movs	r0, #1
 8001f86:	4601      	mov	r1, r0
 8001f88:	f7fe fb2a 	bl	80005e0 <RCC_AHB1PeriphClockCmd>
 8001f8c:	f44f 5580 	mov.w	r5, #4096	; 0x1000
 8001f90:	2101      	movs	r1, #1
 8001f92:	2002      	movs	r0, #2
 8001f94:	f7fe fb24 	bl	80005e0 <RCC_AHB1PeriphClockCmd>
 8001f98:	f2c4 0502 	movt	r5, #16386	; 0x4002
 8001f9c:	4668      	mov	r0, sp
 8001f9e:	2401      	movs	r4, #1
 8001fa0:	f003 fdd2 	bl	8005b48 <GPIO_StructInit>
 8001fa4:	2700      	movs	r7, #0
 8001fa6:	2302      	movs	r3, #2
 8001fa8:	f44f 7200 	mov.w	r2, #512	; 0x200
 8001fac:	4628      	mov	r0, r5
 8001fae:	4669      	mov	r1, sp
 8001fb0:	9200      	str	r2, [sp, #0]
 8001fb2:	f2c4 0702 	movt	r7, #16386	; 0x4002
 8001fb6:	f88d 3004 	strb.w	r3, [sp, #4]
 8001fba:	f88d 4007 	strb.w	r4, [sp, #7]
 8001fbe:	f44f 6680 	mov.w	r6, #1024	; 0x400
 8001fc2:	f003 fd19 	bl	80059f8 <GPIO_Init>
 8001fc6:	f44f 6300 	mov.w	r3, #2048	; 0x800
 8001fca:	4628      	mov	r0, r5
 8001fcc:	4669      	mov	r1, sp
 8001fce:	9300      	str	r3, [sp, #0]
 8001fd0:	f2c4 0602 	movt	r6, #16386	; 0x4002
 8001fd4:	f003 fd10 	bl	80059f8 <GPIO_Init>
 8001fd8:	2220      	movs	r2, #32
 8001fda:	4638      	mov	r0, r7
 8001fdc:	4669      	mov	r1, sp
 8001fde:	9200      	str	r2, [sp, #0]
 8001fe0:	f003 fd0a 	bl	80059f8 <GPIO_Init>
 8001fe4:	2308      	movs	r3, #8
 8001fe6:	4669      	mov	r1, sp
 8001fe8:	4630      	mov	r0, r6
 8001fea:	9300      	str	r3, [sp, #0]
 8001fec:	f003 fd04 	bl	80059f8 <GPIO_Init>
 8001ff0:	4628      	mov	r0, r5
 8001ff2:	4622      	mov	r2, r4
 8001ff4:	2109      	movs	r1, #9
 8001ff6:	f003 fde9 	bl	8005bcc <GPIO_PinAFConfig>
 8001ffa:	4628      	mov	r0, r5
 8001ffc:	4622      	mov	r2, r4
 8001ffe:	210b      	movs	r1, #11
 8002000:	f003 fde4 	bl	8005bcc <GPIO_PinAFConfig>
 8002004:	4638      	mov	r0, r7
 8002006:	4622      	mov	r2, r4
 8002008:	2105      	movs	r1, #5
 800200a:	f003 fddf 	bl	8005bcc <GPIO_PinAFConfig>
 800200e:	4622      	mov	r2, r4
 8002010:	4630      	mov	r0, r6
 8002012:	2103      	movs	r1, #3
 8002014:	f003 fdda 	bl	8005bcc <GPIO_PinAFConfig>
 8002018:	4620      	mov	r0, r4
 800201a:	4621      	mov	r1, r4
 800201c:	f7fe fb18 	bl	8000650 <RCC_APB2PeriphClockCmd>
 8002020:	4620      	mov	r0, r4
 8002022:	4621      	mov	r1, r4
 8002024:	f7fe fb06 	bl	8000634 <RCC_APB1PeriphClockCmd>
 8002028:	2300      	movs	r3, #0
 800202a:	f2c4 0301 	movt	r3, #16385	; 0x4001
 800202e:	f04f 4280 	mov.w	r2, #1073741824	; 0x40000000
 8002032:	891d      	ldrh	r5, [r3, #8]
 8002034:	8b19      	ldrh	r1, [r3, #24]
 8002036:	8c18      	ldrh	r0, [r3, #32]
 8002038:	f421 7440 	bic.w	r4, r1, #768	; 0x300
 800203c:	f024 0603 	bic.w	r6, r4, #3
 8002040:	f025 0507 	bic.w	r5, r5, #7
 8002044:	0431      	lsls	r1, r6, #16
 8002046:	0c0e      	lsrs	r6, r1, #16
 8002048:	f020 0022 	bic.w	r0, r0, #34	; 0x22
 800204c:	042c      	lsls	r4, r5, #16
 800204e:	0c24      	lsrs	r4, r4, #16
 8002050:	f446 7180 	orr.w	r1, r6, #256	; 0x100
 8002054:	0406      	lsls	r6, r0, #16
 8002056:	0c30      	lsrs	r0, r6, #16
 8002058:	f64f 75ff 	movw	r5, #65535	; 0xffff
 800205c:	f044 0403 	orr.w	r4, r4, #3
 8002060:	f041 0101 	orr.w	r1, r1, #1
 8002064:	811c      	strh	r4, [r3, #8]
 8002066:	8319      	strh	r1, [r3, #24]
 8002068:	8418      	strh	r0, [r3, #32]
 800206a:	62dd      	str	r5, [r3, #44]	; 0x2c
 800206c:	8916      	ldrh	r6, [r2, #8]
 800206e:	8b14      	ldrh	r4, [r2, #24]
 8002070:	8c10      	ldrh	r0, [r2, #32]
 8002072:	f424 7140 	bic.w	r1, r4, #768	; 0x300
 8002076:	f021 0103 	bic.w	r1, r1, #3
 800207a:	040c      	lsls	r4, r1, #16
 800207c:	f026 0607 	bic.w	r6, r6, #7
 8002080:	0c21      	lsrs	r1, r4, #16
 8002082:	0436      	lsls	r6, r6, #16
 8002084:	f020 0022 	bic.w	r0, r0, #34	; 0x22
 8002088:	0c34      	lsrs	r4, r6, #16
 800208a:	0400      	lsls	r0, r0, #16
 800208c:	f441 7180 	orr.w	r1, r1, #256	; 0x100
 8002090:	f044 0603 	orr.w	r6, r4, #3
 8002094:	f041 0401 	orr.w	r4, r1, #1
 8002098:	0c01      	lsrs	r1, r0, #16
 800209a:	8116      	strh	r6, [r2, #8]
 800209c:	8314      	strh	r4, [r2, #24]
 800209e:	8411      	strh	r1, [r2, #32]
 80020a0:	62d5      	str	r5, [r2, #44]	; 0x2c
 80020a2:	881d      	ldrh	r5, [r3, #0]
 80020a4:	b2a8      	uxth	r0, r5
 80020a6:	f040 0601 	orr.w	r6, r0, #1
 80020aa:	801e      	strh	r6, [r3, #0]
 80020ac:	8814      	ldrh	r4, [r2, #0]
 80020ae:	b2a1      	uxth	r1, r4
 80020b0:	f041 0501 	orr.w	r5, r1, #1
 80020b4:	8015      	strh	r5, [r2, #0]
 80020b6:	b672      	cpsid	i
 80020b8:	f640 7646 	movw	r6, #3910	; 0xf46
 80020bc:	f640 7548 	movw	r5, #3912	; 0xf48
 80020c0:	f640 7440 	movw	r4, #3904	; 0xf40
 80020c4:	f640 704c 	movw	r0, #3916	; 0xf4c
 80020c8:	f2c2 0600 	movt	r6, #8192	; 0x2000
 80020cc:	f2c2 0500 	movt	r5, #8192	; 0x2000
 80020d0:	f2c2 0400 	movt	r4, #8192	; 0x2000
 80020d4:	f2c2 0000 	movt	r0, #8192	; 0x2000
 80020d8:	2100      	movs	r1, #0
 80020da:	8031      	strh	r1, [r6, #0]
 80020dc:	8029      	strh	r1, [r5, #0]
 80020de:	6021      	str	r1, [r4, #0]
 80020e0:	6001      	str	r1, [r0, #0]
 80020e2:	6259      	str	r1, [r3, #36]	; 0x24
 80020e4:	6251      	str	r1, [r2, #36]	; 0x24
 80020e6:	b662      	cpsie	i
 80020e8:	b003      	add	sp, #12
 80020ea:	bdf0      	pop	{r4, r5, r6, r7, pc}

080020ec <disable_customio>:
 80020ec:	4770      	bx	lr
 80020ee:	bf00      	nop

080020f0 <output_customio>:
 80020f0:	2801      	cmp	r0, #1
 80020f2:	e92d 01f0 	stmdb	sp!, {r4, r5, r6, r7, r8}
 80020f6:	d043      	beq.n	8002180 <output_customio+0x90>
 80020f8:	2901      	cmp	r1, #1
 80020fa:	d103      	bne.n	8002104 <output_customio+0x14>
 80020fc:	f04f 4180 	mov.w	r1, #1073741824	; 0x40000000
 8002100:	2500      	movs	r5, #0
 8002102:	624d      	str	r5, [r1, #36]	; 0x24
 8002104:	4d21      	ldr	r5, [pc, #132]	; (800218c <output_customio+0x9c>)
 8002106:	4f22      	ldr	r7, [pc, #136]	; (8002190 <output_customio+0xa0>)
 8002108:	f8b5 c000 	ldrh.w	ip, [r5]
 800210c:	4c21      	ldr	r4, [pc, #132]	; (8002194 <output_customio+0xa4>)
 800210e:	4e22      	ldr	r6, [pc, #136]	; (8002198 <output_customio+0xa8>)
 8002110:	4822      	ldr	r0, [pc, #136]	; (800219c <output_customio+0xac>)
 8002112:	4923      	ldr	r1, [pc, #140]	; (80021a0 <output_customio+0xb0>)
 8002114:	fa1f f88c 	uxth.w	r8, ip
 8002118:	f8a7 8000 	strh.w	r8, [r7]
 800211c:	f8b4 8000 	ldrh.w	r8, [r4]
 8002120:	f04f 0c00 	mov.w	ip, #0
 8002124:	fa1f f888 	uxth.w	r8, r8
 8002128:	f2c4 0c01 	movt	ip, #16385	; 0x4001
 800212c:	f8a6 8000 	strh.w	r8, [r6]
 8002130:	f8dc c024 	ldr.w	ip, [ip, #36]	; 0x24
 8002134:	fa1f fc8c 	uxth.w	ip, ip
 8002138:	f8a5 c000 	strh.w	ip, [r5]
 800213c:	f04f 4c80 	mov.w	ip, #1073741824	; 0x40000000
 8002140:	f8dc c024 	ldr.w	ip, [ip, #36]	; 0x24
 8002144:	fa1f fc8c 	uxth.w	ip, ip
 8002148:	f8a4 c000 	strh.w	ip, [r4]
 800214c:	f8b5 c000 	ldrh.w	ip, [r5]
 8002150:	883d      	ldrh	r5, [r7, #0]
 8002152:	6807      	ldr	r7, [r0, #0]
 8002154:	fa0f fc8c 	sxth.w	ip, ip
 8002158:	b22d      	sxth	r5, r5
 800215a:	ebc5 050c 	rsb	r5, r5, ip
 800215e:	19ef      	adds	r7, r5, r7
 8002160:	6007      	str	r7, [r0, #0]
 8002162:	8827      	ldrh	r7, [r4, #0]
 8002164:	8834      	ldrh	r4, [r6, #0]
 8002166:	680d      	ldr	r5, [r1, #0]
 8002168:	b23e      	sxth	r6, r7
 800216a:	b224      	sxth	r4, r4
 800216c:	1b34      	subs	r4, r6, r4
 800216e:	1964      	adds	r4, r4, r5
 8002170:	600c      	str	r4, [r1, #0]
 8002172:	6800      	ldr	r0, [r0, #0]
 8002174:	6809      	ldr	r1, [r1, #0]
 8002176:	6010      	str	r0, [r2, #0]
 8002178:	6019      	str	r1, [r3, #0]
 800217a:	e8bd 01f0 	ldmia.w	sp!, {r4, r5, r6, r7, r8}
 800217e:	4770      	bx	lr
 8002180:	2000      	movs	r0, #0
 8002182:	f2c4 0001 	movt	r0, #16385	; 0x4001
 8002186:	2400      	movs	r4, #0
 8002188:	6244      	str	r4, [r0, #36]	; 0x24
 800218a:	e7b5      	b.n	80020f8 <output_customio+0x8>
 800218c:	20000f44 	.word	0x20000f44
 8002190:	20000f46 	.word	0x20000f46
 8002194:	20000f4a 	.word	0x20000f4a
 8002198:	20000f48 	.word	0x20000f48
 800219c:	20000f40 	.word	0x20000f40
 80021a0:	20000f4c 	.word	0x20000f4c

080021a4 <TIM_EncoderInterfaceConfig2>:
 80021a4:	b470      	push	{r4, r5, r6}
 80021a6:	8905      	ldrh	r5, [r0, #8]
 80021a8:	8b04      	ldrh	r4, [r0, #24]
 80021aa:	8c06      	ldrh	r6, [r0, #32]
 80021ac:	f424 7440 	bic.w	r4, r4, #768	; 0x300
 80021b0:	f026 0622 	bic.w	r6, r6, #34	; 0x22
 80021b4:	f024 0403 	bic.w	r4, r4, #3
 80021b8:	0436      	lsls	r6, r6, #16
 80021ba:	0c36      	lsrs	r6, r6, #16
 80021bc:	f025 0507 	bic.w	r5, r5, #7
 80021c0:	0424      	lsls	r4, r4, #16
 80021c2:	0c24      	lsrs	r4, r4, #16
 80021c4:	4332      	orrs	r2, r6
 80021c6:	042d      	lsls	r5, r5, #16
 80021c8:	f444 7680 	orr.w	r6, r4, #256	; 0x100
 80021cc:	0c2d      	lsrs	r5, r5, #16
 80021ce:	ea42 1303 	orr.w	r3, r2, r3, lsl #4
 80021d2:	f046 0401 	orr.w	r4, r6, #1
 80021d6:	4329      	orrs	r1, r5
 80021d8:	b29e      	uxth	r6, r3
 80021da:	8101      	strh	r1, [r0, #8]
 80021dc:	8304      	strh	r4, [r0, #24]
 80021de:	8406      	strh	r6, [r0, #32]
 80021e0:	bc70      	pop	{r4, r5, r6}
 80021e2:	4770      	bx	lr

080021e4 <TIM_SetAutoreload2>:
 80021e4:	62c1      	str	r1, [r0, #44]	; 0x2c
 80021e6:	4770      	bx	lr

080021e8 <TIM_Cmd2>:
 80021e8:	8803      	ldrh	r3, [r0, #0]
 80021ea:	b929      	cbnz	r1, 80021f8 <TIM_Cmd2+0x10>
 80021ec:	f023 0101 	bic.w	r1, r3, #1
 80021f0:	040a      	lsls	r2, r1, #16
 80021f2:	0c13      	lsrs	r3, r2, #16
 80021f4:	8003      	strh	r3, [r0, #0]
 80021f6:	4770      	bx	lr
 80021f8:	b299      	uxth	r1, r3
 80021fa:	f041 0201 	orr.w	r2, r1, #1
 80021fe:	8002      	strh	r2, [r0, #0]
 8002200:	4770      	bx	lr
 8002202:	bf00      	nop

08002204 <encodersReset>:
 8002204:	b430      	push	{r4, r5}
 8002206:	b672      	cpsid	i
 8002208:	f640 7446 	movw	r4, #3910	; 0xf46
 800220c:	f640 7048 	movw	r0, #3912	; 0xf48
 8002210:	f2c2 0400 	movt	r4, #8192	; 0x2000
 8002214:	f2c2 0000 	movt	r0, #8192	; 0x2000
 8002218:	2300      	movs	r3, #0
 800221a:	2500      	movs	r5, #0
 800221c:	f640 7140 	movw	r1, #3904	; 0xf40
 8002220:	f640 724c 	movw	r2, #3916	; 0xf4c
 8002224:	8023      	strh	r3, [r4, #0]
 8002226:	f2c2 0100 	movt	r1, #8192	; 0x2000
 800222a:	8003      	strh	r3, [r0, #0]
 800222c:	f2c2 0200 	movt	r2, #8192	; 0x2000
 8002230:	f2c4 0501 	movt	r5, #16385	; 0x4001
 8002234:	f04f 4080 	mov.w	r0, #1073741824	; 0x40000000
 8002238:	600b      	str	r3, [r1, #0]
 800223a:	6013      	str	r3, [r2, #0]
 800223c:	626b      	str	r3, [r5, #36]	; 0x24
 800223e:	6243      	str	r3, [r0, #36]	; 0x24
 8002240:	b662      	cpsie	i
 8002242:	bc30      	pop	{r4, r5}
 8002244:	4770      	bx	lr
 8002246:	bf00      	nop

08002248 <TIM_GetCounter2>:
 8002248:	6a40      	ldr	r0, [r0, #36]	; 0x24
 800224a:	4770      	bx	lr

0800224c <TIM_SetCounter2>:
 800224c:	6241      	str	r1, [r0, #36]	; 0x24
 800224e:	4770      	bx	lr

08002250 <Uart_rxascii_proc>:
 8002250:	e92d 01f0 	stmdb	sp!, {r4, r5, r6, r7, r8}
 8002254:	2900      	cmp	r1, #0
 8002256:	d042      	beq.n	80022de <Uart_rxascii_proc+0x8e>
 8002258:	4603      	mov	r3, r0
 800225a:	6894      	ldr	r4, [r2, #8]
 800225c:	8b95      	ldrh	r5, [r2, #28]
 800225e:	f813 6b01 	ldrb.w	r6, [r3], #1
 8002262:	5d67      	ldrb	r7, [r4, r5]
 8002264:	3901      	subs	r1, #1
 8002266:	42b7      	cmp	r7, r6
 8002268:	f04f 0c00 	mov.w	ip, #0
 800226c:	f001 0801 	and.w	r8, r1, #1
 8002270:	b288      	uxth	r0, r1
 8002272:	d038      	beq.n	80022e6 <Uart_rxascii_proc+0x96>
 8002274:	f8a2 c01c 	strh.w	ip, [r2, #28]
 8002278:	4661      	mov	r1, ip
 800227a:	b380      	cbz	r0, 80022de <Uart_rxascii_proc+0x8e>
 800227c:	f1b8 0f00 	cmp.w	r8, #0
 8002280:	d00a      	beq.n	8002298 <Uart_rxascii_proc+0x48>
 8002282:	f813 5b01 	ldrb.w	r5, [r3], #1
 8002286:	5c66      	ldrb	r6, [r4, r1]
 8002288:	3801      	subs	r0, #1
 800228a:	42ae      	cmp	r6, r5
 800228c:	b280      	uxth	r0, r0
 800228e:	d014      	beq.n	80022ba <Uart_rxascii_proc+0x6a>
 8002290:	f8a2 c01c 	strh.w	ip, [r2, #28]
 8002294:	2100      	movs	r1, #0
 8002296:	b310      	cbz	r0, 80022de <Uart_rxascii_proc+0x8e>
 8002298:	1e47      	subs	r7, r0, #1
 800229a:	5c66      	ldrb	r6, [r4, r1]
 800229c:	f813 5b01 	ldrb.w	r5, [r3], #1
 80022a0:	b2b8      	uxth	r0, r7
 80022a2:	1e47      	subs	r7, r0, #1
 80022a4:	42ae      	cmp	r6, r5
 80022a6:	d013      	beq.n	80022d0 <Uart_rxascii_proc+0x80>
 80022a8:	f8a2 c01c 	strh.w	ip, [r2, #28]
 80022ac:	2100      	movs	r1, #0
 80022ae:	f813 5b01 	ldrb.w	r5, [r3], #1
 80022b2:	5c66      	ldrb	r6, [r4, r1]
 80022b4:	42ae      	cmp	r6, r5
 80022b6:	b2b8      	uxth	r0, r7
 80022b8:	d1ea      	bne.n	8002290 <Uart_rxascii_proc+0x40>
 80022ba:	3101      	adds	r1, #1
 80022bc:	7b15      	ldrb	r5, [r2, #12]
 80022be:	b289      	uxth	r1, r1
 80022c0:	428d      	cmp	r5, r1
 80022c2:	8391      	strh	r1, [r2, #28]
 80022c4:	d8e7      	bhi.n	8002296 <Uart_rxascii_proc+0x46>
 80022c6:	2301      	movs	r3, #1
 80022c8:	2100      	movs	r1, #0
 80022ca:	7793      	strb	r3, [r2, #30]
 80022cc:	8391      	strh	r1, [r2, #28]
 80022ce:	e007      	b.n	80022e0 <Uart_rxascii_proc+0x90>
 80022d0:	3101      	adds	r1, #1
 80022d2:	7b15      	ldrb	r5, [r2, #12]
 80022d4:	b289      	uxth	r1, r1
 80022d6:	428d      	cmp	r5, r1
 80022d8:	8391      	strh	r1, [r2, #28]
 80022da:	d8e8      	bhi.n	80022ae <Uart_rxascii_proc+0x5e>
 80022dc:	e7f3      	b.n	80022c6 <Uart_rxascii_proc+0x76>
 80022de:	2000      	movs	r0, #0
 80022e0:	e8bd 01f0 	ldmia.w	sp!, {r4, r5, r6, r7, r8}
 80022e4:	4770      	bx	lr
 80022e6:	1c69      	adds	r1, r5, #1
 80022e8:	7b16      	ldrb	r6, [r2, #12]
 80022ea:	b289      	uxth	r1, r1
 80022ec:	428e      	cmp	r6, r1
 80022ee:	8391      	strh	r1, [r2, #28]
 80022f0:	d8c3      	bhi.n	800227a <Uart_rxascii_proc+0x2a>
 80022f2:	e7e8      	b.n	80022c6 <Uart_rxascii_proc+0x76>

080022f4 <Uart_rxpacket_proc>:
 80022f4:	e92d 47f0 	stmdb	sp!, {r4, r5, r6, r7, r8, r9, sl, lr}
 80022f8:	460d      	mov	r5, r1
 80022fa:	4606      	mov	r6, r0
 80022fc:	4614      	mov	r4, r2
 80022fe:	b1e9      	cbz	r1, 800233c <Uart_rxpacket_proc+0x48>
 8002300:	f04f 0a00 	mov.w	sl, #0
 8002304:	f04f 0903 	mov.w	r9, #3
 8002308:	f04f 0802 	mov.w	r8, #2
 800230c:	2701      	movs	r7, #1
 800230e:	3d01      	subs	r5, #1
 8002310:	f816 2b01 	ldrb.w	r2, [r6], #1
 8002314:	7da3      	ldrb	r3, [r4, #22]
 8002316:	b2ad      	uxth	r5, r5
 8002318:	2b03      	cmp	r3, #3
 800231a:	d808      	bhi.n	800232e <Uart_rxpacket_proc+0x3a>
 800231c:	e8df f003 	tbb	[pc, r3]
 8002320:	122b023d 	.word	0x122b023d
 8002324:	8ba0      	ldrh	r0, [r4, #28]
 8002326:	6823      	ldr	r3, [r4, #0]
 8002328:	5c19      	ldrb	r1, [r3, r0]
 800232a:	4291      	cmp	r1, r2
 800232c:	d03c      	beq.n	80023a8 <Uart_rxpacket_proc+0xb4>
 800232e:	f884 a016 	strb.w	sl, [r4, #22]
 8002332:	7fa2      	ldrb	r2, [r4, #30]
 8002334:	2a01      	cmp	r2, #1
 8002336:	d013      	beq.n	8002360 <Uart_rxpacket_proc+0x6c>
 8002338:	2d00      	cmp	r5, #0
 800233a:	d1e8      	bne.n	800230e <Uart_rxpacket_proc+0x1a>
 800233c:	2500      	movs	r5, #0
 800233e:	4628      	mov	r0, r5
 8002340:	e8bd 87f0 	ldmia.w	sp!, {r4, r5, r6, r7, r8, r9, sl, pc}
 8002344:	8ba1      	ldrh	r1, [r4, #28]
 8002346:	68a3      	ldr	r3, [r4, #8]
 8002348:	5c58      	ldrb	r0, [r3, r1]
 800234a:	4290      	cmp	r0, r2
 800234c:	d1ef      	bne.n	800232e <Uart_rxpacket_proc+0x3a>
 800234e:	1c4a      	adds	r2, r1, #1
 8002350:	7b23      	ldrb	r3, [r4, #12]
 8002352:	b291      	uxth	r1, r2
 8002354:	428b      	cmp	r3, r1
 8002356:	83a1      	strh	r1, [r4, #28]
 8002358:	d8eb      	bhi.n	8002332 <Uart_rxpacket_proc+0x3e>
 800235a:	f884 a016 	strb.w	sl, [r4, #22]
 800235e:	77a7      	strb	r7, [r4, #30]
 8002360:	69a3      	ldr	r3, [r4, #24]
 8002362:	2b00      	cmp	r3, #0
 8002364:	d0eb      	beq.n	800233e <Uart_rxpacket_proc+0x4a>
 8002366:	6920      	ldr	r0, [r4, #16]
 8002368:	8aa1      	ldrh	r1, [r4, #20]
 800236a:	4798      	blx	r3
 800236c:	f884 a01e 	strb.w	sl, [r4, #30]
 8002370:	2d00      	cmp	r5, #0
 8002372:	d1cc      	bne.n	800230e <Uart_rxpacket_proc+0x1a>
 8002374:	e7e2      	b.n	800233c <Uart_rxpacket_proc+0x48>
 8002376:	8ba0      	ldrh	r0, [r4, #28]
 8002378:	6923      	ldr	r3, [r4, #16]
 800237a:	541a      	strb	r2, [r3, r0]
 800237c:	8ba1      	ldrh	r1, [r4, #28]
 800237e:	f9b4 2014 	ldrsh.w	r2, [r4, #20]
 8002382:	1c48      	adds	r0, r1, #1
 8002384:	b283      	uxth	r3, r0
 8002386:	4293      	cmp	r3, r2
 8002388:	83a3      	strh	r3, [r4, #28]
 800238a:	dbd2      	blt.n	8002332 <Uart_rxpacket_proc+0x3e>
 800238c:	7b21      	ldrb	r1, [r4, #12]
 800238e:	f8a4 a01c 	strh.w	sl, [r4, #28]
 8002392:	b301      	cbz	r1, 80023d6 <Uart_rxpacket_proc+0xe2>
 8002394:	f884 9016 	strb.w	r9, [r4, #22]
 8002398:	e7cb      	b.n	8002332 <Uart_rxpacket_proc+0x3e>
 800239a:	7923      	ldrb	r3, [r4, #4]
 800239c:	f8a4 a01c 	strh.w	sl, [r4, #28]
 80023a0:	b18b      	cbz	r3, 80023c6 <Uart_rxpacket_proc+0xd2>
 80023a2:	75a7      	strb	r7, [r4, #22]
 80023a4:	2301      	movs	r3, #1
 80023a6:	e7b7      	b.n	8002318 <Uart_rxpacket_proc+0x24>
 80023a8:	1c42      	adds	r2, r0, #1
 80023aa:	7920      	ldrb	r0, [r4, #4]
 80023ac:	b293      	uxth	r3, r2
 80023ae:	4298      	cmp	r0, r3
 80023b0:	83a3      	strh	r3, [r4, #28]
 80023b2:	d8be      	bhi.n	8002332 <Uart_rxpacket_proc+0x3e>
 80023b4:	f9b4 1014 	ldrsh.w	r1, [r4, #20]
 80023b8:	f8a4 a01c 	strh.w	sl, [r4, #28]
 80023bc:	2900      	cmp	r1, #0
 80023be:	dd15      	ble.n	80023ec <Uart_rxpacket_proc+0xf8>
 80023c0:	f884 8016 	strb.w	r8, [r4, #22]
 80023c4:	e7b5      	b.n	8002332 <Uart_rxpacket_proc+0x3e>
 80023c6:	f9b4 1014 	ldrsh.w	r1, [r4, #20]
 80023ca:	2900      	cmp	r1, #0
 80023cc:	dd07      	ble.n	80023de <Uart_rxpacket_proc+0xea>
 80023ce:	f884 8016 	strb.w	r8, [r4, #22]
 80023d2:	2302      	movs	r3, #2
 80023d4:	e7a0      	b.n	8002318 <Uart_rxpacket_proc+0x24>
 80023d6:	2200      	movs	r2, #0
 80023d8:	75a2      	strb	r2, [r4, #22]
 80023da:	77a7      	strb	r7, [r4, #30]
 80023dc:	e7c0      	b.n	8002360 <Uart_rxpacket_proc+0x6c>
 80023de:	7b20      	ldrb	r0, [r4, #12]
 80023e0:	2800      	cmp	r0, #0
 80023e2:	d0a6      	beq.n	8002332 <Uart_rxpacket_proc+0x3e>
 80023e4:	f884 9016 	strb.w	r9, [r4, #22]
 80023e8:	2303      	movs	r3, #3
 80023ea:	e795      	b.n	8002318 <Uart_rxpacket_proc+0x24>
 80023ec:	7b22      	ldrb	r2, [r4, #12]
 80023ee:	2a00      	cmp	r2, #0
 80023f0:	d1d0      	bne.n	8002394 <Uart_rxpacket_proc+0xa0>
 80023f2:	2000      	movs	r0, #0
 80023f4:	75a0      	strb	r0, [r4, #22]
 80023f6:	e79c      	b.n	8002332 <Uart_rxpacket_proc+0x3e>

080023f8 <UARTTxBlockingWrite>:
 80023f8:	b570      	push	{r4, r5, r6, lr}
 80023fa:	4c43      	ldr	r4, [pc, #268]	; (8002508 <UARTTxBlockingWrite+0x110>)
 80023fc:	460d      	mov	r5, r1
 80023fe:	4606      	mov	r6, r0
 8002400:	7823      	ldrb	r3, [r4, #0]
 8002402:	bb69      	cbnz	r1, 8002460 <UARTTxBlockingWrite+0x68>
 8002404:	b35b      	cbz	r3, 800245e <UARTTxBlockingWrite+0x66>
 8002406:	f246 40b8 	movw	r0, #25784	; 0x64b8
 800240a:	f04f 5120 	mov.w	r1, #671088640	; 0x28000000
 800240e:	f2c4 0002 	movt	r0, #16386	; 0x4002
 8002412:	f7ff fcf7 	bl	8001e04 <DMA_GetFlagStatus>
 8002416:	2800      	cmp	r0, #0
 8002418:	d0f5      	beq.n	8002406 <UARTTxBlockingWrite+0xe>
 800241a:	f44f 5080 	mov.w	r0, #4096	; 0x1000
 800241e:	f2c4 0001 	movt	r0, #16385	; 0x4001
 8002422:	2140      	movs	r1, #64	; 0x40
 8002424:	f003 f9ea 	bl	80057fc <USART_GetFlagStatus>
 8002428:	2800      	cmp	r0, #0
 800242a:	d0ec      	beq.n	8002406 <UARTTxBlockingWrite+0xe>
 800242c:	f246 40b8 	movw	r0, #25784	; 0x64b8
 8002430:	f2c4 0002 	movt	r0, #16386	; 0x4002
 8002434:	f04f 5130 	mov.w	r1, #738197504	; 0x2c000000
 8002438:	f7ff fd04 	bl	8001e44 <DMA_ClearFlag>
 800243c:	f246 40b8 	movw	r0, #25784	; 0x64b8
 8002440:	f2c4 0002 	movt	r0, #16386	; 0x4002
 8002444:	2100      	movs	r1, #0
 8002446:	f7ff fc91 	bl	8001d6c <DMA_Cmd>
 800244a:	f44f 5080 	mov.w	r0, #4096	; 0x1000
 800244e:	f2c4 0001 	movt	r0, #16385	; 0x4001
 8002452:	2180      	movs	r1, #128	; 0x80
 8002454:	2200      	movs	r2, #0
 8002456:	f003 f9ab 	bl	80057b0 <USART_DMACmd>
 800245a:	2300      	movs	r3, #0
 800245c:	7023      	strb	r3, [r4, #0]
 800245e:	bd70      	pop	{r4, r5, r6, pc}
 8002460:	b35b      	cbz	r3, 80024ba <UARTTxBlockingWrite+0xc2>
 8002462:	f246 40b8 	movw	r0, #25784	; 0x64b8
 8002466:	f04f 5120 	mov.w	r1, #671088640	; 0x28000000
 800246a:	f2c4 0002 	movt	r0, #16386	; 0x4002
 800246e:	f7ff fcc9 	bl	8001e04 <DMA_GetFlagStatus>
 8002472:	2800      	cmp	r0, #0
 8002474:	d0f5      	beq.n	8002462 <UARTTxBlockingWrite+0x6a>
 8002476:	f44f 5080 	mov.w	r0, #4096	; 0x1000
 800247a:	f2c4 0001 	movt	r0, #16385	; 0x4001
 800247e:	2140      	movs	r1, #64	; 0x40
 8002480:	f003 f9bc 	bl	80057fc <USART_GetFlagStatus>
 8002484:	2800      	cmp	r0, #0
 8002486:	d0ec      	beq.n	8002462 <UARTTxBlockingWrite+0x6a>
 8002488:	f246 40b8 	movw	r0, #25784	; 0x64b8
 800248c:	f2c4 0002 	movt	r0, #16386	; 0x4002
 8002490:	f04f 5130 	mov.w	r1, #738197504	; 0x2c000000
 8002494:	f7ff fcd6 	bl	8001e44 <DMA_ClearFlag>
 8002498:	f246 40b8 	movw	r0, #25784	; 0x64b8
 800249c:	f2c4 0002 	movt	r0, #16386	; 0x4002
 80024a0:	2100      	movs	r1, #0
 80024a2:	f7ff fc63 	bl	8001d6c <DMA_Cmd>
 80024a6:	f44f 5080 	mov.w	r0, #4096	; 0x1000
 80024aa:	f2c4 0001 	movt	r0, #16385	; 0x4001
 80024ae:	2180      	movs	r1, #128	; 0x80
 80024b0:	2200      	movs	r2, #0
 80024b2:	f003 f97d 	bl	80057b0 <USART_DMACmd>
 80024b6:	2000      	movs	r0, #0
 80024b8:	7020      	strb	r0, [r4, #0]
 80024ba:	462a      	mov	r2, r5
 80024bc:	4631      	mov	r1, r6
 80024be:	4813      	ldr	r0, [pc, #76]	; (800250c <UARTTxBlockingWrite+0x114>)
 80024c0:	f004 f928 	bl	8006714 <memcpy>
 80024c4:	4a12      	ldr	r2, [pc, #72]	; (8002510 <UARTTxBlockingWrite+0x118>)
 80024c6:	f246 40b8 	movw	r0, #25784	; 0x64b8
 80024ca:	4611      	mov	r1, r2
 80024cc:	f2c4 0002 	movt	r0, #16386	; 0x4002
 80024d0:	6115      	str	r5, [r2, #16]
 80024d2:	f7ff fbf5 	bl	8001cc0 <DMA_Init>
 80024d6:	f44f 5080 	mov.w	r0, #4096	; 0x1000
 80024da:	2201      	movs	r2, #1
 80024dc:	f2c4 0001 	movt	r0, #16385	; 0x4001
 80024e0:	2180      	movs	r1, #128	; 0x80
 80024e2:	f003 f965 	bl	80057b0 <USART_DMACmd>
 80024e6:	f44f 5080 	mov.w	r0, #4096	; 0x1000
 80024ea:	f2c4 0001 	movt	r0, #16385	; 0x4001
 80024ee:	2140      	movs	r1, #64	; 0x40
 80024f0:	f003 f98a 	bl	8005808 <USART_ClearFlag>
 80024f4:	f246 40b8 	movw	r0, #25784	; 0x64b8
 80024f8:	2101      	movs	r1, #1
 80024fa:	f2c4 0002 	movt	r0, #16386	; 0x4002
 80024fe:	f7ff fc35 	bl	8001d6c <DMA_Cmd>
 8002502:	2101      	movs	r1, #1
 8002504:	7021      	strb	r1, [r4, #0]
 8002506:	e77e      	b.n	8002406 <UARTTxBlockingWrite+0xe>
 8002508:	20000f86 	.word	0x20000f86
 800250c:	20000fc4 	.word	0x20000fc4
 8002510:	20000f88 	.word	0x20000f88

08002514 <enable_UARTTx>:
 8002514:	4770      	bx	lr
 8002516:	bf00      	nop

08002518 <UARTSetup_WaitTx>:
 8002518:	b510      	push	{r4, lr}
 800251a:	4c18      	ldr	r4, [pc, #96]	; (800257c <UARTSetup_WaitTx+0x64>)
 800251c:	7823      	ldrb	r3, [r4, #0]
 800251e:	b35b      	cbz	r3, 8002578 <UARTSetup_WaitTx+0x60>
 8002520:	f246 40b8 	movw	r0, #25784	; 0x64b8
 8002524:	f04f 5120 	mov.w	r1, #671088640	; 0x28000000
 8002528:	f2c4 0002 	movt	r0, #16386	; 0x4002
 800252c:	f7ff fc6a 	bl	8001e04 <DMA_GetFlagStatus>
 8002530:	2800      	cmp	r0, #0
 8002532:	d0f5      	beq.n	8002520 <UARTSetup_WaitTx+0x8>
 8002534:	f44f 5080 	mov.w	r0, #4096	; 0x1000
 8002538:	f2c4 0001 	movt	r0, #16385	; 0x4001
 800253c:	2140      	movs	r1, #64	; 0x40
 800253e:	f003 f95d 	bl	80057fc <USART_GetFlagStatus>
 8002542:	2800      	cmp	r0, #0
 8002544:	d0ec      	beq.n	8002520 <UARTSetup_WaitTx+0x8>
 8002546:	f246 40b8 	movw	r0, #25784	; 0x64b8
 800254a:	f2c4 0002 	movt	r0, #16386	; 0x4002
 800254e:	f04f 5130 	mov.w	r1, #738197504	; 0x2c000000
 8002552:	f7ff fc77 	bl	8001e44 <DMA_ClearFlag>
 8002556:	f246 40b8 	movw	r0, #25784	; 0x64b8
 800255a:	f2c4 0002 	movt	r0, #16386	; 0x4002
 800255e:	2100      	movs	r1, #0
 8002560:	f7ff fc04 	bl	8001d6c <DMA_Cmd>
 8002564:	f44f 5080 	mov.w	r0, #4096	; 0x1000
 8002568:	f2c4 0001 	movt	r0, #16385	; 0x4001
 800256c:	2180      	movs	r1, #128	; 0x80
 800256e:	2200      	movs	r2, #0
 8002570:	f003 f91e 	bl	80057b0 <USART_DMACmd>
 8002574:	2000      	movs	r0, #0
 8002576:	7020      	strb	r0, [r4, #0]
 8002578:	2000      	movs	r0, #0
 800257a:	bd10      	pop	{r4, pc}
 800257c:	20000f86 	.word	0x20000f86

08002580 <UART1_Write>:
 8002580:	b570      	push	{r4, r5, r6, lr}
 8002582:	460c      	mov	r4, r1
 8002584:	4606      	mov	r6, r0
 8002586:	b901      	cbnz	r1, 800258a <UART1_Write+0xa>
 8002588:	bd70      	pop	{r4, r5, r6, pc}
 800258a:	4d2b      	ldr	r5, [pc, #172]	; (8002638 <UART1_Write+0xb8>)
 800258c:	782b      	ldrb	r3, [r5, #0]
 800258e:	b35b      	cbz	r3, 80025e8 <UART1_Write+0x68>
 8002590:	f246 40b8 	movw	r0, #25784	; 0x64b8
 8002594:	f04f 5120 	mov.w	r1, #671088640	; 0x28000000
 8002598:	f2c4 0002 	movt	r0, #16386	; 0x4002
 800259c:	f7ff fc32 	bl	8001e04 <DMA_GetFlagStatus>
 80025a0:	2800      	cmp	r0, #0
 80025a2:	d0f5      	beq.n	8002590 <UART1_Write+0x10>
 80025a4:	f44f 5080 	mov.w	r0, #4096	; 0x1000
 80025a8:	f2c4 0001 	movt	r0, #16385	; 0x4001
 80025ac:	2140      	movs	r1, #64	; 0x40
 80025ae:	f003 f925 	bl	80057fc <USART_GetFlagStatus>
 80025b2:	2800      	cmp	r0, #0
 80025b4:	d0ec      	beq.n	8002590 <UART1_Write+0x10>
 80025b6:	f246 40b8 	movw	r0, #25784	; 0x64b8
 80025ba:	f2c4 0002 	movt	r0, #16386	; 0x4002
 80025be:	f04f 5130 	mov.w	r1, #738197504	; 0x2c000000
 80025c2:	f7ff fc3f 	bl	8001e44 <DMA_ClearFlag>
 80025c6:	f246 40b8 	movw	r0, #25784	; 0x64b8
 80025ca:	f2c4 0002 	movt	r0, #16386	; 0x4002
 80025ce:	2100      	movs	r1, #0
 80025d0:	f7ff fbcc 	bl	8001d6c <DMA_Cmd>
 80025d4:	f44f 5080 	mov.w	r0, #4096	; 0x1000
 80025d8:	f2c4 0001 	movt	r0, #16385	; 0x4001
 80025dc:	2180      	movs	r1, #128	; 0x80
 80025de:	2200      	movs	r2, #0
 80025e0:	f003 f8e6 	bl	80057b0 <USART_DMACmd>
 80025e4:	2000      	movs	r0, #0
 80025e6:	7028      	strb	r0, [r5, #0]
 80025e8:	4622      	mov	r2, r4
 80025ea:	4631      	mov	r1, r6
 80025ec:	4813      	ldr	r0, [pc, #76]	; (800263c <UART1_Write+0xbc>)
 80025ee:	f004 f891 	bl	8006714 <memcpy>
 80025f2:	4a13      	ldr	r2, [pc, #76]	; (8002640 <UART1_Write+0xc0>)
 80025f4:	f246 40b8 	movw	r0, #25784	; 0x64b8
 80025f8:	4611      	mov	r1, r2
 80025fa:	f2c4 0002 	movt	r0, #16386	; 0x4002
 80025fe:	6114      	str	r4, [r2, #16]
 8002600:	f7ff fb5e 	bl	8001cc0 <DMA_Init>
 8002604:	f44f 5080 	mov.w	r0, #4096	; 0x1000
 8002608:	2201      	movs	r2, #1
 800260a:	f2c4 0001 	movt	r0, #16385	; 0x4001
 800260e:	2180      	movs	r1, #128	; 0x80
 8002610:	f003 f8ce 	bl	80057b0 <USART_DMACmd>
 8002614:	f44f 5080 	mov.w	r0, #4096	; 0x1000
 8002618:	f2c4 0001 	movt	r0, #16385	; 0x4001
 800261c:	2140      	movs	r1, #64	; 0x40
 800261e:	f003 f8f3 	bl	8005808 <USART_ClearFlag>
 8002622:	f246 40b8 	movw	r0, #25784	; 0x64b8
 8002626:	2101      	movs	r1, #1
 8002628:	f2c4 0002 	movt	r0, #16386	; 0x4002
 800262c:	f7ff fb9e 	bl	8001d6c <DMA_Cmd>
 8002630:	2101      	movs	r1, #1
 8002632:	7029      	strb	r1, [r5, #0]
 8002634:	bd70      	pop	{r4, r5, r6, pc}
 8002636:	bf00      	nop
 8002638:	20000f86 	.word	0x20000f86
 800263c:	20000fc4 	.word	0x20000fc4
 8002640:	20000f88 	.word	0x20000f88

08002644 <UART1_TxUpdate>:
 8002644:	b538      	push	{r3, r4, r5, lr}
 8002646:	4604      	mov	r4, r0
 8002648:	b900      	cbnz	r0, 800264c <UART1_TxUpdate+0x8>
 800264a:	bd38      	pop	{r3, r4, r5, pc}
 800264c:	4d28      	ldr	r5, [pc, #160]	; (80026f0 <UART1_TxUpdate+0xac>)
 800264e:	782b      	ldrb	r3, [r5, #0]
 8002650:	b35b      	cbz	r3, 80026aa <UART1_TxUpdate+0x66>
 8002652:	f246 40b8 	movw	r0, #25784	; 0x64b8
 8002656:	f04f 5120 	mov.w	r1, #671088640	; 0x28000000
 800265a:	f2c4 0002 	movt	r0, #16386	; 0x4002
 800265e:	f7ff fbd1 	bl	8001e04 <DMA_GetFlagStatus>
 8002662:	2800      	cmp	r0, #0
 8002664:	d0f5      	beq.n	8002652 <UART1_TxUpdate+0xe>
 8002666:	f44f 5080 	mov.w	r0, #4096	; 0x1000
 800266a:	f2c4 0001 	movt	r0, #16385	; 0x4001
 800266e:	2140      	movs	r1, #64	; 0x40
 8002670:	f003 f8c4 	bl	80057fc <USART_GetFlagStatus>
 8002674:	2800      	cmp	r0, #0
 8002676:	d0ec      	beq.n	8002652 <UART1_TxUpdate+0xe>
 8002678:	f246 40b8 	movw	r0, #25784	; 0x64b8
 800267c:	f2c4 0002 	movt	r0, #16386	; 0x4002
 8002680:	f04f 5130 	mov.w	r1, #738197504	; 0x2c000000
 8002684:	f7ff fbde 	bl	8001e44 <DMA_ClearFlag>
 8002688:	f246 40b8 	movw	r0, #25784	; 0x64b8
 800268c:	f2c4 0002 	movt	r0, #16386	; 0x4002
 8002690:	2100      	movs	r1, #0
 8002692:	f7ff fb6b 	bl	8001d6c <DMA_Cmd>
 8002696:	f44f 5080 	mov.w	r0, #4096	; 0x1000
 800269a:	f2c4 0001 	movt	r0, #16385	; 0x4001
 800269e:	2180      	movs	r1, #128	; 0x80
 80026a0:	2200      	movs	r2, #0
 80026a2:	f003 f885 	bl	80057b0 <USART_DMACmd>
 80026a6:	2000      	movs	r0, #0
 80026a8:	7028      	strb	r0, [r5, #0]
 80026aa:	4a12      	ldr	r2, [pc, #72]	; (80026f4 <UART1_TxUpdate+0xb0>)
 80026ac:	f246 40b8 	movw	r0, #25784	; 0x64b8
 80026b0:	4611      	mov	r1, r2
 80026b2:	f2c4 0002 	movt	r0, #16386	; 0x4002
 80026b6:	6114      	str	r4, [r2, #16]
 80026b8:	f7ff fb02 	bl	8001cc0 <DMA_Init>
 80026bc:	f44f 5080 	mov.w	r0, #4096	; 0x1000
 80026c0:	2201      	movs	r2, #1
 80026c2:	f2c4 0001 	movt	r0, #16385	; 0x4001
 80026c6:	2180      	movs	r1, #128	; 0x80
 80026c8:	f003 f872 	bl	80057b0 <USART_DMACmd>
 80026cc:	f44f 5080 	mov.w	r0, #4096	; 0x1000
 80026d0:	f2c4 0001 	movt	r0, #16385	; 0x4001
 80026d4:	2140      	movs	r1, #64	; 0x40
 80026d6:	f003 f897 	bl	8005808 <USART_ClearFlag>
 80026da:	f246 40b8 	movw	r0, #25784	; 0x64b8
 80026de:	2101      	movs	r1, #1
 80026e0:	f2c4 0002 	movt	r0, #16386	; 0x4002
 80026e4:	f7ff fb42 	bl	8001d6c <DMA_Cmd>
 80026e8:	2101      	movs	r1, #1
 80026ea:	7029      	strb	r1, [r5, #0]
 80026ec:	bd38      	pop	{r3, r4, r5, pc}
 80026ee:	bf00      	nop
 80026f0:	20000f86 	.word	0x20000f86
 80026f4:	20000f88 	.word	0x20000f88

080026f8 <UART1_FlushTxBuffer>:
 80026f8:	b510      	push	{r4, lr}
 80026fa:	4c18      	ldr	r4, [pc, #96]	; (800275c <UART1_FlushTxBuffer+0x64>)
 80026fc:	7823      	ldrb	r3, [r4, #0]
 80026fe:	b35b      	cbz	r3, 8002758 <UART1_FlushTxBuffer+0x60>
 8002700:	f246 40b8 	movw	r0, #25784	; 0x64b8
 8002704:	f04f 5120 	mov.w	r1, #671088640	; 0x28000000
 8002708:	f2c4 0002 	movt	r0, #16386	; 0x4002
 800270c:	f7ff fb7a 	bl	8001e04 <DMA_GetFlagStatus>
 8002710:	2800      	cmp	r0, #0
 8002712:	d0f5      	beq.n	8002700 <UART1_FlushTxBuffer+0x8>
 8002714:	f44f 5080 	mov.w	r0, #4096	; 0x1000
 8002718:	f2c4 0001 	movt	r0, #16385	; 0x4001
 800271c:	2140      	movs	r1, #64	; 0x40
 800271e:	f003 f86d 	bl	80057fc <USART_GetFlagStatus>
 8002722:	2800      	cmp	r0, #0
 8002724:	d0ec      	beq.n	8002700 <UART1_FlushTxBuffer+0x8>
 8002726:	f246 40b8 	movw	r0, #25784	; 0x64b8
 800272a:	f2c4 0002 	movt	r0, #16386	; 0x4002
 800272e:	f04f 5130 	mov.w	r1, #738197504	; 0x2c000000
 8002732:	f7ff fb87 	bl	8001e44 <DMA_ClearFlag>
 8002736:	f246 40b8 	movw	r0, #25784	; 0x64b8
 800273a:	f2c4 0002 	movt	r0, #16386	; 0x4002
 800273e:	2100      	movs	r1, #0
 8002740:	f7ff fb14 	bl	8001d6c <DMA_Cmd>
 8002744:	f44f 5080 	mov.w	r0, #4096	; 0x1000
 8002748:	f2c4 0001 	movt	r0, #16385	; 0x4001
 800274c:	2180      	movs	r1, #128	; 0x80
 800274e:	2200      	movs	r2, #0
 8002750:	f003 f82e 	bl	80057b0 <USART_DMACmd>
 8002754:	2000      	movs	r0, #0
 8002756:	7020      	strb	r0, [r4, #0]
 8002758:	bd10      	pop	{r4, pc}
 800275a:	bf00      	nop
 800275c:	20000f86 	.word	0x20000f86

08002760 <enable_UARTSetup>:
 8002760:	e92d 43f0 	stmdb	sp!, {r4, r5, r6, r7, r8, r9, lr}
 8002764:	2002      	movs	r0, #2
 8002766:	b087      	sub	sp, #28
 8002768:	2101      	movs	r1, #1
 800276a:	f7fd ff39 	bl	80005e0 <RCC_AHB1PeriphClockCmd>
 800276e:	f44f 6680 	mov.w	r6, #1024	; 0x400
 8002772:	2010      	movs	r0, #16
 8002774:	2101      	movs	r1, #1
 8002776:	f7fd ff6b 	bl	8000650 <RCC_APB2PeriphClockCmd>
 800277a:	f2c4 0602 	movt	r6, #16386	; 0x4002
 800277e:	f44f 0080 	mov.w	r0, #4194304	; 0x400000
 8002782:	2101      	movs	r1, #1
 8002784:	f7fd ff2c 	bl	80005e0 <RCC_AHB1PeriphClockCmd>
 8002788:	2207      	movs	r2, #7
 800278a:	4630      	mov	r0, r6
 800278c:	2106      	movs	r1, #6
 800278e:	f003 fa1d 	bl	8005bcc <GPIO_PinAFConfig>
 8002792:	a906      	add	r1, sp, #24
 8002794:	f04f 0840 	mov.w	r8, #64	; 0x40
 8002798:	f44f 5580 	mov.w	r5, #4096	; 0x1000
 800279c:	2400      	movs	r4, #0
 800279e:	2701      	movs	r7, #1
 80027a0:	f2c4 0501 	movt	r5, #16385	; 0x4001
 80027a4:	2302      	movs	r3, #2
 80027a6:	f841 8d18 	str.w	r8, [r1, #-24]!
 80027aa:	f04f 0903 	mov.w	r9, #3
 80027ae:	4630      	mov	r0, r6
 80027b0:	4669      	mov	r1, sp
 80027b2:	f88d 3004 	strb.w	r3, [sp, #4]
 80027b6:	f88d 4006 	strb.w	r4, [sp, #6]
 80027ba:	f88d 7007 	strb.w	r7, [sp, #7]
 80027be:	f88d 9005 	strb.w	r9, [sp, #5]
 80027c2:	f003 f919 	bl	80059f8 <GPIO_Init>
 80027c6:	f44f 32e1 	mov.w	r2, #115200	; 0x1c200
 80027ca:	2308      	movs	r3, #8
 80027cc:	4639      	mov	r1, r7
 80027ce:	4628      	mov	r0, r5
 80027d0:	9202      	str	r2, [sp, #8]
 80027d2:	f8ad 3012 	strh.w	r3, [sp, #18]
 80027d6:	f8ad 400c 	strh.w	r4, [sp, #12]
 80027da:	f8ad 400e 	strh.w	r4, [sp, #14]
 80027de:	f8ad 4010 	strh.w	r4, [sp, #16]
 80027e2:	f8ad 4014 	strh.w	r4, [sp, #20]
 80027e6:	f002 ff2b 	bl	8005640 <USART_OverSampling8Cmd>
 80027ea:	4628      	mov	r0, r5
 80027ec:	a902      	add	r1, sp, #8
 80027ee:	f002 fe79 	bl	80054e4 <USART_Init>
 80027f2:	4639      	mov	r1, r7
 80027f4:	4628      	mov	r0, r5
 80027f6:	f002 ff0b 	bl	8005610 <USART_Cmd>
 80027fa:	f640 7388 	movw	r3, #3976	; 0xf88
 80027fe:	f2c2 0300 	movt	r3, #8192	; 0x2000
 8002802:	f241 0104 	movw	r1, #4100	; 0x1004
 8002806:	f2c4 0101 	movt	r1, #16385	; 0x4001
 800280a:	6059      	str	r1, [r3, #4]
 800280c:	f44f 6180 	mov.w	r1, #1024	; 0x400
 8002810:	6199      	str	r1, [r3, #24]
 8002812:	f04f 6100 	mov.w	r1, #134217728	; 0x8000000
 8002816:	6019      	str	r1, [r3, #0]
 8002818:	f640 71c4 	movw	r1, #4036	; 0xfc4
 800281c:	f2c2 0100 	movt	r1, #8192	; 0x2000
 8002820:	f640 7286 	movw	r2, #3974	; 0xf86
 8002824:	f2c2 0200 	movt	r2, #8192	; 0x2000
 8002828:	6099      	str	r1, [r3, #8]
 800282a:	f44f 7100 	mov.w	r1, #512	; 0x200
 800282e:	6119      	str	r1, [r3, #16]
 8002830:	f44f 3100 	mov.w	r1, #131072	; 0x20000
 8002834:	615c      	str	r4, [r3, #20]
 8002836:	61dc      	str	r4, [r3, #28]
 8002838:	621c      	str	r4, [r3, #32]
 800283a:	62dc      	str	r4, [r3, #44]	; 0x2c
 800283c:	f8c3 9030 	str.w	r9, [r3, #48]	; 0x30
 8002840:	635c      	str	r4, [r3, #52]	; 0x34
 8002842:	639c      	str	r4, [r3, #56]	; 0x38
 8002844:	f8c3 800c 	str.w	r8, [r3, #12]
 8002848:	625c      	str	r4, [r3, #36]	; 0x24
 800284a:	6299      	str	r1, [r3, #40]	; 0x28
 800284c:	7014      	strb	r4, [r2, #0]
 800284e:	b007      	add	sp, #28
 8002850:	e8bd 83f0 	ldmia.w	sp!, {r4, r5, r6, r7, r8, r9, pc}

08002854 <SysTimer_Start>:
 8002854:	ee07 1a90 	vmov	s15, r1
 8002858:	ed9f 0a08 	vldr	s0, [pc, #32]	; 800287c <SysTimer_Start+0x28>
 800285c:	eeb8 7a67 	vcvt.f32.u32	s14, s15
 8002860:	f640 7300 	movw	r3, #3840	; 0xf00
 8002864:	ee67 0a00 	vmul.f32	s1, s14, s0
 8002868:	f2c2 0300 	movt	r3, #8192	; 0x2000
 800286c:	eebc 1ae0 	vcvt.u32.f32	s2, s1
 8002870:	6819      	ldr	r1, [r3, #0]
 8002872:	ed80 1a01 	vstr	s2, [r0, #4]
 8002876:	6001      	str	r1, [r0, #0]
 8002878:	4770      	bx	lr
 800287a:	bf00      	nop
 800287c:	3dcccccd 	.word	0x3dcccccd

08002880 <SysTimer_IsTimeout>:
 8002880:	4b08      	ldr	r3, [pc, #32]	; (80028a4 <SysTimer_IsTimeout+0x24>)
 8002882:	6802      	ldr	r2, [r0, #0]
 8002884:	681b      	ldr	r3, [r3, #0]
 8002886:	4293      	cmp	r3, r2
 8002888:	d305      	bcc.n	8002896 <SysTimer_IsTimeout+0x16>
 800288a:	6841      	ldr	r1, [r0, #4]
 800288c:	1a9b      	subs	r3, r3, r2
 800288e:	428b      	cmp	r3, r1
 8002890:	d206      	bcs.n	80028a0 <SysTimer_IsTimeout+0x20>
 8002892:	2000      	movs	r0, #0
 8002894:	4770      	bx	lr
 8002896:	43d2      	mvns	r2, r2
 8002898:	6841      	ldr	r1, [r0, #4]
 800289a:	18d0      	adds	r0, r2, r3
 800289c:	4288      	cmp	r0, r1
 800289e:	d3f8      	bcc.n	8002892 <SysTimer_IsTimeout+0x12>
 80028a0:	2001      	movs	r0, #1
 80028a2:	4770      	bx	lr
 80028a4:	20000f00 	.word	0x20000f00

080028a8 <SysTimer_uS_Start>:
 80028a8:	f24e 0210 	movw	r2, #57360	; 0xe010
 80028ac:	f640 7300 	movw	r3, #3840	; 0xf00
 80028b0:	f2ce 0200 	movt	r2, #57344	; 0xe000
 80028b4:	f2c2 0300 	movt	r3, #8192	; 0x2000
 80028b8:	6892      	ldr	r2, [r2, #8]
 80028ba:	681b      	ldr	r3, [r3, #0]
 80028bc:	6082      	str	r2, [r0, #8]
 80028be:	b410      	push	{r4}
 80028c0:	24a8      	movs	r4, #168	; 0xa8
 80028c2:	fb04 f101 	mul.w	r1, r4, r1
 80028c6:	6043      	str	r3, [r0, #4]
 80028c8:	60c1      	str	r1, [r0, #12]
 80028ca:	bc10      	pop	{r4}
 80028cc:	4770      	bx	lr
 80028ce:	bf00      	nop

080028d0 <SysTimer_uS_IsTimeout>:
 80028d0:	68c3      	ldr	r3, [r0, #12]
 80028d2:	b4f0      	push	{r4, r5, r6, r7}
 80028d4:	2b00      	cmp	r3, #0
 80028d6:	d03f      	beq.n	8002958 <SysTimer_uS_IsTimeout+0x88>
 80028d8:	f24e 0210 	movw	r2, #57360	; 0xe010
 80028dc:	f2ce 0200 	movt	r2, #57344	; 0xe000
 80028e0:	4922      	ldr	r1, [pc, #136]	; (800296c <SysTimer_uS_IsTimeout+0x9c>)
 80028e2:	6897      	ldr	r7, [r2, #8]
 80028e4:	6842      	ldr	r2, [r0, #4]
 80028e6:	680e      	ldr	r6, [r1, #0]
 80028e8:	42b2      	cmp	r2, r6
 80028ea:	d03c      	beq.n	8002966 <SysTimer_uS_IsTimeout+0x96>
 80028ec:	6881      	ldr	r1, [r0, #8]
 80028ee:	428b      	cmp	r3, r1
 80028f0:	d92d      	bls.n	800294e <SysTimer_uS_IsTimeout+0x7e>
 80028f2:	3201      	adds	r2, #1
 80028f4:	1ab5      	subs	r5, r6, r2
 80028f6:	f24a 247f 	movw	r4, #41599	; 0xa27f
 80028fa:	07ed      	lsls	r5, r5, #31
 80028fc:	f2c0 0419 	movt	r4, #25
 8002900:	d510      	bpl.n	8002924 <SysTimer_uS_IsTimeout+0x54>
 8002902:	1a5b      	subs	r3, r3, r1
 8002904:	1c55      	adds	r5, r2, #1
 8002906:	42a3      	cmp	r3, r4
 8002908:	4621      	mov	r1, r4
 800290a:	d927      	bls.n	800295c <SysTimer_uS_IsTimeout+0x8c>
 800290c:	462a      	mov	r2, r5
 800290e:	e009      	b.n	8002924 <SysTimer_uS_IsTimeout+0x54>
 8002910:	42a3      	cmp	r3, r4
 8002912:	f5a3 13cd 	sub.w	r3, r3, #1679360	; 0x19a000
 8002916:	f2a3 237f 	subw	r3, r3, #639	; 0x27f
 800291a:	d91f      	bls.n	800295c <SysTimer_uS_IsTimeout+0x8c>
 800291c:	42a3      	cmp	r3, r4
 800291e:	462a      	mov	r2, r5
 8002920:	d91c      	bls.n	800295c <SysTimer_uS_IsTimeout+0x8c>
 8002922:	1c6a      	adds	r2, r5, #1
 8002924:	1a5b      	subs	r3, r3, r1
 8002926:	42b2      	cmp	r2, r6
 8002928:	f24a 217f 	movw	r1, #41599	; 0xa27f
 800292c:	f102 0501 	add.w	r5, r2, #1
 8002930:	f2c0 0119 	movt	r1, #25
 8002934:	d1ec      	bne.n	8002910 <SysTimer_uS_IsTimeout+0x40>
 8002936:	f24a 217f 	movw	r1, #41599	; 0xa27f
 800293a:	f2c0 0119 	movt	r1, #25
 800293e:	60c3      	str	r3, [r0, #12]
 8002940:	6042      	str	r2, [r0, #4]
 8002942:	6081      	str	r1, [r0, #8]
 8002944:	428f      	cmp	r7, r1
 8002946:	d20c      	bcs.n	8002962 <SysTimer_uS_IsTimeout+0x92>
 8002948:	1bca      	subs	r2, r1, r7
 800294a:	429a      	cmp	r2, r3
 800294c:	d909      	bls.n	8002962 <SysTimer_uS_IsTimeout+0x92>
 800294e:	2100      	movs	r1, #0
 8002950:	60c1      	str	r1, [r0, #12]
 8002952:	2001      	movs	r0, #1
 8002954:	bcf0      	pop	{r4, r5, r6, r7}
 8002956:	4770      	bx	lr
 8002958:	2001      	movs	r0, #1
 800295a:	e7fb      	b.n	8002954 <SysTimer_uS_IsTimeout+0x84>
 800295c:	6042      	str	r2, [r0, #4]
 800295e:	6081      	str	r1, [r0, #8]
 8002960:	e7f5      	b.n	800294e <SysTimer_uS_IsTimeout+0x7e>
 8002962:	2000      	movs	r0, #0
 8002964:	e7f6      	b.n	8002954 <SysTimer_uS_IsTimeout+0x84>
 8002966:	6881      	ldr	r1, [r0, #8]
 8002968:	e7ec      	b.n	8002944 <SysTimer_uS_IsTimeout+0x74>
 800296a:	bf00      	nop
 800296c:	20000f00 	.word	0x20000f00

08002970 <SysTimer_delay_us>:
 8002970:	f24e 0c10 	movw	ip, #57360	; 0xe010
 8002974:	b4f0      	push	{r4, r5, r6, r7}
 8002976:	f2ce 0c00 	movt	ip, #57344	; 0xe000
 800297a:	4f1f      	ldr	r7, [pc, #124]	; (80029f8 <SysTimer_delay_us+0x88>)
 800297c:	f8dc 3008 	ldr.w	r3, [ip, #8]
 8002980:	683a      	ldr	r2, [r7, #0]
 8002982:	f24a 217f 	movw	r1, #41599	; 0xa27f
 8002986:	24a8      	movs	r4, #168	; 0xa8
 8002988:	fb04 f000 	mul.w	r0, r4, r0
 800298c:	f2c0 0119 	movt	r1, #25
 8002990:	b380      	cbz	r0, 80029f4 <SysTimer_delay_us+0x84>
 8002992:	f8dc 6008 	ldr.w	r6, [ip, #8]
 8002996:	683d      	ldr	r5, [r7, #0]
 8002998:	4295      	cmp	r5, r2
 800299a:	d026      	beq.n	80029ea <SysTimer_delay_us+0x7a>
 800299c:	4298      	cmp	r0, r3
 800299e:	d929      	bls.n	80029f4 <SysTimer_delay_us+0x84>
 80029a0:	3201      	adds	r2, #1
 80029a2:	1aac      	subs	r4, r5, r2
 80029a4:	f014 0f01 	tst.w	r4, #1
 80029a8:	d012      	beq.n	80029d0 <SysTimer_delay_us+0x60>
 80029aa:	1ac0      	subs	r0, r0, r3
 80029ac:	3201      	adds	r2, #1
 80029ae:	f24a 237f 	movw	r3, #41599	; 0xa27f
 80029b2:	4288      	cmp	r0, r1
 80029b4:	f2c0 0319 	movt	r3, #25
 80029b8:	d80a      	bhi.n	80029d0 <SysTimer_delay_us+0x60>
 80029ba:	e01b      	b.n	80029f4 <SysTimer_delay_us+0x84>
 80029bc:	4288      	cmp	r0, r1
 80029be:	f5a0 10cd 	sub.w	r0, r0, #1679360	; 0x19a000
 80029c2:	f2a0 207f 	subw	r0, r0, #639	; 0x27f
 80029c6:	f104 0201 	add.w	r2, r4, #1
 80029ca:	d913      	bls.n	80029f4 <SysTimer_delay_us+0x84>
 80029cc:	4288      	cmp	r0, r1
 80029ce:	d911      	bls.n	80029f4 <SysTimer_delay_us+0x84>
 80029d0:	1ac0      	subs	r0, r0, r3
 80029d2:	42aa      	cmp	r2, r5
 80029d4:	f24a 237f 	movw	r3, #41599	; 0xa27f
 80029d8:	f102 0401 	add.w	r4, r2, #1
 80029dc:	f2c0 0319 	movt	r3, #25
 80029e0:	d1ec      	bne.n	80029bc <SysTimer_delay_us+0x4c>
 80029e2:	f24a 237f 	movw	r3, #41599	; 0xa27f
 80029e6:	f2c0 0319 	movt	r3, #25
 80029ea:	429e      	cmp	r6, r3
 80029ec:	d2d0      	bcs.n	8002990 <SysTimer_delay_us+0x20>
 80029ee:	1b9e      	subs	r6, r3, r6
 80029f0:	42b0      	cmp	r0, r6
 80029f2:	d2cd      	bcs.n	8002990 <SysTimer_delay_us+0x20>
 80029f4:	bcf0      	pop	{r4, r5, r6, r7}
 80029f6:	4770      	bx	lr
 80029f8:	20000f00 	.word	0x20000f00

080029fc <enable_EncoderDigitalInput>:
 80029fc:	b500      	push	{lr}
 80029fe:	2001      	movs	r0, #1
 8002a00:	b083      	sub	sp, #12
 8002a02:	4601      	mov	r1, r0
 8002a04:	f7fd fdec 	bl	80005e0 <RCC_AHB1PeriphClockCmd>
 8002a08:	2000      	movs	r0, #0
 8002a0a:	4603      	mov	r3, r0
 8002a0c:	2201      	movs	r2, #1
 8002a0e:	f88d 3004 	strb.w	r3, [sp, #4]
 8002a12:	f88d 3007 	strb.w	r3, [sp, #7]
 8002a16:	f2c4 0002 	movt	r0, #16386	; 0x4002
 8002a1a:	2303      	movs	r3, #3
 8002a1c:	4669      	mov	r1, sp
 8002a1e:	9200      	str	r2, [sp, #0]
 8002a20:	f88d 3005 	strb.w	r3, [sp, #5]
 8002a24:	f002 ffe8 	bl	80059f8 <GPIO_Init>
 8002a28:	b003      	add	sp, #12
 8002a2a:	bd00      	pop	{pc}

08002a2c <enable_EncoderQuadraturEncoder>:
 8002a2c:	f7ff baa0 	b.w	8001f70 <enable_customio>

08002a30 <disable_EncoderQuadraturEncoder>:
 8002a30:	f7ff bb5c 	b.w	80020ec <disable_customio>

08002a34 <enable_BasicPWM>:
 8002a34:	e92d 41f0 	stmdb	sp!, {r4, r5, r6, r7, r8, lr}
 8002a38:	2002      	movs	r0, #2
 8002a3a:	b08a      	sub	sp, #40	; 0x28
 8002a3c:	2101      	movs	r1, #1
 8002a3e:	f7fd fdf9 	bl	8000634 <RCC_APB1PeriphClockCmd>
 8002a42:	2700      	movs	r7, #0
 8002a44:	2001      	movs	r0, #1
 8002a46:	4601      	mov	r1, r0
 8002a48:	f2c4 0702 	movt	r7, #16386	; 0x4002
 8002a4c:	f7fd fdc8 	bl	80005e0 <RCC_AHB1PeriphClockCmd>
 8002a50:	2500      	movs	r5, #0
 8002a52:	2340      	movs	r3, #64	; 0x40
 8002a54:	2601      	movs	r6, #1
 8002a56:	2203      	movs	r2, #3
 8002a58:	f04f 0802 	mov.w	r8, #2
 8002a5c:	4669      	mov	r1, sp
 8002a5e:	4638      	mov	r0, r7
 8002a60:	f44f 6480 	mov.w	r4, #1024	; 0x400
 8002a64:	f2c4 0400 	movt	r4, #16384	; 0x4000
 8002a68:	9300      	str	r3, [sp, #0]
 8002a6a:	f88d 2005 	strb.w	r2, [sp, #5]
 8002a6e:	f88d 8004 	strb.w	r8, [sp, #4]
 8002a72:	f88d 5006 	strb.w	r5, [sp, #6]
 8002a76:	f88d 6007 	strb.w	r6, [sp, #7]
 8002a7a:	f002 ffbd 	bl	80059f8 <GPIO_Init>
 8002a7e:	4638      	mov	r0, r7
 8002a80:	4642      	mov	r2, r8
 8002a82:	2106      	movs	r1, #6
 8002a84:	f003 f8a2 	bl	8005bcc <GPIO_PinAFConfig>
 8002a88:	f241 0267 	movw	r2, #4199	; 0x1067
 8002a8c:	a902      	add	r1, sp, #8
 8002a8e:	4620      	mov	r0, r4
 8002a90:	9203      	str	r2, [sp, #12]
 8002a92:	f8ad 5008 	strh.w	r5, [sp, #8]
 8002a96:	f8ad 5010 	strh.w	r5, [sp, #16]
 8002a9a:	f8ad 500a 	strh.w	r5, [sp, #10]
 8002a9e:	f88d 5012 	strb.w	r5, [sp, #18]
 8002aa2:	f7fe f829 	bl	8000af8 <TIM_TimeBaseInit>
 8002aa6:	a805      	add	r0, sp, #20
 8002aa8:	f7fe fa0c 	bl	8000ec4 <TIM_OCStructInit>
 8002aac:	2360      	movs	r3, #96	; 0x60
 8002aae:	a905      	add	r1, sp, #20
 8002ab0:	4620      	mov	r0, r4
 8002ab2:	f8ad 3014 	strh.w	r3, [sp, #20]
 8002ab6:	f8ad 6016 	strh.w	r6, [sp, #22]
 8002aba:	f8ad 5020 	strh.w	r5, [sp, #32]
 8002abe:	f7fe f8e3 	bl	8000c88 <TIM_OC1Init>
 8002ac2:	4620      	mov	r0, r4
 8002ac4:	2108      	movs	r1, #8
 8002ac6:	f7fe fa5b 	bl	8000f80 <TIM_OC1PreloadConfig>
 8002aca:	4620      	mov	r0, r4
 8002acc:	4631      	mov	r1, r6
 8002ace:	f7fe f8a7 	bl	8000c20 <TIM_ARRPreloadConfig>
 8002ad2:	4620      	mov	r0, r4
 8002ad4:	4631      	mov	r1, r6
 8002ad6:	f7fe f8c9 	bl	8000c6c <TIM_Cmd>
 8002ada:	b00a      	add	sp, #40	; 0x28
 8002adc:	e8bd 81f0 	ldmia.w	sp!, {r4, r5, r6, r7, r8, pc}

08002ae0 <disable_BasicPWM>:
 8002ae0:	f44f 6080 	mov.w	r0, #1024	; 0x400
 8002ae4:	f2c4 0000 	movt	r0, #16384	; 0x4000
 8002ae8:	2100      	movs	r1, #0
 8002aea:	f7fe b8bf 	b.w	8000c6c <TIM_Cmd>
 8002aee:	bf00      	nop

08002af0 <terminate_BasicPWM>:
 8002af0:	f44f 6080 	mov.w	r0, #1024	; 0x400
 8002af4:	f2c4 0000 	movt	r0, #16384	; 0x4000
 8002af8:	2100      	movs	r1, #0
 8002afa:	f7fe b8b7 	b.w	8000c6c <TIM_Cmd>
 8002afe:	bf00      	nop

08002b00 <enable_DigitalOutput>:
 8002b00:	b500      	push	{lr}
 8002b02:	2008      	movs	r0, #8
 8002b04:	b083      	sub	sp, #12
 8002b06:	2101      	movs	r1, #1
 8002b08:	f7fd fd6a 	bl	80005e0 <RCC_AHB1PeriphClockCmd>
 8002b0c:	2201      	movs	r2, #1
 8002b0e:	f44f 5380 	mov.w	r3, #4096	; 0x1000
 8002b12:	f44f 6040 	mov.w	r0, #3072	; 0xc00
 8002b16:	9300      	str	r3, [sp, #0]
 8002b18:	f88d 2004 	strb.w	r2, [sp, #4]
 8002b1c:	2300      	movs	r3, #0
 8002b1e:	2203      	movs	r2, #3
 8002b20:	f2c4 0002 	movt	r0, #16386	; 0x4002
 8002b24:	4669      	mov	r1, sp
 8002b26:	f88d 3006 	strb.w	r3, [sp, #6]
 8002b2a:	f88d 2005 	strb.w	r2, [sp, #5]
 8002b2e:	f002 ff63 	bl	80059f8 <GPIO_Init>
 8002b32:	b003      	add	sp, #12
 8002b34:	bd00      	pop	{pc}
 8002b36:	bf00      	nop

08002b38 <output_EncoderQuadraturEncoder>:
 8002b38:	f7ff bada 	b.w	80020f0 <output_customio>
 8002b3c:	0000      	movs	r0, r0
	...

08002b40 <rt_modd_snf.part.0>:
 8002b40:	e92d 47f0 	stmdb	sp!, {r4, r5, r6, r7, r8, r9, sl, lr}
 8002b44:	4614      	mov	r4, r2
 8002b46:	461d      	mov	r5, r3
 8002b48:	4606      	mov	r6, r0
 8002b4a:	460f      	mov	r7, r1
 8002b4c:	f003 fc52 	bl	80063f4 <__aeabi_ddiv>
 8002b50:	ec45 4b10 	vmov	d0, r4, r5
 8002b54:	4680      	mov	r8, r0
 8002b56:	4689      	mov	r9, r1
 8002b58:	f003 f8e2 	bl	8005d20 <floor>
 8002b5c:	4620      	mov	r0, r4
 8002b5e:	4629      	mov	r1, r5
 8002b60:	ec53 2b10 	vmov	r2, r3, d0
 8002b64:	f003 fd98 	bl	8006698 <__aeabi_dcmple>
 8002b68:	2800      	cmp	r0, #0
 8002b6a:	d155      	bne.n	8002c18 <rt_modd_snf.part.0+0xd8>
 8002b6c:	f029 4600 	bic.w	r6, r9, #2147483648	; 0x80000000
 8002b70:	2300      	movs	r3, #0
 8002b72:	4640      	mov	r0, r8
 8002b74:	4631      	mov	r1, r6
 8002b76:	2200      	movs	r2, #0
 8002b78:	f2c4 3330 	movt	r3, #17200	; 0x4330
 8002b7c:	f003 fd82 	bl	8006684 <__aeabi_dcmplt>
 8002b80:	b348      	cbz	r0, 8002bd6 <rt_modd_snf.part.0+0x96>
 8002b82:	2300      	movs	r3, #0
 8002b84:	4640      	mov	r0, r8
 8002b86:	4649      	mov	r1, r9
 8002b88:	2200      	movs	r2, #0
 8002b8a:	f6c3 73e0 	movt	r3, #16352	; 0x3fe0
 8002b8e:	f003 fd8d 	bl	80066ac <__aeabi_dcmpge>
 8002b92:	2800      	cmp	r0, #0
 8002b94:	d15b      	bne.n	8002c4e <rt_modd_snf.part.0+0x10e>
 8002b96:	2300      	movs	r3, #0
 8002b98:	4640      	mov	r0, r8
 8002b9a:	4649      	mov	r1, r9
 8002b9c:	2200      	movs	r2, #0
 8002b9e:	f6cb 73e0 	movt	r3, #49120	; 0xbfe0
 8002ba2:	f003 fd8d 	bl	80066c0 <__aeabi_dcmpgt>
 8002ba6:	2800      	cmp	r0, #0
 8002ba8:	d14e      	bne.n	8002c48 <rt_modd_snf.part.0+0x108>
 8002baa:	2300      	movs	r3, #0
 8002bac:	4640      	mov	r0, r8
 8002bae:	4649      	mov	r1, r9
 8002bb0:	2200      	movs	r2, #0
 8002bb2:	f6c3 73e0 	movt	r3, #16352	; 0x3fe0
 8002bb6:	f003 f93f 	bl	8005e38 <__aeabi_dsub>
 8002bba:	ec41 0b10 	vmov	d0, r0, r1
 8002bbe:	f003 f81f 	bl	8005c00 <ceil>
 8002bc2:	4640      	mov	r0, r8
 8002bc4:	4649      	mov	r1, r9
 8002bc6:	ec53 2b10 	vmov	r2, r3, d0
 8002bca:	f003 f935 	bl	8005e38 <__aeabi_dsub>
 8002bce:	4682      	mov	sl, r0
 8002bd0:	f021 4700 	bic.w	r7, r1, #2147483648	; 0x80000000
 8002bd4:	e001      	b.n	8002bda <rt_modd_snf.part.0+0x9a>
 8002bd6:	4682      	mov	sl, r0
 8002bd8:	4607      	mov	r7, r0
 8002bda:	2300      	movs	r3, #0
 8002bdc:	2200      	movs	r2, #0
 8002bde:	f6c3 43b0 	movt	r3, #15536	; 0x3cb0
 8002be2:	4640      	mov	r0, r8
 8002be4:	4631      	mov	r1, r6
 8002be6:	f003 fadb 	bl	80061a0 <__aeabi_dmul>
 8002bea:	4652      	mov	r2, sl
 8002bec:	463b      	mov	r3, r7
 8002bee:	f003 fd5d 	bl	80066ac <__aeabi_dcmpge>
 8002bf2:	bb28      	cbnz	r0, 8002c40 <rt_modd_snf.part.0+0x100>
 8002bf4:	4642      	mov	r2, r8
 8002bf6:	464b      	mov	r3, r9
 8002bf8:	ec43 2b10 	vmov	d0, r2, r3
 8002bfc:	f003 f890 	bl	8005d20 <floor>
 8002c00:	4640      	mov	r0, r8
 8002c02:	ec53 2b10 	vmov	r2, r3, d0
 8002c06:	4649      	mov	r1, r9
 8002c08:	f003 f916 	bl	8005e38 <__aeabi_dsub>
 8002c0c:	4622      	mov	r2, r4
 8002c0e:	462b      	mov	r3, r5
 8002c10:	f003 fac6 	bl	80061a0 <__aeabi_dmul>
 8002c14:	e8bd 87f0 	ldmia.w	sp!, {r4, r5, r6, r7, r8, r9, sl, pc}
 8002c18:	4642      	mov	r2, r8
 8002c1a:	464b      	mov	r3, r9
 8002c1c:	ec43 2b10 	vmov	d0, r2, r3
 8002c20:	f003 f87e 	bl	8005d20 <floor>
 8002c24:	4622      	mov	r2, r4
 8002c26:	462b      	mov	r3, r5
 8002c28:	ec51 0b10 	vmov	r0, r1, d0
 8002c2c:	f003 fab8 	bl	80061a0 <__aeabi_dmul>
 8002c30:	4602      	mov	r2, r0
 8002c32:	460b      	mov	r3, r1
 8002c34:	4630      	mov	r0, r6
 8002c36:	4639      	mov	r1, r7
 8002c38:	f003 f8fe 	bl	8005e38 <__aeabi_dsub>
 8002c3c:	e8bd 87f0 	ldmia.w	sp!, {r4, r5, r6, r7, r8, r9, sl, pc}
 8002c40:	2000      	movs	r0, #0
 8002c42:	2100      	movs	r1, #0
 8002c44:	e8bd 87f0 	ldmia.w	sp!, {r4, r5, r6, r7, r8, r9, sl, pc}
 8002c48:	46c2      	mov	sl, r8
 8002c4a:	4637      	mov	r7, r6
 8002c4c:	e7c5      	b.n	8002bda <rt_modd_snf.part.0+0x9a>
 8002c4e:	2300      	movs	r3, #0
 8002c50:	4640      	mov	r0, r8
 8002c52:	4649      	mov	r1, r9
 8002c54:	2200      	movs	r2, #0
 8002c56:	f6c3 73e0 	movt	r3, #16352	; 0x3fe0
 8002c5a:	f003 f8ef 	bl	8005e3c <__adddf3>
 8002c5e:	ec41 0b10 	vmov	d0, r0, r1
 8002c62:	f003 f85d 	bl	8005d20 <floor>
 8002c66:	e7ac      	b.n	8002bc2 <rt_modd_snf.part.0+0x82>

08002c68 <BalanceFuzzy_IfActionSubsystem1>:
 8002c68:	e92d 43f8 	stmdb	sp!, {r3, r4, r5, r6, r7, r8, r9, lr}
 8002c6c:	e9d1 4500 	ldrd	r4, r5, [r1]
 8002c70:	4688      	mov	r8, r1
 8002c72:	4681      	mov	r9, r0
 8002c74:	4622      	mov	r2, r4
 8002c76:	ec51 0b10 	vmov	r0, r1, d0
 8002c7a:	462b      	mov	r3, r5
 8002c7c:	f003 f8dc 	bl	8005e38 <__aeabi_dsub>
 8002c80:	4622      	mov	r2, r4
 8002c82:	4606      	mov	r6, r0
 8002c84:	460f      	mov	r7, r1
 8002c86:	462b      	mov	r3, r5
 8002c88:	e9d8 0102 	ldrd	r0, r1, [r8, #8]
 8002c8c:	f003 f8d4 	bl	8005e38 <__aeabi_dsub>
 8002c90:	4602      	mov	r2, r0
 8002c92:	460b      	mov	r3, r1
 8002c94:	4630      	mov	r0, r6
 8002c96:	4639      	mov	r1, r7
 8002c98:	f003 fbac 	bl	80063f4 <__aeabi_ddiv>
 8002c9c:	e9c9 0100 	strd	r0, r1, [r9]
 8002ca0:	e8bd 83f8 	ldmia.w	sp!, {r3, r4, r5, r6, r7, r8, r9, pc}

08002ca4 <BalanceFuzzy_IfActionSubsystem3>:
 8002ca4:	e92d 43f8 	stmdb	sp!, {r3, r4, r5, r6, r7, r8, r9, lr}
 8002ca8:	e9d1 4502 	ldrd	r4, r5, [r1, #8]
 8002cac:	ec53 2b10 	vmov	r2, r3, d0
 8002cb0:	4689      	mov	r9, r1
 8002cb2:	4680      	mov	r8, r0
 8002cb4:	4629      	mov	r1, r5
 8002cb6:	4620      	mov	r0, r4
 8002cb8:	f003 f8be 	bl	8005e38 <__aeabi_dsub>
 8002cbc:	e9d9 2300 	ldrd	r2, r3, [r9]
 8002cc0:	4606      	mov	r6, r0
 8002cc2:	460f      	mov	r7, r1
 8002cc4:	4620      	mov	r0, r4
 8002cc6:	4629      	mov	r1, r5
 8002cc8:	f003 f8b6 	bl	8005e38 <__aeabi_dsub>
 8002ccc:	460b      	mov	r3, r1
 8002cce:	2100      	movs	r1, #0
 8002cd0:	4602      	mov	r2, r0
 8002cd2:	f6c3 71f0 	movt	r1, #16368	; 0x3ff0
 8002cd6:	2000      	movs	r0, #0
 8002cd8:	f003 fb8c 	bl	80063f4 <__aeabi_ddiv>
 8002cdc:	4602      	mov	r2, r0
 8002cde:	460b      	mov	r3, r1
 8002ce0:	4630      	mov	r0, r6
 8002ce2:	4639      	mov	r1, r7
 8002ce4:	f003 fa5c 	bl	80061a0 <__aeabi_dmul>
 8002ce8:	e9c8 0100 	strd	r0, r1, [r8]
 8002cec:	e8bd 83f8 	ldmia.w	sp!, {r3, r4, r5, r6, r7, r8, r9, pc}

08002cf0 <BalanceFuzzy_IfActionSubsystem2>:
 8002cf0:	e92d 43f8 	stmdb	sp!, {r3, r4, r5, r6, r7, r8, r9, lr}
 8002cf4:	e9d1 4502 	ldrd	r4, r5, [r1, #8]
 8002cf8:	ec53 2b10 	vmov	r2, r3, d0
 8002cfc:	4689      	mov	r9, r1
 8002cfe:	4680      	mov	r8, r0
 8002d00:	4629      	mov	r1, r5
 8002d02:	4620      	mov	r0, r4
 8002d04:	f003 f898 	bl	8005e38 <__aeabi_dsub>
 8002d08:	e9d9 2300 	ldrd	r2, r3, [r9]
 8002d0c:	4606      	mov	r6, r0
 8002d0e:	460f      	mov	r7, r1
 8002d10:	4620      	mov	r0, r4
 8002d12:	4629      	mov	r1, r5
 8002d14:	f003 f890 	bl	8005e38 <__aeabi_dsub>
 8002d18:	460b      	mov	r3, r1
 8002d1a:	2100      	movs	r1, #0
 8002d1c:	4602      	mov	r2, r0
 8002d1e:	f6c3 71f0 	movt	r1, #16368	; 0x3ff0
 8002d22:	2000      	movs	r0, #0
 8002d24:	f003 fb66 	bl	80063f4 <__aeabi_ddiv>
 8002d28:	4602      	mov	r2, r0
 8002d2a:	460b      	mov	r3, r1
 8002d2c:	4630      	mov	r0, r6
 8002d2e:	4639      	mov	r1, r7
 8002d30:	f003 fa36 	bl	80061a0 <__aeabi_dmul>
 8002d34:	e9c8 0100 	strd	r0, r1, [r8]
 8002d38:	e8bd 83f8 	ldmia.w	sp!, {r3, r4, r5, r6, r7, r8, r9, pc}

08002d3c <rt_roundd_snf>:
 8002d3c:	b570      	push	{r4, r5, r6, lr}
 8002d3e:	ee10 4a90 	vmov	r4, s1
 8002d42:	2300      	movs	r3, #0
 8002d44:	ee10 0a10 	vmov	r0, s0
 8002d48:	f024 4100 	bic.w	r1, r4, #2147483648	; 0x80000000
 8002d4c:	2200      	movs	r2, #0
 8002d4e:	f2c4 3330 	movt	r3, #17200	; 0x4330
 8002d52:	ee10 5a10 	vmov	r5, s0
 8002d56:	f003 fc95 	bl	8006684 <__aeabi_dcmplt>
 8002d5a:	b310      	cbz	r0, 8002da2 <rt_roundd_snf+0x66>
 8002d5c:	2300      	movs	r3, #0
 8002d5e:	4621      	mov	r1, r4
 8002d60:	2200      	movs	r2, #0
 8002d62:	f6c3 73e0 	movt	r3, #16352	; 0x3fe0
 8002d66:	4628      	mov	r0, r5
 8002d68:	f003 fca0 	bl	80066ac <__aeabi_dcmpge>
 8002d6c:	4606      	mov	r6, r0
 8002d6e:	4621      	mov	r1, r4
 8002d70:	4628      	mov	r0, r5
 8002d72:	2200      	movs	r2, #0
 8002d74:	2300      	movs	r3, #0
 8002d76:	b9ce      	cbnz	r6, 8002dac <rt_roundd_snf+0x70>
 8002d78:	f6cb 73e0 	movt	r3, #49120	; 0xbfe0
 8002d7c:	f003 fca0 	bl	80066c0 <__aeabi_dcmpgt>
 8002d80:	b968      	cbnz	r0, 8002d9e <rt_roundd_snf+0x62>
 8002d82:	2300      	movs	r3, #0
 8002d84:	4628      	mov	r0, r5
 8002d86:	4621      	mov	r1, r4
 8002d88:	2200      	movs	r2, #0
 8002d8a:	f6c3 73e0 	movt	r3, #16352	; 0x3fe0
 8002d8e:	f003 f853 	bl	8005e38 <__aeabi_dsub>
 8002d92:	ec41 0b10 	vmov	d0, r0, r1
 8002d96:	e8bd 4070 	ldmia.w	sp!, {r4, r5, r6, lr}
 8002d9a:	f002 bf31 	b.w	8005c00 <ceil>
 8002d9e:	4635      	mov	r5, r6
 8002da0:	4634      	mov	r4, r6
 8002da2:	462a      	mov	r2, r5
 8002da4:	4623      	mov	r3, r4
 8002da6:	ec43 2b10 	vmov	d0, r2, r3
 8002daa:	bd70      	pop	{r4, r5, r6, pc}
 8002dac:	f6c3 73e0 	movt	r3, #16352	; 0x3fe0
 8002db0:	f003 f844 	bl	8005e3c <__adddf3>
 8002db4:	ec41 0b10 	vmov	d0, r0, r1
 8002db8:	e8bd 4070 	ldmia.w	sp!, {r4, r5, r6, lr}
 8002dbc:	f002 bfb0 	b.w	8005d20 <floor>

08002dc0 <rt_modd_snf>:
 8002dc0:	b508      	push	{r3, lr}
 8002dc2:	2200      	movs	r2, #0
 8002dc4:	ed2d 8b04 	vpush	{d8-d9}
 8002dc8:	eeb0 8a40 	vmov.f32	s16, s0
 8002dcc:	eef0 8a60 	vmov.f32	s17, s1
 8002dd0:	eeb0 9a41 	vmov.f32	s18, s2
 8002dd4:	eef0 9a61 	vmov.f32	s19, s3
 8002dd8:	2300      	movs	r3, #0
 8002dda:	ec51 0b11 	vmov	r0, r1, d1
 8002dde:	f003 fc47 	bl	8006670 <__aeabi_dcmpeq>
 8002de2:	eeb0 0a48 	vmov.f32	s0, s16
 8002de6:	eef0 0a68 	vmov.f32	s1, s17
 8002dea:	b110      	cbz	r0, 8002df2 <rt_modd_snf+0x32>
 8002dec:	ecbd 8b04 	vpop	{d8-d9}
 8002df0:	bd08      	pop	{r3, pc}
 8002df2:	f002 fb09 	bl	8005408 <rtIsNaN>
 8002df6:	b118      	cbz	r0, 8002e00 <rt_modd_snf+0x40>
 8002df8:	4b12      	ldr	r3, [pc, #72]	; (8002e44 <rt_modd_snf+0x84>)
 8002dfa:	ed93 0b00 	vldr	d0, [r3]
 8002dfe:	e7f5      	b.n	8002dec <rt_modd_snf+0x2c>
 8002e00:	eeb0 0a48 	vmov.f32	s0, s16
 8002e04:	eef0 0a68 	vmov.f32	s1, s17
 8002e08:	f002 fac4 	bl	8005394 <rtIsInf>
 8002e0c:	2800      	cmp	r0, #0
 8002e0e:	d1f3      	bne.n	8002df8 <rt_modd_snf+0x38>
 8002e10:	eeb0 0a49 	vmov.f32	s0, s18
 8002e14:	eef0 0a69 	vmov.f32	s1, s19
 8002e18:	f002 faf6 	bl	8005408 <rtIsNaN>
 8002e1c:	2800      	cmp	r0, #0
 8002e1e:	d1eb      	bne.n	8002df8 <rt_modd_snf+0x38>
 8002e20:	eeb0 0a49 	vmov.f32	s0, s18
 8002e24:	eef0 0a69 	vmov.f32	s1, s19
 8002e28:	f002 fab4 	bl	8005394 <rtIsInf>
 8002e2c:	2800      	cmp	r0, #0
 8002e2e:	d1e3      	bne.n	8002df8 <rt_modd_snf+0x38>
 8002e30:	ec51 0b18 	vmov	r0, r1, d8
 8002e34:	ec53 2b19 	vmov	r2, r3, d9
 8002e38:	f7ff fe82 	bl	8002b40 <rt_modd_snf.part.0>
 8002e3c:	ec41 0b10 	vmov	d0, r0, r1
 8002e40:	e7d4      	b.n	8002dec <rt_modd_snf+0x2c>
 8002e42:	bf00      	nop
 8002e44:	20001220 	.word	0x20001220

08002e48 <BalanceFuzzy_step>:
 8002e48:	e92d 4ff0 	stmdb	sp!, {r4, r5, r6, r7, r8, r9, sl, fp, lr}
 8002e4c:	ed2d 8b02 	vpush	{d8}
 8002e50:	4bab      	ldr	r3, [pc, #684]	; (8003100 <BalanceFuzzy_step+0x2b8>)
 8002e52:	f8df 82b0 	ldr.w	r8, [pc, #688]	; 8003104 <BalanceFuzzy_step+0x2bc>
 8002e56:	f2ad 5d44 	subw	sp, sp, #1348	; 0x544
 8002e5a:	2203      	movs	r2, #3
 8002e5c:	247e      	movs	r4, #126	; 0x7e
 8002e5e:	2134      	movs	r1, #52	; 0x34
 8002e60:	4618      	mov	r0, r3
 8002e62:	701c      	strb	r4, [r3, #0]
 8002e64:	705c      	strb	r4, [r3, #1]
 8002e66:	f883 2032 	strb.w	r2, [r3, #50]	; 0x32
 8002e6a:	f883 2033 	strb.w	r2, [r3, #51]	; 0x33
 8002e6e:	f7ff fac3 	bl	80023f8 <UARTTxBlockingWrite>
 8002e72:	f44f 7000 	mov.w	r0, #512	; 0x200
 8002e76:	f2c4 2040 	movt	r0, #16960	; 0x4240
 8002e7a:	f241 12e0 	movw	r2, #4576	; 0x11e0
 8002e7e:	6801      	ldr	r1, [r0, #0]
 8002e80:	f241 13e0 	movw	r3, #4576	; 0x11e0
 8002e84:	f241 15e0 	movw	r5, #4576	; 0x11e0
 8002e88:	b2ce      	uxtb	r6, r1
 8002e8a:	f2c2 0500 	movt	r5, #8192	; 0x2000
 8002e8e:	f2c2 0200 	movt	r2, #8192	; 0x2000
 8002e92:	f2c2 0300 	movt	r3, #8192	; 0x2000
 8002e96:	3220      	adds	r2, #32
 8002e98:	4630      	mov	r0, r6
 8002e9a:	4631      	mov	r1, r6
 8002e9c:	3324      	adds	r3, #36	; 0x24
 8002e9e:	f885 6028 	strb.w	r6, [r5, #40]	; 0x28
 8002ea2:	f7ff fe49 	bl	8002b38 <output_EncoderQuadraturEncoder>
 8002ea6:	4628      	mov	r0, r5
 8002ea8:	3020      	adds	r0, #32
 8002eaa:	f1a0 0120 	sub.w	r1, r0, #32
 8002eae:	f002 fcdb 	bl	8005868 <pulsetoangle_Outputs_wrapper>
 8002eb2:	e9d8 6776 	ldrd	r6, r7, [r8, #472]	; 0x1d8
 8002eb6:	2200      	movs	r2, #0
 8002eb8:	2300      	movs	r3, #0
 8002eba:	4630      	mov	r0, r6
 8002ebc:	4639      	mov	r1, r7
 8002ebe:	e9d5 4500 	ldrd	r4, r5, [r5]
 8002ec2:	f003 fbd5 	bl	8006670 <__aeabi_dcmpeq>
 8002ec6:	2800      	cmp	r0, #0
 8002ec8:	f001 8532 	beq.w	8004930 <BalanceFuzzy_step+0x1ae8>
 8002ecc:	e9d8 2378 	ldrd	r2, r3, [r8, #480]	; 0x1e0
 8002ed0:	4620      	mov	r0, r4
 8002ed2:	4629      	mov	r1, r5
 8002ed4:	f002 ffb0 	bl	8005e38 <__aeabi_dsub>
 8002ed8:	e9d8 237a 	ldrd	r2, r3, [r8, #488]	; 0x1e8
 8002edc:	f003 f960 	bl	80061a0 <__aeabi_dmul>
 8002ee0:	ed98 7b7c 	vldr	d7, [r8, #496]	; 0x1f0
 8002ee4:	ec53 2b17 	vmov	r2, r3, d7
 8002ee8:	4604      	mov	r4, r0
 8002eea:	460d      	mov	r5, r1
 8002eec:	ed8d 7b08 	vstr	d7, [sp, #32]
 8002ef0:	f003 fbdc 	bl	80066ac <__aeabi_dcmpge>
 8002ef4:	b968      	cbnz	r0, 8002f12 <BalanceFuzzy_step+0xca>
 8002ef6:	4b83      	ldr	r3, [pc, #524]	; (8003104 <BalanceFuzzy_step+0x2bc>)
 8002ef8:	e9d3 677e 	ldrd	r6, r7, [r3, #504]	; 0x1f8
 8002efc:	4620      	mov	r0, r4
 8002efe:	4632      	mov	r2, r6
 8002f00:	463b      	mov	r3, r7
 8002f02:	4629      	mov	r1, r5
 8002f04:	e9cd 4508 	strd	r4, r5, [sp, #32]
 8002f08:	f003 fbd0 	bl	80066ac <__aeabi_dcmpge>
 8002f0c:	2800      	cmp	r0, #0
 8002f0e:	f001 84ed 	beq.w	80048ec <BalanceFuzzy_step+0x1aa4>
 8002f12:	e9dd 0108 	ldrd	r0, r1, [sp, #32]
 8002f16:	a376      	add	r3, pc, #472	; (adr r3, 80030f0 <BalanceFuzzy_step+0x2a8>)
 8002f18:	e9d3 2300 	ldrd	r2, r3, [r3]
 8002f1c:	f003 fbb2 	bl	8006684 <__aeabi_dcmplt>
 8002f20:	b940      	cbnz	r0, 8002f34 <BalanceFuzzy_step+0xec>
 8002f22:	e9dd 0108 	ldrd	r0, r1, [sp, #32]
 8002f26:	2200      	movs	r2, #0
 8002f28:	2300      	movs	r3, #0
 8002f2a:	f003 fbc9 	bl	80066c0 <__aeabi_dcmpgt>
 8002f2e:	2800      	cmp	r0, #0
 8002f30:	f001 8541 	beq.w	80049b6 <BalanceFuzzy_step+0x1b6e>
 8002f34:	ed98 1b16 	vldr	d1, [r8, #88]	; 0x58
 8002f38:	ed8d 1b0a 	vstr	d1, [sp, #40]	; 0x28
 8002f3c:	4872      	ldr	r0, [pc, #456]	; (8003108 <BalanceFuzzy_step+0x2c0>)
 8002f3e:	f1a0 011c 	sub.w	r1, r0, #28
 8002f42:	f7fe fd39 	bl	80019b8 <pulsetoangle1_Outputs_wrapper>
 8002f46:	f241 12e0 	movw	r2, #4576	; 0x11e0
 8002f4a:	f2c2 0200 	movt	r2, #8192	; 0x2000
 8002f4e:	ed92 2b02 	vldr	d2, [r2, #8]
 8002f52:	e9d8 0184 	ldrd	r0, r1, [r8, #528]	; 0x210
 8002f56:	e9d8 2382 	ldrd	r2, r3, [r8, #520]	; 0x208
 8002f5a:	ed8d 2b00 	vstr	d2, [sp]
 8002f5e:	f003 f91f 	bl	80061a0 <__aeabi_dmul>
 8002f62:	4607      	mov	r7, r0
 8002f64:	f241 10d0 	movw	r0, #4560	; 0x11d0
 8002f68:	f2c2 0000 	movt	r0, #8192	; 0x2000
 8002f6c:	e9d0 2300 	ldrd	r2, r3, [r0]
 8002f70:	460c      	mov	r4, r1
 8002f72:	e9dd 0100 	ldrd	r0, r1, [sp]
 8002f76:	f002 ff5f 	bl	8005e38 <__aeabi_dsub>
 8002f7a:	4602      	mov	r2, r0
 8002f7c:	460b      	mov	r3, r1
 8002f7e:	4638      	mov	r0, r7
 8002f80:	4621      	mov	r1, r4
 8002f82:	f003 f90d 	bl	80061a0 <__aeabi_dmul>
 8002f86:	e9d8 ab86 	ldrd	sl, fp, [r8, #536]	; 0x218
 8002f8a:	4652      	mov	r2, sl
 8002f8c:	465b      	mov	r3, fp
 8002f8e:	4604      	mov	r4, r0
 8002f90:	460d      	mov	r5, r1
 8002f92:	f003 fb8b 	bl	80066ac <__aeabi_dcmpge>
 8002f96:	b968      	cbnz	r0, 8002fb4 <BalanceFuzzy_step+0x16c>
 8002f98:	495a      	ldr	r1, [pc, #360]	; (8003104 <BalanceFuzzy_step+0x2bc>)
 8002f9a:	e9d1 6788 	ldrd	r6, r7, [r1, #544]	; 0x220
 8002f9e:	4620      	mov	r0, r4
 8002fa0:	4632      	mov	r2, r6
 8002fa2:	463b      	mov	r3, r7
 8002fa4:	4629      	mov	r1, r5
 8002fa6:	46a2      	mov	sl, r4
 8002fa8:	46ab      	mov	fp, r5
 8002faa:	f003 fb7f 	bl	80066ac <__aeabi_dcmpge>
 8002fae:	2800      	cmp	r0, #0
 8002fb0:	f001 8498 	beq.w	80048e4 <BalanceFuzzy_step+0x1a9c>
 8002fb4:	2300      	movs	r3, #0
 8002fb6:	4650      	mov	r0, sl
 8002fb8:	4659      	mov	r1, fp
 8002fba:	2200      	movs	r2, #0
 8002fbc:	f2cc 0314 	movt	r3, #49172	; 0xc014
 8002fc0:	f003 fb60 	bl	8006684 <__aeabi_dcmplt>
 8002fc4:	b940      	cbnz	r0, 8002fd8 <BalanceFuzzy_step+0x190>
 8002fc6:	4650      	mov	r0, sl
 8002fc8:	4659      	mov	r1, fp
 8002fca:	2200      	movs	r2, #0
 8002fcc:	2300      	movs	r3, #0
 8002fce:	f003 fb77 	bl	80066c0 <__aeabi_dcmpgt>
 8002fd2:	2800      	cmp	r0, #0
 8002fd4:	f001 8515 	beq.w	8004a02 <BalanceFuzzy_step+0x1bba>
 8002fd8:	ed98 4b2e 	vldr	d4, [r8, #184]	; 0xb8
 8002fdc:	ed8d 4b02 	vstr	d4, [sp, #8]
 8002fe0:	f241 10e0 	movw	r0, #4576	; 0x11e0
 8002fe4:	f2c2 0000 	movt	r0, #8192	; 0x2000
 8002fe8:	ed90 5b00 	vldr	d5, [r0]
 8002fec:	e9d8 238c 	ldrd	r2, r3, [r8, #560]	; 0x230
 8002ff0:	e9d8 018e 	ldrd	r0, r1, [r8, #568]	; 0x238
 8002ff4:	ed8d 5b14 	vstr	d5, [sp, #80]	; 0x50
 8002ff8:	f003 f8d2 	bl	80061a0 <__aeabi_dmul>
 8002ffc:	f241 13d0 	movw	r3, #4560	; 0x11d0
 8003000:	f2c2 0300 	movt	r3, #8192	; 0x2000
 8003004:	4604      	mov	r4, r0
 8003006:	460d      	mov	r5, r1
 8003008:	e9d3 2302 	ldrd	r2, r3, [r3, #8]
 800300c:	e9dd 0114 	ldrd	r0, r1, [sp, #80]	; 0x50
 8003010:	f002 ff12 	bl	8005e38 <__aeabi_dsub>
 8003014:	4602      	mov	r2, r0
 8003016:	460b      	mov	r3, r1
 8003018:	4620      	mov	r0, r4
 800301a:	4629      	mov	r1, r5
 800301c:	f003 f8c0 	bl	80061a0 <__aeabi_dmul>
 8003020:	e9d8 6790 	ldrd	r6, r7, [r8, #576]	; 0x240
 8003024:	4632      	mov	r2, r6
 8003026:	463b      	mov	r3, r7
 8003028:	4604      	mov	r4, r0
 800302a:	460d      	mov	r5, r1
 800302c:	f003 fb3e 	bl	80066ac <__aeabi_dcmpge>
 8003030:	b978      	cbnz	r0, 8003052 <BalanceFuzzy_step+0x20a>
 8003032:	4a34      	ldr	r2, [pc, #208]	; (8003104 <BalanceFuzzy_step+0x2bc>)
 8003034:	ed92 6b92 	vldr	d6, [r2, #584]	; 0x248
 8003038:	4620      	mov	r0, r4
 800303a:	ec53 2b16 	vmov	r2, r3, d6
 800303e:	4629      	mov	r1, r5
 8003040:	ed8d 6b06 	vstr	d6, [sp, #24]
 8003044:	4626      	mov	r6, r4
 8003046:	462f      	mov	r7, r5
 8003048:	f003 fb30 	bl	80066ac <__aeabi_dcmpge>
 800304c:	2800      	cmp	r0, #0
 800304e:	f001 8445 	beq.w	80048dc <BalanceFuzzy_step+0x1a94>
 8003052:	2300      	movs	r3, #0
 8003054:	4630      	mov	r0, r6
 8003056:	4639      	mov	r1, r7
 8003058:	2200      	movs	r2, #0
 800305a:	f2cc 0314 	movt	r3, #49172	; 0xc014
 800305e:	f003 fb11 	bl	8006684 <__aeabi_dcmplt>
 8003062:	b940      	cbnz	r0, 8003076 <BalanceFuzzy_step+0x22e>
 8003064:	4630      	mov	r0, r6
 8003066:	4639      	mov	r1, r7
 8003068:	2200      	movs	r2, #0
 800306a:	2300      	movs	r3, #0
 800306c:	f003 fb28 	bl	80066c0 <__aeabi_dcmpgt>
 8003070:	2800      	cmp	r0, #0
 8003072:	f001 84d7 	beq.w	8004a24 <BalanceFuzzy_step+0x1bdc>
 8003076:	ed98 0b46 	vldr	d0, [r8, #280]	; 0x118
 800307a:	ed8d 0b12 	vstr	d0, [sp, #72]	; 0x48
 800307e:	e9d8 4594 	ldrd	r4, r5, [r8, #592]	; 0x250
 8003082:	2200      	movs	r2, #0
 8003084:	2300      	movs	r3, #0
 8003086:	4620      	mov	r0, r4
 8003088:	4629      	mov	r1, r5
 800308a:	f003 faf1 	bl	8006670 <__aeabi_dcmpeq>
 800308e:	2800      	cmp	r0, #0
 8003090:	f001 8430 	beq.w	80048f4 <BalanceFuzzy_step+0x1aac>
 8003094:	ed9d 8b00 	vldr	d8, [sp]
 8003098:	ec51 0b18 	vmov	r0, r1, d8
 800309c:	e9d8 2396 	ldrd	r2, r3, [r8, #600]	; 0x258
 80030a0:	f002 feca 	bl	8005e38 <__aeabi_dsub>
 80030a4:	e9d8 2398 	ldrd	r2, r3, [r8, #608]	; 0x260
 80030a8:	f003 f87a 	bl	80061a0 <__aeabi_dmul>
 80030ac:	e9d8 459a 	ldrd	r4, r5, [r8, #616]	; 0x268
 80030b0:	4622      	mov	r2, r4
 80030b2:	462b      	mov	r3, r5
 80030b4:	e9cd 0100 	strd	r0, r1, [sp]
 80030b8:	f003 faf8 	bl	80066ac <__aeabi_dcmpge>
 80030bc:	b978      	cbnz	r0, 80030de <BalanceFuzzy_step+0x296>
 80030be:	4811      	ldr	r0, [pc, #68]	; (8003104 <BalanceFuzzy_step+0x2bc>)
 80030c0:	e9dd 4500 	ldrd	r4, r5, [sp]
 80030c4:	ed90 4b9c 	vldr	d4, [r0, #624]	; 0x270
 80030c8:	4629      	mov	r1, r5
 80030ca:	ec53 2b14 	vmov	r2, r3, d4
 80030ce:	4620      	mov	r0, r4
 80030d0:	ed8d 4b06 	vstr	d4, [sp, #24]
 80030d4:	f003 faea 	bl	80066ac <__aeabi_dcmpge>
 80030d8:	2800      	cmp	r0, #0
 80030da:	f001 83fb 	beq.w	80048d4 <BalanceFuzzy_step+0x1a8c>
 80030de:	4620      	mov	r0, r4
 80030e0:	4629      	mov	r1, r5
 80030e2:	a305      	add	r3, pc, #20	; (adr r3, 80030f8 <BalanceFuzzy_step+0x2b0>)
 80030e4:	e9d3 2300 	ldrd	r2, r3, [r3]
 80030e8:	f003 facc 	bl	8006684 <__aeabi_dcmplt>
 80030ec:	b9b8      	cbnz	r0, 800311e <BalanceFuzzy_step+0x2d6>
 80030ee:	e00d      	b.n	800310c <BalanceFuzzy_step+0x2c4>
 80030f0:	ae147ae1 	.word	0xae147ae1
 80030f4:	c017e147 	.word	0xc017e147
 80030f8:	0a3d70a4 	.word	0x0a3d70a4
 80030fc:	c02923d7 	.word	0xc02923d7
 8003100:	20000f50 	.word	0x20000f50
 8003104:	20000028 	.word	0x20000028
 8003108:	20001204 	.word	0x20001204
 800310c:	4620      	mov	r0, r4
 800310e:	4629      	mov	r1, r5
 8003110:	2200      	movs	r2, #0
 8003112:	2300      	movs	r3, #0
 8003114:	f003 fad4 	bl	80066c0 <__aeabi_dcmpgt>
 8003118:	2800      	cmp	r0, #0
 800311a:	f001 8494 	beq.w	8004a46 <BalanceFuzzy_step+0x1bfe>
 800311e:	ed98 7b5e 	vldr	d7, [r8, #376]	; 0x178
 8003122:	ed8d 7b06 	vstr	d7, [sp, #24]
 8003126:	e9dd 230a 	ldrd	r2, r3, [sp, #40]	; 0x28
 800312a:	e9dd 0112 	ldrd	r0, r1, [sp, #72]	; 0x48
 800312e:	f003 f837 	bl	80061a0 <__aeabi_dmul>
 8003132:	e9cd 010e 	strd	r0, r1, [sp, #56]	; 0x38
 8003136:	e9dd 230e 	ldrd	r2, r3, [sp, #56]	; 0x38
 800313a:	e9dd 0106 	ldrd	r0, r1, [sp, #24]
 800313e:	f003 f82f 	bl	80061a0 <__aeabi_dmul>
 8003142:	e9d8 2374 	ldrd	r2, r3, [r8, #464]	; 0x1d0
 8003146:	e9cd 0104 	strd	r0, r1, [sp, #16]
 800314a:	e9dd 0102 	ldrd	r0, r1, [sp, #8]
 800314e:	f003 f827 	bl	80061a0 <__aeabi_dmul>
 8003152:	e9dd 2304 	ldrd	r2, r3, [sp, #16]
 8003156:	f003 f823 	bl	80061a0 <__aeabi_dmul>
 800315a:	2300      	movs	r3, #0
 800315c:	e9cd 0116 	strd	r0, r1, [sp, #88]	; 0x58
 8003160:	2200      	movs	r2, #0
 8003162:	4650      	mov	r0, sl
 8003164:	4659      	mov	r1, fp
 8003166:	f6cb 73f0 	movt	r3, #49136	; 0xbff0
 800316a:	f8df 92fc 	ldr.w	r9, [pc, #764]	; 8003468 <BalanceFuzzy_step+0x620>
 800316e:	f003 fa89 	bl	8006684 <__aeabi_dcmplt>
 8003172:	b950      	cbnz	r0, 800318a <BalanceFuzzy_step+0x342>
 8003174:	2300      	movs	r3, #0
 8003176:	4650      	mov	r0, sl
 8003178:	4659      	mov	r1, fp
 800317a:	2200      	movs	r2, #0
 800317c:	f6c3 73f0 	movt	r3, #16368	; 0x3ff0
 8003180:	f003 fa9e 	bl	80066c0 <__aeabi_dcmpgt>
 8003184:	2800      	cmp	r0, #0
 8003186:	f001 84b8 	beq.w	8004afa <BalanceFuzzy_step+0x1cb2>
 800318a:	ed98 3b3e 	vldr	d3, [r8, #248]	; 0xf8
 800318e:	e9d8 239e 	ldrd	r2, r3, [r8, #632]	; 0x278
 8003192:	ec51 0b13 	vmov	r0, r1, d3
 8003196:	ed8d 3b00 	vstr	d3, [sp]
 800319a:	f003 f801 	bl	80061a0 <__aeabi_dmul>
 800319e:	e9dd 2304 	ldrd	r2, r3, [sp, #16]
 80031a2:	f002 fffd 	bl	80061a0 <__aeabi_dmul>
 80031a6:	2200      	movs	r2, #0
 80031a8:	e9cd 01aa 	strd	r0, r1, [sp, #680]	; 0x2a8
 80031ac:	2300      	movs	r3, #0
 80031ae:	4650      	mov	r0, sl
 80031b0:	4659      	mov	r1, fp
 80031b2:	f003 fa67 	bl	8006684 <__aeabi_dcmplt>
 80031b6:	b948      	cbnz	r0, 80031cc <BalanceFuzzy_step+0x384>
 80031b8:	4650      	mov	r0, sl
 80031ba:	4659      	mov	r1, fp
 80031bc:	2200      	movs	r2, #0
 80031be:	f04f 4380 	mov.w	r3, #1073741824	; 0x40000000
 80031c2:	f003 fa7d 	bl	80066c0 <__aeabi_dcmpgt>
 80031c6:	2800      	cmp	r0, #0
 80031c8:	f001 8296 	beq.w	80046f8 <BalanceFuzzy_step+0x18b0>
 80031cc:	e9d8 ab36 	ldrd	sl, fp, [r8, #216]	; 0xd8
 80031d0:	e9d8 23a0 	ldrd	r2, r3, [r8, #640]	; 0x280
 80031d4:	e9dd 0104 	ldrd	r0, r1, [sp, #16]
 80031d8:	f002 ffe2 	bl	80061a0 <__aeabi_dmul>
 80031dc:	4652      	mov	r2, sl
 80031de:	465b      	mov	r3, fp
 80031e0:	f002 ffde 	bl	80061a0 <__aeabi_dmul>
 80031e4:	a3a1      	add	r3, pc, #644	; (adr r3, 800346c <BalanceFuzzy_step+0x624>)
 80031e6:	e9d3 2300 	ldrd	r2, r3, [r3]
 80031ea:	e9cd 0118 	strd	r0, r1, [sp, #96]	; 0x60
 80031ee:	4620      	mov	r0, r4
 80031f0:	4629      	mov	r1, r5
 80031f2:	f8df 9274 	ldr.w	r9, [pc, #628]	; 8003468 <BalanceFuzzy_step+0x620>
 80031f6:	f003 fa45 	bl	8006684 <__aeabi_dcmplt>
 80031fa:	b948      	cbnz	r0, 8003210 <BalanceFuzzy_step+0x3c8>
 80031fc:	4620      	mov	r0, r4
 80031fe:	4629      	mov	r1, r5
 8003200:	a39c      	add	r3, pc, #624	; (adr r3, 8003474 <BalanceFuzzy_step+0x62c>)
 8003202:	e9d3 2300 	ldrd	r2, r3, [r3]
 8003206:	f003 fa5b 	bl	80066c0 <__aeabi_dcmpgt>
 800320a:	2800      	cmp	r0, #0
 800320c:	f001 82c6 	beq.w	800479c <BalanceFuzzy_step+0x1954>
 8003210:	ed98 0b6e 	vldr	d0, [r8, #440]	; 0x1b8
 8003214:	e9dd 010e 	ldrd	r0, r1, [sp, #56]	; 0x38
 8003218:	ec53 2b10 	vmov	r2, r3, d0
 800321c:	ed8d 0b0c 	vstr	d0, [sp, #48]	; 0x30
 8003220:	f002 ffbe 	bl	80061a0 <__aeabi_dmul>
 8003224:	e9d8 23a2 	ldrd	r2, r3, [r8, #648]	; 0x288
 8003228:	e9cd 0104 	strd	r0, r1, [sp, #16]
 800322c:	e9dd 0102 	ldrd	r0, r1, [sp, #8]
 8003230:	f002 ffb6 	bl	80061a0 <__aeabi_dmul>
 8003234:	e9dd 2304 	ldrd	r2, r3, [sp, #16]
 8003238:	f002 ffb2 	bl	80061a0 <__aeabi_dmul>
 800323c:	e9d8 23a4 	ldrd	r2, r3, [r8, #656]	; 0x290
 8003240:	e9cd 011a 	strd	r0, r1, [sp, #104]	; 0x68
 8003244:	e9dd 0104 	ldrd	r0, r1, [sp, #16]
 8003248:	f002 ffaa 	bl	80061a0 <__aeabi_dmul>
 800324c:	e9dd 2300 	ldrd	r2, r3, [sp]
 8003250:	f002 ffa6 	bl	80061a0 <__aeabi_dmul>
 8003254:	e9d8 23a6 	ldrd	r2, r3, [r8, #664]	; 0x298
 8003258:	e9cd 011c 	strd	r0, r1, [sp, #112]	; 0x70
 800325c:	e9dd 0104 	ldrd	r0, r1, [sp, #16]
 8003260:	f002 ff9e 	bl	80061a0 <__aeabi_dmul>
 8003264:	4652      	mov	r2, sl
 8003266:	465b      	mov	r3, fp
 8003268:	f002 ff9a 	bl	80061a0 <__aeabi_dmul>
 800326c:	2200      	movs	r2, #0
 800326e:	e9cd 011e 	strd	r0, r1, [sp, #120]	; 0x78
 8003272:	2300      	movs	r3, #0
 8003274:	4620      	mov	r0, r4
 8003276:	4629      	mov	r1, r5
 8003278:	f003 fa04 	bl	8006684 <__aeabi_dcmplt>
 800327c:	b948      	cbnz	r0, 8003292 <BalanceFuzzy_step+0x44a>
 800327e:	4620      	mov	r0, r4
 8003280:	4629      	mov	r1, r5
 8003282:	a37e      	add	r3, pc, #504	; (adr r3, 800347c <BalanceFuzzy_step+0x634>)
 8003284:	e9d3 2300 	ldrd	r2, r3, [r3]
 8003288:	f003 fa1a 	bl	80066c0 <__aeabi_dcmpgt>
 800328c:	2800      	cmp	r0, #0
 800328e:	f001 8201 	beq.w	8004694 <BalanceFuzzy_step+0x184c>
 8003292:	ed98 3b66 	vldr	d3, [r8, #408]	; 0x198
 8003296:	ed8d 3b04 	vstr	d3, [sp, #16]
 800329a:	ec51 0b13 	vmov	r0, r1, d3
 800329e:	e9dd 230e 	ldrd	r2, r3, [sp, #56]	; 0x38
 80032a2:	f002 ff7d 	bl	80061a0 <__aeabi_dmul>
 80032a6:	e9d8 23a8 	ldrd	r2, r3, [r8, #672]	; 0x2a0
 80032aa:	4604      	mov	r4, r0
 80032ac:	460d      	mov	r5, r1
 80032ae:	e9dd 0102 	ldrd	r0, r1, [sp, #8]
 80032b2:	f002 ff75 	bl	80061a0 <__aeabi_dmul>
 80032b6:	4622      	mov	r2, r4
 80032b8:	462b      	mov	r3, r5
 80032ba:	f002 ff71 	bl	80061a0 <__aeabi_dmul>
 80032be:	e9d8 23aa 	ldrd	r2, r3, [r8, #680]	; 0x2a8
 80032c2:	e9cd 0120 	strd	r0, r1, [sp, #128]	; 0x80
 80032c6:	e9dd 0100 	ldrd	r0, r1, [sp]
 80032ca:	f002 ff69 	bl	80061a0 <__aeabi_dmul>
 80032ce:	4622      	mov	r2, r4
 80032d0:	462b      	mov	r3, r5
 80032d2:	f002 ff65 	bl	80061a0 <__aeabi_dmul>
 80032d6:	e9d8 23ac 	ldrd	r2, r3, [r8, #688]	; 0x2b0
 80032da:	e9cd 0122 	strd	r0, r1, [sp, #136]	; 0x88
 80032de:	4650      	mov	r0, sl
 80032e0:	4659      	mov	r1, fp
 80032e2:	f002 ff5d 	bl	80061a0 <__aeabi_dmul>
 80032e6:	4622      	mov	r2, r4
 80032e8:	462b      	mov	r3, r5
 80032ea:	f002 ff59 	bl	80061a0 <__aeabi_dmul>
 80032ee:	2300      	movs	r3, #0
 80032f0:	e9cd 0124 	strd	r0, r1, [sp, #144]	; 0x90
 80032f4:	2200      	movs	r2, #0
 80032f6:	4630      	mov	r0, r6
 80032f8:	4639      	mov	r1, r7
 80032fa:	f6cb 73f0 	movt	r3, #49136	; 0xbff0
 80032fe:	4c5a      	ldr	r4, [pc, #360]	; (8003468 <BalanceFuzzy_step+0x620>)
 8003300:	f003 f9c0 	bl	8006684 <__aeabi_dcmplt>
 8003304:	b950      	cbnz	r0, 800331c <BalanceFuzzy_step+0x4d4>
 8003306:	2300      	movs	r3, #0
 8003308:	4630      	mov	r0, r6
 800330a:	4639      	mov	r1, r7
 800330c:	2200      	movs	r2, #0
 800330e:	f6c3 73f0 	movt	r3, #16368	; 0x3ff0
 8003312:	f003 f9d5 	bl	80066c0 <__aeabi_dcmpgt>
 8003316:	2800      	cmp	r0, #0
 8003318:	f001 83de 	beq.w	8004ad8 <BalanceFuzzy_step+0x1c90>
 800331c:	ed98 7b56 	vldr	d7, [r8, #344]	; 0x158
 8003320:	ed8d 7b0e 	vstr	d7, [sp, #56]	; 0x38
 8003324:	ec51 0b17 	vmov	r0, r1, d7
 8003328:	e9dd 230a 	ldrd	r2, r3, [sp, #40]	; 0x28
 800332c:	f002 ff38 	bl	80061a0 <__aeabi_dmul>
 8003330:	e9dd 2306 	ldrd	r2, r3, [sp, #24]
 8003334:	e9cd 0110 	strd	r0, r1, [sp, #64]	; 0x40
 8003338:	f002 ff32 	bl	80061a0 <__aeabi_dmul>
 800333c:	e9d8 23ae 	ldrd	r2, r3, [r8, #696]	; 0x2b8
 8003340:	4604      	mov	r4, r0
 8003342:	460d      	mov	r5, r1
 8003344:	e9dd 0102 	ldrd	r0, r1, [sp, #8]
 8003348:	f002 ff2a 	bl	80061a0 <__aeabi_dmul>
 800334c:	4622      	mov	r2, r4
 800334e:	462b      	mov	r3, r5
 8003350:	f002 ff26 	bl	80061a0 <__aeabi_dmul>
 8003354:	e9d8 23b0 	ldrd	r2, r3, [r8, #704]	; 0x2c0
 8003358:	e9cd 0126 	strd	r0, r1, [sp, #152]	; 0x98
 800335c:	e9dd 0100 	ldrd	r0, r1, [sp]
 8003360:	f002 ff1e 	bl	80061a0 <__aeabi_dmul>
 8003364:	4622      	mov	r2, r4
 8003366:	462b      	mov	r3, r5
 8003368:	f002 ff1a 	bl	80061a0 <__aeabi_dmul>
 800336c:	e9d8 23b2 	ldrd	r2, r3, [r8, #712]	; 0x2c8
 8003370:	e9cd 0128 	strd	r0, r1, [sp, #160]	; 0xa0
 8003374:	4650      	mov	r0, sl
 8003376:	4659      	mov	r1, fp
 8003378:	f002 ff12 	bl	80061a0 <__aeabi_dmul>
 800337c:	4622      	mov	r2, r4
 800337e:	462b      	mov	r3, r5
 8003380:	f002 ff0e 	bl	80061a0 <__aeabi_dmul>
 8003384:	e9dd 230c 	ldrd	r2, r3, [sp, #48]	; 0x30
 8003388:	e9cd 012a 	strd	r0, r1, [sp, #168]	; 0xa8
 800338c:	e9dd 0110 	ldrd	r0, r1, [sp, #64]	; 0x40
 8003390:	f002 ff06 	bl	80061a0 <__aeabi_dmul>
 8003394:	e9d8 23b4 	ldrd	r2, r3, [r8, #720]	; 0x2d0
 8003398:	4604      	mov	r4, r0
 800339a:	460d      	mov	r5, r1
 800339c:	e9dd 0102 	ldrd	r0, r1, [sp, #8]
 80033a0:	f002 fefe 	bl	80061a0 <__aeabi_dmul>
 80033a4:	4622      	mov	r2, r4
 80033a6:	462b      	mov	r3, r5
 80033a8:	f002 fefa 	bl	80061a0 <__aeabi_dmul>
 80033ac:	e9d8 23b6 	ldrd	r2, r3, [r8, #728]	; 0x2d8
 80033b0:	e9cd 012c 	strd	r0, r1, [sp, #176]	; 0xb0
 80033b4:	e9dd 0100 	ldrd	r0, r1, [sp]
 80033b8:	f002 fef2 	bl	80061a0 <__aeabi_dmul>
 80033bc:	4622      	mov	r2, r4
 80033be:	462b      	mov	r3, r5
 80033c0:	f002 feee 	bl	80061a0 <__aeabi_dmul>
 80033c4:	e9d8 23b8 	ldrd	r2, r3, [r8, #736]	; 0x2e0
 80033c8:	e9cd 012e 	strd	r0, r1, [sp, #184]	; 0xb8
 80033cc:	4650      	mov	r0, sl
 80033ce:	4659      	mov	r1, fp
 80033d0:	f002 fee6 	bl	80061a0 <__aeabi_dmul>
 80033d4:	4622      	mov	r2, r4
 80033d6:	462b      	mov	r3, r5
 80033d8:	f002 fee2 	bl	80061a0 <__aeabi_dmul>
 80033dc:	e9dd 2304 	ldrd	r2, r3, [sp, #16]
 80033e0:	e9cd 0130 	strd	r0, r1, [sp, #192]	; 0xc0
 80033e4:	e9dd 0110 	ldrd	r0, r1, [sp, #64]	; 0x40
 80033e8:	f002 feda 	bl	80061a0 <__aeabi_dmul>
 80033ec:	e9d8 23ba 	ldrd	r2, r3, [r8, #744]	; 0x2e8
 80033f0:	4604      	mov	r4, r0
 80033f2:	460d      	mov	r5, r1
 80033f4:	e9dd 0102 	ldrd	r0, r1, [sp, #8]
 80033f8:	f002 fed2 	bl	80061a0 <__aeabi_dmul>
 80033fc:	4622      	mov	r2, r4
 80033fe:	462b      	mov	r3, r5
 8003400:	f002 fece 	bl	80061a0 <__aeabi_dmul>
 8003404:	e9cd 0132 	strd	r0, r1, [sp, #200]	; 0xc8
 8003408:	e9d8 23bc 	ldrd	r2, r3, [r8, #752]	; 0x2f0
 800340c:	e9dd 0100 	ldrd	r0, r1, [sp]
 8003410:	f002 fec6 	bl	80061a0 <__aeabi_dmul>
 8003414:	4622      	mov	r2, r4
 8003416:	462b      	mov	r3, r5
 8003418:	f002 fec2 	bl	80061a0 <__aeabi_dmul>
 800341c:	e9d8 23be 	ldrd	r2, r3, [r8, #760]	; 0x2f8
 8003420:	e9cd 0134 	strd	r0, r1, [sp, #208]	; 0xd0
 8003424:	4650      	mov	r0, sl
 8003426:	4659      	mov	r1, fp
 8003428:	f002 feba 	bl	80061a0 <__aeabi_dmul>
 800342c:	4622      	mov	r2, r4
 800342e:	462b      	mov	r3, r5
 8003430:	f002 feb6 	bl	80061a0 <__aeabi_dmul>
 8003434:	2200      	movs	r2, #0
 8003436:	e9cd 0136 	strd	r0, r1, [sp, #216]	; 0xd8
 800343a:	2300      	movs	r3, #0
 800343c:	4630      	mov	r0, r6
 800343e:	4639      	mov	r1, r7
 8003440:	f8df 9024 	ldr.w	r9, [pc, #36]	; 8003468 <BalanceFuzzy_step+0x620>
 8003444:	f003 f91e 	bl	8006684 <__aeabi_dcmplt>
 8003448:	b9e0      	cbnz	r0, 8003484 <BalanceFuzzy_step+0x63c>
 800344a:	2300      	movs	r3, #0
 800344c:	4630      	mov	r0, r6
 800344e:	4639      	mov	r1, r7
 8003450:	2200      	movs	r2, #0
 8003452:	f2c4 0308 	movt	r3, #16392	; 0x4008
 8003456:	f003 f933 	bl	80066c0 <__aeabi_dcmpgt>
 800345a:	2800      	cmp	r0, #0
 800345c:	f001 80de 	beq.w	800461c <BalanceFuzzy_step+0x17d4>
 8003460:	e010      	b.n	8003484 <BalanceFuzzy_step+0x63c>
 8003462:	bf00      	nop
 8003464:	f3af 8000 	nop.w
 8003468:	20000028 	.word	0x20000028
 800346c:	e5604189 	.word	0xe5604189
 8003470:	c00922d0 	.word	0xc00922d0
 8003474:	e5604189 	.word	0xe5604189
 8003478:	400922d0 	.word	0x400922d0
 800347c:	9999999a 	.word	0x9999999a
 8003480:	4022d999 	.word	0x4022d999
 8003484:	ed98 1b4e 	vldr	d1, [r8, #312]	; 0x138
 8003488:	ed8d 1b10 	vstr	d1, [sp, #64]	; 0x40
 800348c:	ec51 0b11 	vmov	r0, r1, d1
 8003490:	e9dd 230a 	ldrd	r2, r3, [sp, #40]	; 0x28
 8003494:	f002 fe84 	bl	80061a0 <__aeabi_dmul>
 8003498:	e9dd 2306 	ldrd	r2, r3, [sp, #24]
 800349c:	4606      	mov	r6, r0
 800349e:	460f      	mov	r7, r1
 80034a0:	f002 fe7e 	bl	80061a0 <__aeabi_dmul>
 80034a4:	e9d8 23c0 	ldrd	r2, r3, [r8, #768]	; 0x300
 80034a8:	4604      	mov	r4, r0
 80034aa:	460d      	mov	r5, r1
 80034ac:	e9dd 0102 	ldrd	r0, r1, [sp, #8]
 80034b0:	f002 fe76 	bl	80061a0 <__aeabi_dmul>
 80034b4:	4622      	mov	r2, r4
 80034b6:	462b      	mov	r3, r5
 80034b8:	f002 fe72 	bl	80061a0 <__aeabi_dmul>
 80034bc:	e9d8 23c2 	ldrd	r2, r3, [r8, #776]	; 0x308
 80034c0:	e9cd 0138 	strd	r0, r1, [sp, #224]	; 0xe0
 80034c4:	e9dd 0100 	ldrd	r0, r1, [sp]
 80034c8:	f002 fe6a 	bl	80061a0 <__aeabi_dmul>
 80034cc:	4622      	mov	r2, r4
 80034ce:	462b      	mov	r3, r5
 80034d0:	f002 fe66 	bl	80061a0 <__aeabi_dmul>
 80034d4:	e9d8 23c4 	ldrd	r2, r3, [r8, #784]	; 0x310
 80034d8:	e9cd 013a 	strd	r0, r1, [sp, #232]	; 0xe8
 80034dc:	4650      	mov	r0, sl
 80034de:	4659      	mov	r1, fp
 80034e0:	f002 fe5e 	bl	80061a0 <__aeabi_dmul>
 80034e4:	4622      	mov	r2, r4
 80034e6:	462b      	mov	r3, r5
 80034e8:	f002 fe5a 	bl	80061a0 <__aeabi_dmul>
 80034ec:	e9dd 230c 	ldrd	r2, r3, [sp, #48]	; 0x30
 80034f0:	e9cd 013c 	strd	r0, r1, [sp, #240]	; 0xf0
 80034f4:	4630      	mov	r0, r6
 80034f6:	4639      	mov	r1, r7
 80034f8:	f002 fe52 	bl	80061a0 <__aeabi_dmul>
 80034fc:	e9d8 23c6 	ldrd	r2, r3, [r8, #792]	; 0x318
 8003500:	4604      	mov	r4, r0
 8003502:	460d      	mov	r5, r1
 8003504:	e9dd 0102 	ldrd	r0, r1, [sp, #8]
 8003508:	f002 fe4a 	bl	80061a0 <__aeabi_dmul>
 800350c:	4622      	mov	r2, r4
 800350e:	462b      	mov	r3, r5
 8003510:	f002 fe46 	bl	80061a0 <__aeabi_dmul>
 8003514:	e9d8 23c8 	ldrd	r2, r3, [r8, #800]	; 0x320
 8003518:	e9cd 013e 	strd	r0, r1, [sp, #248]	; 0xf8
 800351c:	e9dd 0100 	ldrd	r0, r1, [sp]
 8003520:	f002 fe3e 	bl	80061a0 <__aeabi_dmul>
 8003524:	4622      	mov	r2, r4
 8003526:	462b      	mov	r3, r5
 8003528:	f002 fe3a 	bl	80061a0 <__aeabi_dmul>
 800352c:	e9d8 23ca 	ldrd	r2, r3, [r8, #808]	; 0x328
 8003530:	e9cd 0140 	strd	r0, r1, [sp, #256]	; 0x100
 8003534:	4650      	mov	r0, sl
 8003536:	4659      	mov	r1, fp
 8003538:	f002 fe32 	bl	80061a0 <__aeabi_dmul>
 800353c:	4622      	mov	r2, r4
 800353e:	462b      	mov	r3, r5
 8003540:	f002 fe2e 	bl	80061a0 <__aeabi_dmul>
 8003544:	e9dd 2304 	ldrd	r2, r3, [sp, #16]
 8003548:	e9cd 0142 	strd	r0, r1, [sp, #264]	; 0x108
 800354c:	4630      	mov	r0, r6
 800354e:	4639      	mov	r1, r7
 8003550:	f002 fe26 	bl	80061a0 <__aeabi_dmul>
 8003554:	e9d8 23cc 	ldrd	r2, r3, [r8, #816]	; 0x330
 8003558:	4606      	mov	r6, r0
 800355a:	460f      	mov	r7, r1
 800355c:	e9dd 0102 	ldrd	r0, r1, [sp, #8]
 8003560:	f002 fe1e 	bl	80061a0 <__aeabi_dmul>
 8003564:	4632      	mov	r2, r6
 8003566:	463b      	mov	r3, r7
 8003568:	f002 fe1a 	bl	80061a0 <__aeabi_dmul>
 800356c:	e9cd 0144 	strd	r0, r1, [sp, #272]	; 0x110
 8003570:	e9d8 23ce 	ldrd	r2, r3, [r8, #824]	; 0x338
 8003574:	e9dd 0100 	ldrd	r0, r1, [sp]
 8003578:	f002 fe12 	bl	80061a0 <__aeabi_dmul>
 800357c:	4632      	mov	r2, r6
 800357e:	463b      	mov	r3, r7
 8003580:	f002 fe0e 	bl	80061a0 <__aeabi_dmul>
 8003584:	e9d8 23d0 	ldrd	r2, r3, [r8, #832]	; 0x340
 8003588:	e9cd 0146 	strd	r0, r1, [sp, #280]	; 0x118
 800358c:	4650      	mov	r0, sl
 800358e:	4659      	mov	r1, fp
 8003590:	f002 fe06 	bl	80061a0 <__aeabi_dmul>
 8003594:	4632      	mov	r2, r6
 8003596:	463b      	mov	r3, r7
 8003598:	f002 fe02 	bl	80061a0 <__aeabi_dmul>
 800359c:	a30d      	add	r3, pc, #52	; (adr r3, 80035d4 <BalanceFuzzy_step+0x78c>)
 800359e:	e9d3 2300 	ldrd	r2, r3, [r3]
 80035a2:	e9cd 0148 	strd	r0, r1, [sp, #288]	; 0x120
 80035a6:	e9dd 0108 	ldrd	r0, r1, [sp, #32]
 80035aa:	4e09      	ldr	r6, [pc, #36]	; (80035d0 <BalanceFuzzy_step+0x788>)
 80035ac:	f003 f86a 	bl	8006684 <__aeabi_dcmplt>
 80035b0:	b9a0      	cbnz	r0, 80035dc <BalanceFuzzy_step+0x794>
 80035b2:	e9dd 0108 	ldrd	r0, r1, [sp, #32]
 80035b6:	a304      	add	r3, pc, #16	; (adr r3, 80035c8 <BalanceFuzzy_step+0x780>)
 80035b8:	e9d3 2300 	ldrd	r2, r3, [r3]
 80035bc:	f003 f880 	bl	80066c0 <__aeabi_dcmpgt>
 80035c0:	2800      	cmp	r0, #0
 80035c2:	f001 814f 	beq.w	8004864 <BalanceFuzzy_step+0x1a1c>
 80035c6:	e009      	b.n	80035dc <BalanceFuzzy_step+0x794>
 80035c8:	51eb851f 	.word	0x51eb851f
 80035cc:	40091eb8 	.word	0x40091eb8
 80035d0:	20000028 	.word	0x20000028
 80035d4:	54442d11 	.word	0x54442d11
 80035d8:	c00921fb 	.word	0xc00921fb
 80035dc:	ed98 3b26 	vldr	d3, [r8, #152]	; 0x98
 80035e0:	ed8d 3b0a 	vstr	d3, [sp, #40]	; 0x28
 80035e4:	ec51 0b13 	vmov	r0, r1, d3
 80035e8:	e9dd 2312 	ldrd	r2, r3, [sp, #72]	; 0x48
 80035ec:	f002 fdd8 	bl	80061a0 <__aeabi_dmul>
 80035f0:	e9dd 2306 	ldrd	r2, r3, [sp, #24]
 80035f4:	4606      	mov	r6, r0
 80035f6:	460f      	mov	r7, r1
 80035f8:	f002 fdd2 	bl	80061a0 <__aeabi_dmul>
 80035fc:	e9d8 23d2 	ldrd	r2, r3, [r8, #840]	; 0x348
 8003600:	4604      	mov	r4, r0
 8003602:	460d      	mov	r5, r1
 8003604:	e9dd 0102 	ldrd	r0, r1, [sp, #8]
 8003608:	f002 fdca 	bl	80061a0 <__aeabi_dmul>
 800360c:	4622      	mov	r2, r4
 800360e:	462b      	mov	r3, r5
 8003610:	f002 fdc6 	bl	80061a0 <__aeabi_dmul>
 8003614:	e9d8 23d4 	ldrd	r2, r3, [r8, #848]	; 0x350
 8003618:	e9cd 014a 	strd	r0, r1, [sp, #296]	; 0x128
 800361c:	e9dd 0100 	ldrd	r0, r1, [sp]
 8003620:	f002 fdbe 	bl	80061a0 <__aeabi_dmul>
 8003624:	4622      	mov	r2, r4
 8003626:	462b      	mov	r3, r5
 8003628:	f002 fdba 	bl	80061a0 <__aeabi_dmul>
 800362c:	e9d8 23d6 	ldrd	r2, r3, [r8, #856]	; 0x358
 8003630:	e9cd 014c 	strd	r0, r1, [sp, #304]	; 0x130
 8003634:	4650      	mov	r0, sl
 8003636:	4659      	mov	r1, fp
 8003638:	f002 fdb2 	bl	80061a0 <__aeabi_dmul>
 800363c:	4622      	mov	r2, r4
 800363e:	462b      	mov	r3, r5
 8003640:	f002 fdae 	bl	80061a0 <__aeabi_dmul>
 8003644:	e9dd 230c 	ldrd	r2, r3, [sp, #48]	; 0x30
 8003648:	e9cd 014e 	strd	r0, r1, [sp, #312]	; 0x138
 800364c:	4630      	mov	r0, r6
 800364e:	4639      	mov	r1, r7
 8003650:	f002 fda6 	bl	80061a0 <__aeabi_dmul>
 8003654:	e9d8 23d8 	ldrd	r2, r3, [r8, #864]	; 0x360
 8003658:	4604      	mov	r4, r0
 800365a:	460d      	mov	r5, r1
 800365c:	e9dd 0102 	ldrd	r0, r1, [sp, #8]
 8003660:	f002 fd9e 	bl	80061a0 <__aeabi_dmul>
 8003664:	4622      	mov	r2, r4
 8003666:	462b      	mov	r3, r5
 8003668:	f002 fd9a 	bl	80061a0 <__aeabi_dmul>
 800366c:	e9d8 23da 	ldrd	r2, r3, [r8, #872]	; 0x368
 8003670:	e9cd 0150 	strd	r0, r1, [sp, #320]	; 0x140
 8003674:	e9dd 0100 	ldrd	r0, r1, [sp]
 8003678:	f002 fd92 	bl	80061a0 <__aeabi_dmul>
 800367c:	4622      	mov	r2, r4
 800367e:	462b      	mov	r3, r5
 8003680:	f002 fd8e 	bl	80061a0 <__aeabi_dmul>
 8003684:	e9d8 23dc 	ldrd	r2, r3, [r8, #880]	; 0x370
 8003688:	e9cd 0152 	strd	r0, r1, [sp, #328]	; 0x148
 800368c:	4650      	mov	r0, sl
 800368e:	4659      	mov	r1, fp
 8003690:	f002 fd86 	bl	80061a0 <__aeabi_dmul>
 8003694:	4622      	mov	r2, r4
 8003696:	462b      	mov	r3, r5
 8003698:	f002 fd82 	bl	80061a0 <__aeabi_dmul>
 800369c:	e9dd 2304 	ldrd	r2, r3, [sp, #16]
 80036a0:	e9cd 0154 	strd	r0, r1, [sp, #336]	; 0x150
 80036a4:	4630      	mov	r0, r6
 80036a6:	4639      	mov	r1, r7
 80036a8:	f002 fd7a 	bl	80061a0 <__aeabi_dmul>
 80036ac:	e9d8 23de 	ldrd	r2, r3, [r8, #888]	; 0x378
 80036b0:	4606      	mov	r6, r0
 80036b2:	460f      	mov	r7, r1
 80036b4:	e9dd 0102 	ldrd	r0, r1, [sp, #8]
 80036b8:	f002 fd72 	bl	80061a0 <__aeabi_dmul>
 80036bc:	4632      	mov	r2, r6
 80036be:	463b      	mov	r3, r7
 80036c0:	f002 fd6e 	bl	80061a0 <__aeabi_dmul>
 80036c4:	e9cd 0156 	strd	r0, r1, [sp, #344]	; 0x158
 80036c8:	e9d8 23e0 	ldrd	r2, r3, [r8, #896]	; 0x380
 80036cc:	e9dd 0100 	ldrd	r0, r1, [sp]
 80036d0:	f002 fd66 	bl	80061a0 <__aeabi_dmul>
 80036d4:	4632      	mov	r2, r6
 80036d6:	463b      	mov	r3, r7
 80036d8:	f002 fd62 	bl	80061a0 <__aeabi_dmul>
 80036dc:	e9d8 23e2 	ldrd	r2, r3, [r8, #904]	; 0x388
 80036e0:	e9cd 0158 	strd	r0, r1, [sp, #352]	; 0x160
 80036e4:	4650      	mov	r0, sl
 80036e6:	4659      	mov	r1, fp
 80036e8:	f002 fd5a 	bl	80061a0 <__aeabi_dmul>
 80036ec:	4632      	mov	r2, r6
 80036ee:	463b      	mov	r3, r7
 80036f0:	f002 fd56 	bl	80061a0 <__aeabi_dmul>
 80036f4:	e9dd 230e 	ldrd	r2, r3, [sp, #56]	; 0x38
 80036f8:	e9cd 015a 	strd	r0, r1, [sp, #360]	; 0x168
 80036fc:	e9dd 010a 	ldrd	r0, r1, [sp, #40]	; 0x28
 8003700:	f002 fd4e 	bl	80061a0 <__aeabi_dmul>
 8003704:	e9dd 2306 	ldrd	r2, r3, [sp, #24]
 8003708:	4606      	mov	r6, r0
 800370a:	460f      	mov	r7, r1
 800370c:	f002 fd48 	bl	80061a0 <__aeabi_dmul>
 8003710:	e9d8 23e4 	ldrd	r2, r3, [r8, #912]	; 0x390
 8003714:	4604      	mov	r4, r0
 8003716:	460d      	mov	r5, r1
 8003718:	e9dd 0102 	ldrd	r0, r1, [sp, #8]
 800371c:	f002 fd40 	bl	80061a0 <__aeabi_dmul>
 8003720:	4622      	mov	r2, r4
 8003722:	462b      	mov	r3, r5
 8003724:	f002 fd3c 	bl	80061a0 <__aeabi_dmul>
 8003728:	e9d8 23e6 	ldrd	r2, r3, [r8, #920]	; 0x398
 800372c:	e9cd 015c 	strd	r0, r1, [sp, #368]	; 0x170
 8003730:	e9dd 0100 	ldrd	r0, r1, [sp]
 8003734:	f002 fd34 	bl	80061a0 <__aeabi_dmul>
 8003738:	4622      	mov	r2, r4
 800373a:	462b      	mov	r3, r5
 800373c:	f002 fd30 	bl	80061a0 <__aeabi_dmul>
 8003740:	e9d8 23e8 	ldrd	r2, r3, [r8, #928]	; 0x3a0
 8003744:	e9cd 015e 	strd	r0, r1, [sp, #376]	; 0x178
 8003748:	4650      	mov	r0, sl
 800374a:	4659      	mov	r1, fp
 800374c:	f002 fd28 	bl	80061a0 <__aeabi_dmul>
 8003750:	4622      	mov	r2, r4
 8003752:	462b      	mov	r3, r5
 8003754:	f002 fd24 	bl	80061a0 <__aeabi_dmul>
 8003758:	e9dd 230c 	ldrd	r2, r3, [sp, #48]	; 0x30
 800375c:	e9cd 0160 	strd	r0, r1, [sp, #384]	; 0x180
 8003760:	4630      	mov	r0, r6
 8003762:	4639      	mov	r1, r7
 8003764:	f002 fd1c 	bl	80061a0 <__aeabi_dmul>
 8003768:	e9d8 23ea 	ldrd	r2, r3, [r8, #936]	; 0x3a8
 800376c:	4604      	mov	r4, r0
 800376e:	460d      	mov	r5, r1
 8003770:	e9dd 0102 	ldrd	r0, r1, [sp, #8]
 8003774:	f002 fd14 	bl	80061a0 <__aeabi_dmul>
 8003778:	4622      	mov	r2, r4
 800377a:	462b      	mov	r3, r5
 800377c:	f002 fd10 	bl	80061a0 <__aeabi_dmul>
 8003780:	e9d8 23ec 	ldrd	r2, r3, [r8, #944]	; 0x3b0
 8003784:	e9cd 0162 	strd	r0, r1, [sp, #392]	; 0x188
 8003788:	e9dd 0100 	ldrd	r0, r1, [sp]
 800378c:	f002 fd08 	bl	80061a0 <__aeabi_dmul>
 8003790:	4622      	mov	r2, r4
 8003792:	462b      	mov	r3, r5
 8003794:	f002 fd04 	bl	80061a0 <__aeabi_dmul>
 8003798:	e9cd 0164 	strd	r0, r1, [sp, #400]	; 0x190
 800379c:	e9d8 23ee 	ldrd	r2, r3, [r8, #952]	; 0x3b8
 80037a0:	4650      	mov	r0, sl
 80037a2:	4659      	mov	r1, fp
 80037a4:	f002 fcfc 	bl	80061a0 <__aeabi_dmul>
 80037a8:	4622      	mov	r2, r4
 80037aa:	462b      	mov	r3, r5
 80037ac:	f002 fcf8 	bl	80061a0 <__aeabi_dmul>
 80037b0:	e9dd 2304 	ldrd	r2, r3, [sp, #16]
 80037b4:	e9cd 0166 	strd	r0, r1, [sp, #408]	; 0x198
 80037b8:	4630      	mov	r0, r6
 80037ba:	4639      	mov	r1, r7
 80037bc:	f002 fcf0 	bl	80061a0 <__aeabi_dmul>
 80037c0:	e9d8 23f0 	ldrd	r2, r3, [r8, #960]	; 0x3c0
 80037c4:	4606      	mov	r6, r0
 80037c6:	460f      	mov	r7, r1
 80037c8:	e9dd 0102 	ldrd	r0, r1, [sp, #8]
 80037cc:	f002 fce8 	bl	80061a0 <__aeabi_dmul>
 80037d0:	4632      	mov	r2, r6
 80037d2:	463b      	mov	r3, r7
 80037d4:	f002 fce4 	bl	80061a0 <__aeabi_dmul>
 80037d8:	e9d8 23f2 	ldrd	r2, r3, [r8, #968]	; 0x3c8
 80037dc:	e9cd 0168 	strd	r0, r1, [sp, #416]	; 0x1a0
 80037e0:	e9dd 0100 	ldrd	r0, r1, [sp]
 80037e4:	f002 fcdc 	bl	80061a0 <__aeabi_dmul>
 80037e8:	4632      	mov	r2, r6
 80037ea:	463b      	mov	r3, r7
 80037ec:	f002 fcd8 	bl	80061a0 <__aeabi_dmul>
 80037f0:	e9d8 23f4 	ldrd	r2, r3, [r8, #976]	; 0x3d0
 80037f4:	e9cd 016a 	strd	r0, r1, [sp, #424]	; 0x1a8
 80037f8:	4650      	mov	r0, sl
 80037fa:	4659      	mov	r1, fp
 80037fc:	f002 fcd0 	bl	80061a0 <__aeabi_dmul>
 8003800:	4632      	mov	r2, r6
 8003802:	463b      	mov	r3, r7
 8003804:	f002 fccc 	bl	80061a0 <__aeabi_dmul>
 8003808:	e9dd 2310 	ldrd	r2, r3, [sp, #64]	; 0x40
 800380c:	e9cd 016c 	strd	r0, r1, [sp, #432]	; 0x1b0
 8003810:	e9dd 010a 	ldrd	r0, r1, [sp, #40]	; 0x28
 8003814:	f002 fcc4 	bl	80061a0 <__aeabi_dmul>
 8003818:	e9dd 2306 	ldrd	r2, r3, [sp, #24]
 800381c:	4606      	mov	r6, r0
 800381e:	460f      	mov	r7, r1
 8003820:	f002 fcbe 	bl	80061a0 <__aeabi_dmul>
 8003824:	e9d8 23f6 	ldrd	r2, r3, [r8, #984]	; 0x3d8
 8003828:	4604      	mov	r4, r0
 800382a:	460d      	mov	r5, r1
 800382c:	e9dd 0102 	ldrd	r0, r1, [sp, #8]
 8003830:	f002 fcb6 	bl	80061a0 <__aeabi_dmul>
 8003834:	4622      	mov	r2, r4
 8003836:	462b      	mov	r3, r5
 8003838:	f002 fcb2 	bl	80061a0 <__aeabi_dmul>
 800383c:	e9d8 23f8 	ldrd	r2, r3, [r8, #992]	; 0x3e0
 8003840:	e9cd 016e 	strd	r0, r1, [sp, #440]	; 0x1b8
 8003844:	e9dd 0100 	ldrd	r0, r1, [sp]
 8003848:	f002 fcaa 	bl	80061a0 <__aeabi_dmul>
 800384c:	4622      	mov	r2, r4
 800384e:	462b      	mov	r3, r5
 8003850:	f002 fca6 	bl	80061a0 <__aeabi_dmul>
 8003854:	e9d8 23fa 	ldrd	r2, r3, [r8, #1000]	; 0x3e8
 8003858:	e9cd 0170 	strd	r0, r1, [sp, #448]	; 0x1c0
 800385c:	4650      	mov	r0, sl
 800385e:	4659      	mov	r1, fp
 8003860:	f002 fc9e 	bl	80061a0 <__aeabi_dmul>
 8003864:	4622      	mov	r2, r4
 8003866:	462b      	mov	r3, r5
 8003868:	f002 fc9a 	bl	80061a0 <__aeabi_dmul>
 800386c:	e9dd 230c 	ldrd	r2, r3, [sp, #48]	; 0x30
 8003870:	e9cd 0172 	strd	r0, r1, [sp, #456]	; 0x1c8
 8003874:	4630      	mov	r0, r6
 8003876:	4639      	mov	r1, r7
 8003878:	f002 fc92 	bl	80061a0 <__aeabi_dmul>
 800387c:	e9d8 23fc 	ldrd	r2, r3, [r8, #1008]	; 0x3f0
 8003880:	4604      	mov	r4, r0
 8003882:	460d      	mov	r5, r1
 8003884:	e9dd 0102 	ldrd	r0, r1, [sp, #8]
 8003888:	f002 fc8a 	bl	80061a0 <__aeabi_dmul>
 800388c:	4622      	mov	r2, r4
 800388e:	462b      	mov	r3, r5
 8003890:	f002 fc86 	bl	80061a0 <__aeabi_dmul>
 8003894:	e9cd 0174 	strd	r0, r1, [sp, #464]	; 0x1d0
 8003898:	e9d8 23fe 	ldrd	r2, r3, [r8, #1016]	; 0x3f8
 800389c:	e9dd 0100 	ldrd	r0, r1, [sp]
 80038a0:	f002 fc7e 	bl	80061a0 <__aeabi_dmul>
 80038a4:	4622      	mov	r2, r4
 80038a6:	462b      	mov	r3, r5
 80038a8:	f002 fc7a 	bl	80061a0 <__aeabi_dmul>
 80038ac:	f8df 96a0 	ldr.w	r9, [pc, #1696]	; 8003f50 <BalanceFuzzy_step+0x1108>
 80038b0:	f509 6380 	add.w	r3, r9, #1024	; 0x400
 80038b4:	e9cd 0176 	strd	r0, r1, [sp, #472]	; 0x1d8
 80038b8:	e9d3 2300 	ldrd	r2, r3, [r3]
 80038bc:	4650      	mov	r0, sl
 80038be:	4659      	mov	r1, fp
 80038c0:	f002 fc6e 	bl	80061a0 <__aeabi_dmul>
 80038c4:	4622      	mov	r2, r4
 80038c6:	462b      	mov	r3, r5
 80038c8:	f002 fc6a 	bl	80061a0 <__aeabi_dmul>
 80038cc:	e9dd 2304 	ldrd	r2, r3, [sp, #16]
 80038d0:	e9cd 0178 	strd	r0, r1, [sp, #480]	; 0x1e0
 80038d4:	4630      	mov	r0, r6
 80038d6:	4639      	mov	r1, r7
 80038d8:	f002 fc62 	bl	80061a0 <__aeabi_dmul>
 80038dc:	f509 6281 	add.w	r2, r9, #1032	; 0x408
 80038e0:	4606      	mov	r6, r0
 80038e2:	460f      	mov	r7, r1
 80038e4:	e9d2 2300 	ldrd	r2, r3, [r2]
 80038e8:	e9dd 0102 	ldrd	r0, r1, [sp, #8]
 80038ec:	f002 fc58 	bl	80061a0 <__aeabi_dmul>
 80038f0:	4632      	mov	r2, r6
 80038f2:	463b      	mov	r3, r7
 80038f4:	f002 fc54 	bl	80061a0 <__aeabi_dmul>
 80038f8:	f509 6482 	add.w	r4, r9, #1040	; 0x410
 80038fc:	e9d4 2300 	ldrd	r2, r3, [r4]
 8003900:	e9cd 017a 	strd	r0, r1, [sp, #488]	; 0x1e8
 8003904:	e9dd 0100 	ldrd	r0, r1, [sp]
 8003908:	f002 fc4a 	bl	80061a0 <__aeabi_dmul>
 800390c:	4632      	mov	r2, r6
 800390e:	463b      	mov	r3, r7
 8003910:	f002 fc46 	bl	80061a0 <__aeabi_dmul>
 8003914:	f509 6583 	add.w	r5, r9, #1048	; 0x418
 8003918:	e9cd 017c 	strd	r0, r1, [sp, #496]	; 0x1f0
 800391c:	e9d5 2300 	ldrd	r2, r3, [r5]
 8003920:	4650      	mov	r0, sl
 8003922:	4659      	mov	r1, fp
 8003924:	f002 fc3c 	bl	80061a0 <__aeabi_dmul>
 8003928:	4632      	mov	r2, r6
 800392a:	463b      	mov	r3, r7
 800392c:	f002 fc38 	bl	80061a0 <__aeabi_dmul>
 8003930:	2200      	movs	r2, #0
 8003932:	e9cd 017e 	strd	r0, r1, [sp, #504]	; 0x1f8
 8003936:	2300      	movs	r3, #0
 8003938:	e9dd 0108 	ldrd	r0, r1, [sp, #32]
 800393c:	f002 fea2 	bl	8006684 <__aeabi_dcmplt>
 8003940:	b950      	cbnz	r0, 8003958 <BalanceFuzzy_step+0xb10>
 8003942:	e9dd 0108 	ldrd	r0, r1, [sp, #32]
 8003946:	f20f 6300 	addw	r3, pc, #1536	; 0x600
 800394a:	e9d3 2300 	ldrd	r2, r3, [r3]
 800394e:	f002 feb7 	bl	80066c0 <__aeabi_dcmpgt>
 8003952:	2800      	cmp	r0, #0
 8003954:	f000 8646 	beq.w	80045e4 <BalanceFuzzy_step+0x179c>
 8003958:	ed98 5b1e 	vldr	d5, [r8, #120]	; 0x78
 800395c:	ed8d 5b08 	vstr	d5, [sp, #32]
 8003960:	ec51 0b15 	vmov	r0, r1, d5
 8003964:	e9dd 2312 	ldrd	r2, r3, [sp, #72]	; 0x48
 8003968:	f002 fc1a 	bl	80061a0 <__aeabi_dmul>
 800396c:	e9dd 2306 	ldrd	r2, r3, [sp, #24]
 8003970:	f8df 95e0 	ldr.w	r9, [pc, #1504]	; 8003f54 <BalanceFuzzy_step+0x110c>
 8003974:	e9cd 010a 	strd	r0, r1, [sp, #40]	; 0x28
 8003978:	f002 fc12 	bl	80061a0 <__aeabi_dmul>
 800397c:	464e      	mov	r6, r9
 800397e:	e8f6 2302 	ldrd	r2, r3, [r6], #8
 8003982:	4607      	mov	r7, r0
 8003984:	460c      	mov	r4, r1
 8003986:	e9dd 0102 	ldrd	r0, r1, [sp, #8]
 800398a:	f002 fc09 	bl	80061a0 <__aeabi_dmul>
 800398e:	463a      	mov	r2, r7
 8003990:	4623      	mov	r3, r4
 8003992:	f002 fc05 	bl	80061a0 <__aeabi_dmul>
 8003996:	e9d6 2300 	ldrd	r2, r3, [r6]
 800399a:	e9cd 0112 	strd	r0, r1, [sp, #72]	; 0x48
 800399e:	e9dd 0100 	ldrd	r0, r1, [sp]
 80039a2:	f002 fbfd 	bl	80061a0 <__aeabi_dmul>
 80039a6:	463a      	mov	r2, r7
 80039a8:	4623      	mov	r3, r4
 80039aa:	f002 fbf9 	bl	80061a0 <__aeabi_dmul>
 80039ae:	e9d9 2304 	ldrd	r2, r3, [r9, #16]
 80039b2:	e9cd 0180 	strd	r0, r1, [sp, #512]	; 0x200
 80039b6:	4650      	mov	r0, sl
 80039b8:	4659      	mov	r1, fp
 80039ba:	f002 fbf1 	bl	80061a0 <__aeabi_dmul>
 80039be:	463a      	mov	r2, r7
 80039c0:	4623      	mov	r3, r4
 80039c2:	f002 fbed 	bl	80061a0 <__aeabi_dmul>
 80039c6:	e9dd 230c 	ldrd	r2, r3, [sp, #48]	; 0x30
 80039ca:	e9cd 0182 	strd	r0, r1, [sp, #520]	; 0x208
 80039ce:	e9dd 010a 	ldrd	r0, r1, [sp, #40]	; 0x28
 80039d2:	f002 fbe5 	bl	80061a0 <__aeabi_dmul>
 80039d6:	e9d9 2306 	ldrd	r2, r3, [r9, #24]
 80039da:	4606      	mov	r6, r0
 80039dc:	460d      	mov	r5, r1
 80039de:	e9dd 0102 	ldrd	r0, r1, [sp, #8]
 80039e2:	f002 fbdd 	bl	80061a0 <__aeabi_dmul>
 80039e6:	4632      	mov	r2, r6
 80039e8:	462b      	mov	r3, r5
 80039ea:	f002 fbd9 	bl	80061a0 <__aeabi_dmul>
 80039ee:	e9d9 2308 	ldrd	r2, r3, [r9, #32]
 80039f2:	e9cd 0184 	strd	r0, r1, [sp, #528]	; 0x210
 80039f6:	e9dd 0100 	ldrd	r0, r1, [sp]
 80039fa:	f002 fbd1 	bl	80061a0 <__aeabi_dmul>
 80039fe:	4632      	mov	r2, r6
 8003a00:	462b      	mov	r3, r5
 8003a02:	f002 fbcd 	bl	80061a0 <__aeabi_dmul>
 8003a06:	e9d9 230a 	ldrd	r2, r3, [r9, #40]	; 0x28
 8003a0a:	e9cd 0186 	strd	r0, r1, [sp, #536]	; 0x218
 8003a0e:	4650      	mov	r0, sl
 8003a10:	4659      	mov	r1, fp
 8003a12:	f002 fbc5 	bl	80061a0 <__aeabi_dmul>
 8003a16:	4632      	mov	r2, r6
 8003a18:	462b      	mov	r3, r5
 8003a1a:	f002 fbc1 	bl	80061a0 <__aeabi_dmul>
 8003a1e:	e9dd 2304 	ldrd	r2, r3, [sp, #16]
 8003a22:	e9cd 0188 	strd	r0, r1, [sp, #544]	; 0x220
 8003a26:	e9dd 010a 	ldrd	r0, r1, [sp, #40]	; 0x28
 8003a2a:	f002 fbb9 	bl	80061a0 <__aeabi_dmul>
 8003a2e:	e9d9 230c 	ldrd	r2, r3, [r9, #48]	; 0x30
 8003a32:	4607      	mov	r7, r0
 8003a34:	460c      	mov	r4, r1
 8003a36:	e9dd 0102 	ldrd	r0, r1, [sp, #8]
 8003a3a:	f002 fbb1 	bl	80061a0 <__aeabi_dmul>
 8003a3e:	463a      	mov	r2, r7
 8003a40:	4623      	mov	r3, r4
 8003a42:	f002 fbad 	bl	80061a0 <__aeabi_dmul>
 8003a46:	e9cd 010a 	strd	r0, r1, [sp, #40]	; 0x28
 8003a4a:	e9d9 230e 	ldrd	r2, r3, [r9, #56]	; 0x38
 8003a4e:	e9dd 0100 	ldrd	r0, r1, [sp]
 8003a52:	f002 fba5 	bl	80061a0 <__aeabi_dmul>
 8003a56:	463a      	mov	r2, r7
 8003a58:	4623      	mov	r3, r4
 8003a5a:	f002 fba1 	bl	80061a0 <__aeabi_dmul>
 8003a5e:	e9d9 2310 	ldrd	r2, r3, [r9, #64]	; 0x40
 8003a62:	e9cd 018a 	strd	r0, r1, [sp, #552]	; 0x228
 8003a66:	4650      	mov	r0, sl
 8003a68:	4659      	mov	r1, fp
 8003a6a:	f002 fb99 	bl	80061a0 <__aeabi_dmul>
 8003a6e:	463a      	mov	r2, r7
 8003a70:	4623      	mov	r3, r4
 8003a72:	f002 fb95 	bl	80061a0 <__aeabi_dmul>
 8003a76:	e9dd 230e 	ldrd	r2, r3, [sp, #56]	; 0x38
 8003a7a:	e9cd 018c 	strd	r0, r1, [sp, #560]	; 0x230
 8003a7e:	e9dd 0108 	ldrd	r0, r1, [sp, #32]
 8003a82:	f002 fb8d 	bl	80061a0 <__aeabi_dmul>
 8003a86:	e9dd 2306 	ldrd	r2, r3, [sp, #24]
 8003a8a:	4606      	mov	r6, r0
 8003a8c:	460f      	mov	r7, r1
 8003a8e:	f002 fb87 	bl	80061a0 <__aeabi_dmul>
 8003a92:	e9d9 2312 	ldrd	r2, r3, [r9, #72]	; 0x48
 8003a96:	4604      	mov	r4, r0
 8003a98:	460d      	mov	r5, r1
 8003a9a:	e9dd 0102 	ldrd	r0, r1, [sp, #8]
 8003a9e:	f002 fb7f 	bl	80061a0 <__aeabi_dmul>
 8003aa2:	4622      	mov	r2, r4
 8003aa4:	462b      	mov	r3, r5
 8003aa6:	f002 fb7b 	bl	80061a0 <__aeabi_dmul>
 8003aaa:	e9d9 2314 	ldrd	r2, r3, [r9, #80]	; 0x50
 8003aae:	e9cd 010e 	strd	r0, r1, [sp, #56]	; 0x38
 8003ab2:	e9dd 0100 	ldrd	r0, r1, [sp]
 8003ab6:	f002 fb73 	bl	80061a0 <__aeabi_dmul>
 8003aba:	4622      	mov	r2, r4
 8003abc:	462b      	mov	r3, r5
 8003abe:	f002 fb6f 	bl	80061a0 <__aeabi_dmul>
 8003ac2:	e9d9 2316 	ldrd	r2, r3, [r9, #88]	; 0x58
 8003ac6:	e9cd 018e 	strd	r0, r1, [sp, #568]	; 0x238
 8003aca:	4650      	mov	r0, sl
 8003acc:	4659      	mov	r1, fp
 8003ace:	f002 fb67 	bl	80061a0 <__aeabi_dmul>
 8003ad2:	4622      	mov	r2, r4
 8003ad4:	462b      	mov	r3, r5
 8003ad6:	f002 fb63 	bl	80061a0 <__aeabi_dmul>
 8003ada:	e9dd 230c 	ldrd	r2, r3, [sp, #48]	; 0x30
 8003ade:	e9cd 0190 	strd	r0, r1, [sp, #576]	; 0x240
 8003ae2:	4630      	mov	r0, r6
 8003ae4:	4639      	mov	r1, r7
 8003ae6:	f002 fb5b 	bl	80061a0 <__aeabi_dmul>
 8003aea:	e9d9 2318 	ldrd	r2, r3, [r9, #96]	; 0x60
 8003aee:	4604      	mov	r4, r0
 8003af0:	460d      	mov	r5, r1
 8003af2:	e9dd 0102 	ldrd	r0, r1, [sp, #8]
 8003af6:	f002 fb53 	bl	80061a0 <__aeabi_dmul>
 8003afa:	4622      	mov	r2, r4
 8003afc:	462b      	mov	r3, r5
 8003afe:	f002 fb4f 	bl	80061a0 <__aeabi_dmul>
 8003b02:	e9d9 231a 	ldrd	r2, r3, [r9, #104]	; 0x68
 8003b06:	e9cd 0192 	strd	r0, r1, [sp, #584]	; 0x248
 8003b0a:	e9dd 0100 	ldrd	r0, r1, [sp]
 8003b0e:	f002 fb47 	bl	80061a0 <__aeabi_dmul>
 8003b12:	4622      	mov	r2, r4
 8003b14:	462b      	mov	r3, r5
 8003b16:	f002 fb43 	bl	80061a0 <__aeabi_dmul>
 8003b1a:	e9cd 0194 	strd	r0, r1, [sp, #592]	; 0x250
 8003b1e:	e9d9 231c 	ldrd	r2, r3, [r9, #112]	; 0x70
 8003b22:	4650      	mov	r0, sl
 8003b24:	4659      	mov	r1, fp
 8003b26:	f002 fb3b 	bl	80061a0 <__aeabi_dmul>
 8003b2a:	4622      	mov	r2, r4
 8003b2c:	462b      	mov	r3, r5
 8003b2e:	f002 fb37 	bl	80061a0 <__aeabi_dmul>
 8003b32:	e9dd 2304 	ldrd	r2, r3, [sp, #16]
 8003b36:	e9cd 0196 	strd	r0, r1, [sp, #600]	; 0x258
 8003b3a:	4630      	mov	r0, r6
 8003b3c:	4639      	mov	r1, r7
 8003b3e:	f002 fb2f 	bl	80061a0 <__aeabi_dmul>
 8003b42:	e9d9 231e 	ldrd	r2, r3, [r9, #120]	; 0x78
 8003b46:	4606      	mov	r6, r0
 8003b48:	460f      	mov	r7, r1
 8003b4a:	e9dd 0102 	ldrd	r0, r1, [sp, #8]
 8003b4e:	f002 fb27 	bl	80061a0 <__aeabi_dmul>
 8003b52:	4632      	mov	r2, r6
 8003b54:	463b      	mov	r3, r7
 8003b56:	f002 fb23 	bl	80061a0 <__aeabi_dmul>
 8003b5a:	e9d9 2320 	ldrd	r2, r3, [r9, #128]	; 0x80
 8003b5e:	e9cd 0198 	strd	r0, r1, [sp, #608]	; 0x260
 8003b62:	e9dd 0100 	ldrd	r0, r1, [sp]
 8003b66:	f002 fb1b 	bl	80061a0 <__aeabi_dmul>
 8003b6a:	4632      	mov	r2, r6
 8003b6c:	463b      	mov	r3, r7
 8003b6e:	f002 fb17 	bl	80061a0 <__aeabi_dmul>
 8003b72:	e9d9 2322 	ldrd	r2, r3, [r9, #136]	; 0x88
 8003b76:	e9cd 019a 	strd	r0, r1, [sp, #616]	; 0x268
 8003b7a:	4650      	mov	r0, sl
 8003b7c:	4659      	mov	r1, fp
 8003b7e:	f002 fb0f 	bl	80061a0 <__aeabi_dmul>
 8003b82:	4632      	mov	r2, r6
 8003b84:	463b      	mov	r3, r7
 8003b86:	f002 fb0b 	bl	80061a0 <__aeabi_dmul>
 8003b8a:	e9dd 2310 	ldrd	r2, r3, [sp, #64]	; 0x40
 8003b8e:	e9cd 019c 	strd	r0, r1, [sp, #624]	; 0x270
 8003b92:	e9dd 0108 	ldrd	r0, r1, [sp, #32]
 8003b96:	f002 fb03 	bl	80061a0 <__aeabi_dmul>
 8003b9a:	e9dd 2306 	ldrd	r2, r3, [sp, #24]
 8003b9e:	4606      	mov	r6, r0
 8003ba0:	460f      	mov	r7, r1
 8003ba2:	f002 fafd 	bl	80061a0 <__aeabi_dmul>
 8003ba6:	e9d9 2324 	ldrd	r2, r3, [r9, #144]	; 0x90
 8003baa:	4604      	mov	r4, r0
 8003bac:	460d      	mov	r5, r1
 8003bae:	e9dd 0102 	ldrd	r0, r1, [sp, #8]
 8003bb2:	f002 faf5 	bl	80061a0 <__aeabi_dmul>
 8003bb6:	4622      	mov	r2, r4
 8003bb8:	462b      	mov	r3, r5
 8003bba:	f002 faf1 	bl	80061a0 <__aeabi_dmul>
 8003bbe:	e9d9 2326 	ldrd	r2, r3, [r9, #152]	; 0x98
 8003bc2:	e9cd 0108 	strd	r0, r1, [sp, #32]
 8003bc6:	e9dd 0100 	ldrd	r0, r1, [sp]
 8003bca:	f002 fae9 	bl	80061a0 <__aeabi_dmul>
 8003bce:	4622      	mov	r2, r4
 8003bd0:	462b      	mov	r3, r5
 8003bd2:	f002 fae5 	bl	80061a0 <__aeabi_dmul>
 8003bd6:	e9d9 2328 	ldrd	r2, r3, [r9, #160]	; 0xa0
 8003bda:	e9cd 0110 	strd	r0, r1, [sp, #64]	; 0x40
 8003bde:	4650      	mov	r0, sl
 8003be0:	4659      	mov	r1, fp
 8003be2:	f002 fadd 	bl	80061a0 <__aeabi_dmul>
 8003be6:	4622      	mov	r2, r4
 8003be8:	462b      	mov	r3, r5
 8003bea:	f002 fad9 	bl	80061a0 <__aeabi_dmul>
 8003bee:	e9dd 230c 	ldrd	r2, r3, [sp, #48]	; 0x30
 8003bf2:	e9cd 019e 	strd	r0, r1, [sp, #632]	; 0x278
 8003bf6:	4630      	mov	r0, r6
 8003bf8:	4639      	mov	r1, r7
 8003bfa:	f002 fad1 	bl	80061a0 <__aeabi_dmul>
 8003bfe:	e9d9 232a 	ldrd	r2, r3, [r9, #168]	; 0xa8
 8003c02:	4604      	mov	r4, r0
 8003c04:	460d      	mov	r5, r1
 8003c06:	e9dd 0102 	ldrd	r0, r1, [sp, #8]
 8003c0a:	f002 fac9 	bl	80061a0 <__aeabi_dmul>
 8003c0e:	4622      	mov	r2, r4
 8003c10:	462b      	mov	r3, r5
 8003c12:	f002 fac5 	bl	80061a0 <__aeabi_dmul>
 8003c16:	e9cd 010c 	strd	r0, r1, [sp, #48]	; 0x30
 8003c1a:	e9d9 232c 	ldrd	r2, r3, [r9, #176]	; 0xb0
 8003c1e:	e9dd 0100 	ldrd	r0, r1, [sp]
 8003c22:	f002 fabd 	bl	80061a0 <__aeabi_dmul>
 8003c26:	4622      	mov	r2, r4
 8003c28:	462b      	mov	r3, r5
 8003c2a:	f002 fab9 	bl	80061a0 <__aeabi_dmul>
 8003c2e:	e9d9 232e 	ldrd	r2, r3, [r9, #184]	; 0xb8
 8003c32:	e9cd 01a0 	strd	r0, r1, [sp, #640]	; 0x280
 8003c36:	4650      	mov	r0, sl
 8003c38:	4659      	mov	r1, fp
 8003c3a:	f002 fab1 	bl	80061a0 <__aeabi_dmul>
 8003c3e:	4622      	mov	r2, r4
 8003c40:	462b      	mov	r3, r5
 8003c42:	f002 faad 	bl	80061a0 <__aeabi_dmul>
 8003c46:	e9dd 2304 	ldrd	r2, r3, [sp, #16]
 8003c4a:	e9cd 01a2 	strd	r0, r1, [sp, #648]	; 0x288
 8003c4e:	4630      	mov	r0, r6
 8003c50:	4639      	mov	r1, r7
 8003c52:	f002 faa5 	bl	80061a0 <__aeabi_dmul>
 8003c56:	e9d9 2330 	ldrd	r2, r3, [r9, #192]	; 0xc0
 8003c5a:	4606      	mov	r6, r0
 8003c5c:	460f      	mov	r7, r1
 8003c5e:	e9dd 0102 	ldrd	r0, r1, [sp, #8]
 8003c62:	f002 fa9d 	bl	80061a0 <__aeabi_dmul>
 8003c66:	4632      	mov	r2, r6
 8003c68:	463b      	mov	r3, r7
 8003c6a:	f002 fa99 	bl	80061a0 <__aeabi_dmul>
 8003c6e:	e9d9 2332 	ldrd	r2, r3, [r9, #200]	; 0xc8
 8003c72:	e9cd 01a4 	strd	r0, r1, [sp, #656]	; 0x290
 8003c76:	e9dd 0100 	ldrd	r0, r1, [sp]
 8003c7a:	f002 fa91 	bl	80061a0 <__aeabi_dmul>
 8003c7e:	4632      	mov	r2, r6
 8003c80:	463b      	mov	r3, r7
 8003c82:	f002 fa8d 	bl	80061a0 <__aeabi_dmul>
 8003c86:	e9d9 2334 	ldrd	r2, r3, [r9, #208]	; 0xd0
 8003c8a:	e9cd 01a6 	strd	r0, r1, [sp, #664]	; 0x298
 8003c8e:	4650      	mov	r0, sl
 8003c90:	4659      	mov	r1, fp
 8003c92:	f002 fa85 	bl	80061a0 <__aeabi_dmul>
 8003c96:	4632      	mov	r2, r6
 8003c98:	463b      	mov	r3, r7
 8003c9a:	f002 fa81 	bl	80061a0 <__aeabi_dmul>
 8003c9e:	e9dd 2316 	ldrd	r2, r3, [sp, #88]	; 0x58
 8003ca2:	e9cd 01a8 	strd	r0, r1, [sp, #672]	; 0x2a0
 8003ca6:	e9dd 01aa 	ldrd	r0, r1, [sp, #680]	; 0x2a8
 8003caa:	f002 f8c7 	bl	8005e3c <__adddf3>
 8003cae:	e9dd 2318 	ldrd	r2, r3, [sp, #96]	; 0x60
 8003cb2:	f002 f8c3 	bl	8005e3c <__adddf3>
 8003cb6:	e9dd 231a 	ldrd	r2, r3, [sp, #104]	; 0x68
 8003cba:	f002 f8bf 	bl	8005e3c <__adddf3>
 8003cbe:	e9dd 231c 	ldrd	r2, r3, [sp, #112]	; 0x70
 8003cc2:	f002 f8bb 	bl	8005e3c <__adddf3>
 8003cc6:	e9dd 231e 	ldrd	r2, r3, [sp, #120]	; 0x78
 8003cca:	f002 f8b7 	bl	8005e3c <__adddf3>
 8003cce:	e9dd 2320 	ldrd	r2, r3, [sp, #128]	; 0x80
 8003cd2:	f002 f8b3 	bl	8005e3c <__adddf3>
 8003cd6:	e9dd 2322 	ldrd	r2, r3, [sp, #136]	; 0x88
 8003cda:	f002 f8af 	bl	8005e3c <__adddf3>
 8003cde:	e9dd 2324 	ldrd	r2, r3, [sp, #144]	; 0x90
 8003ce2:	f002 f8ab 	bl	8005e3c <__adddf3>
 8003ce6:	e9dd 2326 	ldrd	r2, r3, [sp, #152]	; 0x98
 8003cea:	f002 f8a7 	bl	8005e3c <__adddf3>
 8003cee:	e9dd 2328 	ldrd	r2, r3, [sp, #160]	; 0xa0
 8003cf2:	f002 f8a3 	bl	8005e3c <__adddf3>
 8003cf6:	e9dd 232a 	ldrd	r2, r3, [sp, #168]	; 0xa8
 8003cfa:	f002 f89f 	bl	8005e3c <__adddf3>
 8003cfe:	e9dd 232c 	ldrd	r2, r3, [sp, #176]	; 0xb0
 8003d02:	f002 f89b 	bl	8005e3c <__adddf3>
 8003d06:	e9dd 232e 	ldrd	r2, r3, [sp, #184]	; 0xb8
 8003d0a:	f002 f897 	bl	8005e3c <__adddf3>
 8003d0e:	e9dd 2330 	ldrd	r2, r3, [sp, #192]	; 0xc0
 8003d12:	f002 f893 	bl	8005e3c <__adddf3>
 8003d16:	e9dd 2332 	ldrd	r2, r3, [sp, #200]	; 0xc8
 8003d1a:	f002 f88f 	bl	8005e3c <__adddf3>
 8003d1e:	e9dd 2334 	ldrd	r2, r3, [sp, #208]	; 0xd0
 8003d22:	f002 f88b 	bl	8005e3c <__adddf3>
 8003d26:	e9dd 2336 	ldrd	r2, r3, [sp, #216]	; 0xd8
 8003d2a:	f002 f887 	bl	8005e3c <__adddf3>
 8003d2e:	e9dd 2338 	ldrd	r2, r3, [sp, #224]	; 0xe0
 8003d32:	f002 f883 	bl	8005e3c <__adddf3>
 8003d36:	e9dd 233a 	ldrd	r2, r3, [sp, #232]	; 0xe8
 8003d3a:	f002 f87f 	bl	8005e3c <__adddf3>
 8003d3e:	e9dd 233c 	ldrd	r2, r3, [sp, #240]	; 0xf0
 8003d42:	f002 f87b 	bl	8005e3c <__adddf3>
 8003d46:	e9dd 233e 	ldrd	r2, r3, [sp, #248]	; 0xf8
 8003d4a:	f002 f877 	bl	8005e3c <__adddf3>
 8003d4e:	e9dd 2340 	ldrd	r2, r3, [sp, #256]	; 0x100
 8003d52:	f002 f873 	bl	8005e3c <__adddf3>
 8003d56:	e9dd 2342 	ldrd	r2, r3, [sp, #264]	; 0x108
 8003d5a:	f002 f86f 	bl	8005e3c <__adddf3>
 8003d5e:	e9dd 2344 	ldrd	r2, r3, [sp, #272]	; 0x110
 8003d62:	f002 f86b 	bl	8005e3c <__adddf3>
 8003d66:	e9dd 2346 	ldrd	r2, r3, [sp, #280]	; 0x118
 8003d6a:	f002 f867 	bl	8005e3c <__adddf3>
 8003d6e:	e9dd 2348 	ldrd	r2, r3, [sp, #288]	; 0x120
 8003d72:	f002 f863 	bl	8005e3c <__adddf3>
 8003d76:	e9dd 234a 	ldrd	r2, r3, [sp, #296]	; 0x128
 8003d7a:	f002 f85f 	bl	8005e3c <__adddf3>
 8003d7e:	e9dd 234c 	ldrd	r2, r3, [sp, #304]	; 0x130
 8003d82:	f002 f85b 	bl	8005e3c <__adddf3>
 8003d86:	e9dd 234e 	ldrd	r2, r3, [sp, #312]	; 0x138
 8003d8a:	f002 f857 	bl	8005e3c <__adddf3>
 8003d8e:	e9dd 2350 	ldrd	r2, r3, [sp, #320]	; 0x140
 8003d92:	f002 f853 	bl	8005e3c <__adddf3>
 8003d96:	e9dd 2352 	ldrd	r2, r3, [sp, #328]	; 0x148
 8003d9a:	f002 f84f 	bl	8005e3c <__adddf3>
 8003d9e:	e9dd 2354 	ldrd	r2, r3, [sp, #336]	; 0x150
 8003da2:	f002 f84b 	bl	8005e3c <__adddf3>
 8003da6:	e9dd 2356 	ldrd	r2, r3, [sp, #344]	; 0x158
 8003daa:	f002 f847 	bl	8005e3c <__adddf3>
 8003dae:	e9dd 2358 	ldrd	r2, r3, [sp, #352]	; 0x160
 8003db2:	f002 f843 	bl	8005e3c <__adddf3>
 8003db6:	e9dd 235a 	ldrd	r2, r3, [sp, #360]	; 0x168
 8003dba:	f002 f83f 	bl	8005e3c <__adddf3>
 8003dbe:	e9dd 235c 	ldrd	r2, r3, [sp, #368]	; 0x170
 8003dc2:	f002 f83b 	bl	8005e3c <__adddf3>
 8003dc6:	e9dd 235e 	ldrd	r2, r3, [sp, #376]	; 0x178
 8003dca:	f002 f837 	bl	8005e3c <__adddf3>
 8003dce:	e9dd 2360 	ldrd	r2, r3, [sp, #384]	; 0x180
 8003dd2:	f002 f833 	bl	8005e3c <__adddf3>
 8003dd6:	e9dd 2362 	ldrd	r2, r3, [sp, #392]	; 0x188
 8003dda:	f002 f82f 	bl	8005e3c <__adddf3>
 8003dde:	e9dd 2364 	ldrd	r2, r3, [sp, #400]	; 0x190
 8003de2:	f002 f82b 	bl	8005e3c <__adddf3>
 8003de6:	e9dd 2366 	ldrd	r2, r3, [sp, #408]	; 0x198
 8003dea:	f002 f827 	bl	8005e3c <__adddf3>
 8003dee:	e9dd 2368 	ldrd	r2, r3, [sp, #416]	; 0x1a0
 8003df2:	f002 f823 	bl	8005e3c <__adddf3>
 8003df6:	e9dd 236a 	ldrd	r2, r3, [sp, #424]	; 0x1a8
 8003dfa:	f002 f81f 	bl	8005e3c <__adddf3>
 8003dfe:	e9dd 236c 	ldrd	r2, r3, [sp, #432]	; 0x1b0
 8003e02:	f002 f81b 	bl	8005e3c <__adddf3>
 8003e06:	e9dd 236e 	ldrd	r2, r3, [sp, #440]	; 0x1b8
 8003e0a:	f002 f817 	bl	8005e3c <__adddf3>
 8003e0e:	e9dd 2370 	ldrd	r2, r3, [sp, #448]	; 0x1c0
 8003e12:	f002 f813 	bl	8005e3c <__adddf3>
 8003e16:	e9dd 2372 	ldrd	r2, r3, [sp, #456]	; 0x1c8
 8003e1a:	f002 f80f 	bl	8005e3c <__adddf3>
 8003e1e:	e9dd 2374 	ldrd	r2, r3, [sp, #464]	; 0x1d0
 8003e22:	f002 f80b 	bl	8005e3c <__adddf3>
 8003e26:	e9dd 2376 	ldrd	r2, r3, [sp, #472]	; 0x1d8
 8003e2a:	f002 f807 	bl	8005e3c <__adddf3>
 8003e2e:	e9dd 2378 	ldrd	r2, r3, [sp, #480]	; 0x1e0
 8003e32:	f002 f803 	bl	8005e3c <__adddf3>
 8003e36:	e9dd 237a 	ldrd	r2, r3, [sp, #488]	; 0x1e8
 8003e3a:	f001 ffff 	bl	8005e3c <__adddf3>
 8003e3e:	e9dd 237c 	ldrd	r2, r3, [sp, #496]	; 0x1f0
 8003e42:	f001 fffb 	bl	8005e3c <__adddf3>
 8003e46:	e9dd 237e 	ldrd	r2, r3, [sp, #504]	; 0x1f8
 8003e4a:	f001 fff7 	bl	8005e3c <__adddf3>
 8003e4e:	e9dd 2312 	ldrd	r2, r3, [sp, #72]	; 0x48
 8003e52:	f001 fff3 	bl	8005e3c <__adddf3>
 8003e56:	e9dd 2380 	ldrd	r2, r3, [sp, #512]	; 0x200
 8003e5a:	f001 ffef 	bl	8005e3c <__adddf3>
 8003e5e:	e9dd 2382 	ldrd	r2, r3, [sp, #520]	; 0x208
 8003e62:	f001 ffeb 	bl	8005e3c <__adddf3>
 8003e66:	e9dd 2384 	ldrd	r2, r3, [sp, #528]	; 0x210
 8003e6a:	f001 ffe7 	bl	8005e3c <__adddf3>
 8003e6e:	e9dd 2386 	ldrd	r2, r3, [sp, #536]	; 0x218
 8003e72:	f001 ffe3 	bl	8005e3c <__adddf3>
 8003e76:	e9dd 2388 	ldrd	r2, r3, [sp, #544]	; 0x220
 8003e7a:	f001 ffdf 	bl	8005e3c <__adddf3>
 8003e7e:	e9dd 230a 	ldrd	r2, r3, [sp, #40]	; 0x28
 8003e82:	f001 ffdb 	bl	8005e3c <__adddf3>
 8003e86:	e9dd 238a 	ldrd	r2, r3, [sp, #552]	; 0x228
 8003e8a:	f001 ffd7 	bl	8005e3c <__adddf3>
 8003e8e:	e9dd 238c 	ldrd	r2, r3, [sp, #560]	; 0x230
 8003e92:	f001 ffd3 	bl	8005e3c <__adddf3>
 8003e96:	e9dd 230e 	ldrd	r2, r3, [sp, #56]	; 0x38
 8003e9a:	f001 ffcf 	bl	8005e3c <__adddf3>
 8003e9e:	e9dd 238e 	ldrd	r2, r3, [sp, #568]	; 0x238
 8003ea2:	f001 ffcb 	bl	8005e3c <__adddf3>
 8003ea6:	e9dd 2390 	ldrd	r2, r3, [sp, #576]	; 0x240
 8003eaa:	f001 ffc7 	bl	8005e3c <__adddf3>
 8003eae:	e9dd 2392 	ldrd	r2, r3, [sp, #584]	; 0x248
 8003eb2:	f001 ffc3 	bl	8005e3c <__adddf3>
 8003eb6:	e9dd 2394 	ldrd	r2, r3, [sp, #592]	; 0x250
 8003eba:	f001 ffbf 	bl	8005e3c <__adddf3>
 8003ebe:	e9dd 2396 	ldrd	r2, r3, [sp, #600]	; 0x258
 8003ec2:	f001 ffbb 	bl	8005e3c <__adddf3>
 8003ec6:	e9dd 2398 	ldrd	r2, r3, [sp, #608]	; 0x260
 8003eca:	f001 ffb7 	bl	8005e3c <__adddf3>
 8003ece:	e9dd 239a 	ldrd	r2, r3, [sp, #616]	; 0x268
 8003ed2:	f001 ffb3 	bl	8005e3c <__adddf3>
 8003ed6:	e9dd 239c 	ldrd	r2, r3, [sp, #624]	; 0x270
 8003eda:	f001 ffaf 	bl	8005e3c <__adddf3>
 8003ede:	e9dd 2308 	ldrd	r2, r3, [sp, #32]
 8003ee2:	f001 ffab 	bl	8005e3c <__adddf3>
 8003ee6:	e9dd 2310 	ldrd	r2, r3, [sp, #64]	; 0x40
 8003eea:	f001 ffa7 	bl	8005e3c <__adddf3>
 8003eee:	e9dd 239e 	ldrd	r2, r3, [sp, #632]	; 0x278
 8003ef2:	f001 ffa3 	bl	8005e3c <__adddf3>
 8003ef6:	e9dd 230c 	ldrd	r2, r3, [sp, #48]	; 0x30
 8003efa:	f001 ff9f 	bl	8005e3c <__adddf3>
 8003efe:	e9dd 23a0 	ldrd	r2, r3, [sp, #640]	; 0x280
 8003f02:	f001 ff9b 	bl	8005e3c <__adddf3>
 8003f06:	e9dd 23a2 	ldrd	r2, r3, [sp, #648]	; 0x288
 8003f0a:	f001 ff97 	bl	8005e3c <__adddf3>
 8003f0e:	e9dd 23a4 	ldrd	r2, r3, [sp, #656]	; 0x290
 8003f12:	f001 ff93 	bl	8005e3c <__adddf3>
 8003f16:	e9dd 23a6 	ldrd	r2, r3, [sp, #664]	; 0x298
 8003f1a:	f001 ff8f 	bl	8005e3c <__adddf3>
 8003f1e:	e9dd 23a8 	ldrd	r2, r3, [sp, #672]	; 0x2a0
 8003f22:	f001 ff8b 	bl	8005e3c <__adddf3>
 8003f26:	e9cd 01ac 	strd	r0, r1, [sp, #688]	; 0x2b0
 8003f2a:	e9d9 2336 	ldrd	r2, r3, [r9, #216]	; 0xd8
 8003f2e:	f002 fbc7 	bl	80066c0 <__aeabi_dcmpgt>
 8003f32:	2800      	cmp	r0, #0
 8003f34:	f000 8353 	beq.w	80045de <BalanceFuzzy_step+0x1796>
 8003f38:	2100      	movs	r1, #0
 8003f3a:	2000      	movs	r0, #0
 8003f3c:	f6c3 71f0 	movt	r1, #16368	; 0x3ff0
 8003f40:	e00a      	b.n	8003f58 <BalanceFuzzy_step+0x1110>
 8003f42:	bf00      	nop
 8003f44:	f3af 8000 	nop.w
 8003f48:	147ae148 	.word	0x147ae148
 8003f4c:	401747ae 	.word	0x401747ae
 8003f50:	20000028 	.word	0x20000028
 8003f54:	20000448 	.word	0x20000448
 8003f58:	f240 0228 	movw	r2, #40	; 0x28
 8003f5c:	f2c2 0200 	movt	r2, #8192	; 0x2000
 8003f60:	f502 63a0 	add.w	r3, r2, #1280	; 0x500
 8003f64:	e9d3 2300 	ldrd	r2, r3, [r3]
 8003f68:	f002 fba0 	bl	80066ac <__aeabi_dcmpge>
 8003f6c:	2800      	cmp	r0, #0
 8003f6e:	f000 832f 	beq.w	80045d0 <BalanceFuzzy_step+0x1788>
 8003f72:	f240 0028 	movw	r0, #40	; 0x28
 8003f76:	f2c2 0000 	movt	r0, #8192	; 0x2000
 8003f7a:	ed90 6b0e 	vldr	d6, [r0, #56]	; 0x38
 8003f7e:	e9dd 0116 	ldrd	r0, r1, [sp, #88]	; 0x58
 8003f82:	ec53 2b16 	vmov	r2, r3, d6
 8003f86:	ed8d 6b04 	vstr	d6, [sp, #16]
 8003f8a:	f002 f909 	bl	80061a0 <__aeabi_dmul>
 8003f8e:	f50d 69a8 	add.w	r9, sp, #1344	; 0x540
 8003f92:	4604      	mov	r4, r0
 8003f94:	460d      	mov	r5, r1
 8003f96:	f240 0628 	movw	r6, #40	; 0x28
 8003f9a:	e969 45a2 	strd	r4, r5, [r9, #-648]!	; 0x288
 8003f9e:	e9dd 2304 	ldrd	r2, r3, [sp, #16]
 8003fa2:	e9dd 01aa 	ldrd	r0, r1, [sp, #680]	; 0x2a8
 8003fa6:	f2c2 0600 	movt	r6, #8192	; 0x2000
 8003faa:	f002 f8f9 	bl	80061a0 <__aeabi_dmul>
 8003fae:	ed96 7b0c 	vldr	d7, [r6, #48]	; 0x30
 8003fb2:	e9c9 0102 	strd	r0, r1, [r9, #8]
 8003fb6:	ec53 2b17 	vmov	r2, r3, d7
 8003fba:	e9dd 0118 	ldrd	r0, r1, [sp, #96]	; 0x60
 8003fbe:	ed8d 7b00 	vstr	d7, [sp]
 8003fc2:	f002 f8ed 	bl	80061a0 <__aeabi_dmul>
 8003fc6:	e9dd 2304 	ldrd	r2, r3, [sp, #16]
 8003fca:	e9c9 0104 	strd	r0, r1, [r9, #16]
 8003fce:	e9dd 011a 	ldrd	r0, r1, [sp, #104]	; 0x68
 8003fd2:	f002 f8e5 	bl	80061a0 <__aeabi_dmul>
 8003fd6:	f240 0728 	movw	r7, #40	; 0x28
 8003fda:	e9dd 2300 	ldrd	r2, r3, [sp]
 8003fde:	e9c9 0106 	strd	r0, r1, [r9, #24]
 8003fe2:	f2c2 0700 	movt	r7, #8192	; 0x2000
 8003fe6:	e9dd 011c 	ldrd	r0, r1, [sp, #112]	; 0x70
 8003fea:	f002 f8d9 	bl	80061a0 <__aeabi_dmul>
 8003fee:	ed97 0b0a 	vldr	d0, [r7, #40]	; 0x28
 8003ff2:	e9c9 0108 	strd	r0, r1, [r9, #32]
 8003ff6:	ec53 2b10 	vmov	r2, r3, d0
 8003ffa:	e9dd 011e 	ldrd	r0, r1, [sp, #120]	; 0x78
 8003ffe:	ed8d 0b02 	vstr	d0, [sp, #8]
 8004002:	f002 f8cd 	bl	80061a0 <__aeabi_dmul>
 8004006:	e9dd 2300 	ldrd	r2, r3, [sp]
 800400a:	e9c9 010a 	strd	r0, r1, [r9, #40]	; 0x28
 800400e:	e9dd 0120 	ldrd	r0, r1, [sp, #128]	; 0x80
 8004012:	f002 f8c5 	bl	80061a0 <__aeabi_dmul>
 8004016:	e9dd 2302 	ldrd	r2, r3, [sp, #8]
 800401a:	e9c9 010c 	strd	r0, r1, [r9, #48]	; 0x30
 800401e:	e9dd 0122 	ldrd	r0, r1, [sp, #136]	; 0x88
 8004022:	f002 f8bd 	bl	80061a0 <__aeabi_dmul>
 8004026:	f240 0228 	movw	r2, #40	; 0x28
 800402a:	f2c2 0200 	movt	r2, #8192	; 0x2000
 800402e:	e9d2 6708 	ldrd	r6, r7, [r2, #32]
 8004032:	e9c9 010e 	strd	r0, r1, [r9, #56]	; 0x38
 8004036:	4632      	mov	r2, r6
 8004038:	463b      	mov	r3, r7
 800403a:	e9dd 0124 	ldrd	r0, r1, [sp, #144]	; 0x90
 800403e:	f002 f8af 	bl	80061a0 <__aeabi_dmul>
 8004042:	e9dd 2304 	ldrd	r2, r3, [sp, #16]
 8004046:	e9c9 0110 	strd	r0, r1, [r9, #64]	; 0x40
 800404a:	e9dd 0126 	ldrd	r0, r1, [sp, #152]	; 0x98
 800404e:	f002 f8a7 	bl	80061a0 <__aeabi_dmul>
 8004052:	e9dd 2300 	ldrd	r2, r3, [sp]
 8004056:	e9c9 0112 	strd	r0, r1, [r9, #72]	; 0x48
 800405a:	e9dd 0128 	ldrd	r0, r1, [sp, #160]	; 0xa0
 800405e:	f002 f89f 	bl	80061a0 <__aeabi_dmul>
 8004062:	e9dd 2302 	ldrd	r2, r3, [sp, #8]
 8004066:	e9c9 0114 	strd	r0, r1, [r9, #80]	; 0x50
 800406a:	e9dd 012a 	ldrd	r0, r1, [sp, #168]	; 0xa8
 800406e:	f002 f897 	bl	80061a0 <__aeabi_dmul>
 8004072:	e9dd 2300 	ldrd	r2, r3, [sp]
 8004076:	e9c9 0116 	strd	r0, r1, [r9, #88]	; 0x58
 800407a:	e9dd 012c 	ldrd	r0, r1, [sp, #176]	; 0xb0
 800407e:	f002 f88f 	bl	80061a0 <__aeabi_dmul>
 8004082:	e9dd 2302 	ldrd	r2, r3, [sp, #8]
 8004086:	e9c9 0118 	strd	r0, r1, [r9, #96]	; 0x60
 800408a:	e9dd 012e 	ldrd	r0, r1, [sp, #184]	; 0xb8
 800408e:	f002 f887 	bl	80061a0 <__aeabi_dmul>
 8004092:	4632      	mov	r2, r6
 8004094:	463b      	mov	r3, r7
 8004096:	e9c9 011a 	strd	r0, r1, [r9, #104]	; 0x68
 800409a:	e9dd 0130 	ldrd	r0, r1, [sp, #192]	; 0xc0
 800409e:	f002 f87f 	bl	80061a0 <__aeabi_dmul>
 80040a2:	e9dd 2302 	ldrd	r2, r3, [sp, #8]
 80040a6:	e9c9 011c 	strd	r0, r1, [r9, #112]	; 0x70
 80040aa:	e9dd 0132 	ldrd	r0, r1, [sp, #200]	; 0xc8
 80040ae:	f002 f877 	bl	80061a0 <__aeabi_dmul>
 80040b2:	4632      	mov	r2, r6
 80040b4:	463b      	mov	r3, r7
 80040b6:	e9c9 011e 	strd	r0, r1, [r9, #120]	; 0x78
 80040ba:	e9dd 0134 	ldrd	r0, r1, [sp, #208]	; 0xd0
 80040be:	f002 f86f 	bl	80061a0 <__aeabi_dmul>
 80040c2:	f240 0e28 	movw	lr, #40	; 0x28
 80040c6:	f2c2 0e00 	movt	lr, #8192	; 0x2000
 80040ca:	e9de ab06 	ldrd	sl, fp, [lr, #24]
 80040ce:	e9c9 0120 	strd	r0, r1, [r9, #128]	; 0x80
 80040d2:	4652      	mov	r2, sl
 80040d4:	465b      	mov	r3, fp
 80040d6:	e9dd 0136 	ldrd	r0, r1, [sp, #216]	; 0xd8
 80040da:	f002 f861 	bl	80061a0 <__aeabi_dmul>
 80040de:	e9dd 2300 	ldrd	r2, r3, [sp]
 80040e2:	e9c9 0122 	strd	r0, r1, [r9, #136]	; 0x88
 80040e6:	e9dd 0138 	ldrd	r0, r1, [sp, #224]	; 0xe0
 80040ea:	f002 f859 	bl	80061a0 <__aeabi_dmul>
 80040ee:	e9dd 2302 	ldrd	r2, r3, [sp, #8]
 80040f2:	e9c9 0124 	strd	r0, r1, [r9, #144]	; 0x90
 80040f6:	e9dd 013a 	ldrd	r0, r1, [sp, #232]	; 0xe8
 80040fa:	f002 f851 	bl	80061a0 <__aeabi_dmul>
 80040fe:	4632      	mov	r2, r6
 8004100:	463b      	mov	r3, r7
 8004102:	e9c9 0126 	strd	r0, r1, [r9, #152]	; 0x98
 8004106:	e9dd 013c 	ldrd	r0, r1, [sp, #240]	; 0xf0
 800410a:	f002 f849 	bl	80061a0 <__aeabi_dmul>
 800410e:	e9dd 2302 	ldrd	r2, r3, [sp, #8]
 8004112:	e9c9 0128 	strd	r0, r1, [r9, #160]	; 0xa0
 8004116:	e9dd 013e 	ldrd	r0, r1, [sp, #248]	; 0xf8
 800411a:	f002 f841 	bl	80061a0 <__aeabi_dmul>
 800411e:	4632      	mov	r2, r6
 8004120:	463b      	mov	r3, r7
 8004122:	e9c9 012a 	strd	r0, r1, [r9, #168]	; 0xa8
 8004126:	e9dd 0140 	ldrd	r0, r1, [sp, #256]	; 0x100
 800412a:	f002 f839 	bl	80061a0 <__aeabi_dmul>
 800412e:	4652      	mov	r2, sl
 8004130:	465b      	mov	r3, fp
 8004132:	e9c9 012c 	strd	r0, r1, [r9, #176]	; 0xb0
 8004136:	e9dd 0142 	ldrd	r0, r1, [sp, #264]	; 0x108
 800413a:	f002 f831 	bl	80061a0 <__aeabi_dmul>
 800413e:	4632      	mov	r2, r6
 8004140:	463b      	mov	r3, r7
 8004142:	e9c9 012e 	strd	r0, r1, [r9, #184]	; 0xb8
 8004146:	e9dd 0144 	ldrd	r0, r1, [sp, #272]	; 0x110
 800414a:	f002 f829 	bl	80061a0 <__aeabi_dmul>
 800414e:	4652      	mov	r2, sl
 8004150:	465b      	mov	r3, fp
 8004152:	e9c9 0130 	strd	r0, r1, [r9, #192]	; 0xc0
 8004156:	e9dd 0146 	ldrd	r0, r1, [sp, #280]	; 0x118
 800415a:	f002 f821 	bl	80061a0 <__aeabi_dmul>
 800415e:	f240 0328 	movw	r3, #40	; 0x28
 8004162:	f2c2 0300 	movt	r3, #8192	; 0x2000
 8004166:	ed93 1b04 	vldr	d1, [r3, #16]
 800416a:	e9c9 0132 	strd	r0, r1, [r9, #200]	; 0xc8
 800416e:	ec53 2b11 	vmov	r2, r3, d1
 8004172:	e9dd 0148 	ldrd	r0, r1, [sp, #288]	; 0x120
 8004176:	ed8d 1b06 	vstr	d1, [sp, #24]
 800417a:	f002 f811 	bl	80061a0 <__aeabi_dmul>
 800417e:	e9dd 2304 	ldrd	r2, r3, [sp, #16]
 8004182:	e9c9 0134 	strd	r0, r1, [r9, #208]	; 0xd0
 8004186:	e9dd 014a 	ldrd	r0, r1, [sp, #296]	; 0x128
 800418a:	f002 f809 	bl	80061a0 <__aeabi_dmul>
 800418e:	e9dd 2300 	ldrd	r2, r3, [sp]
 8004192:	e9c9 0136 	strd	r0, r1, [r9, #216]	; 0xd8
 8004196:	e9dd 014c 	ldrd	r0, r1, [sp, #304]	; 0x130
 800419a:	f002 f801 	bl	80061a0 <__aeabi_dmul>
 800419e:	e9dd 2302 	ldrd	r2, r3, [sp, #8]
 80041a2:	e9c9 0138 	strd	r0, r1, [r9, #224]	; 0xe0
 80041a6:	e9dd 014e 	ldrd	r0, r1, [sp, #312]	; 0x138
 80041aa:	f001 fff9 	bl	80061a0 <__aeabi_dmul>
 80041ae:	e9dd 2300 	ldrd	r2, r3, [sp]
 80041b2:	e9c9 013a 	strd	r0, r1, [r9, #232]	; 0xe8
 80041b6:	e9dd 0150 	ldrd	r0, r1, [sp, #320]	; 0x140
 80041ba:	f001 fff1 	bl	80061a0 <__aeabi_dmul>
 80041be:	e9dd 2302 	ldrd	r2, r3, [sp, #8]
 80041c2:	e9c9 013c 	strd	r0, r1, [r9, #240]	; 0xf0
 80041c6:	e9dd 0152 	ldrd	r0, r1, [sp, #328]	; 0x148
 80041ca:	f001 ffe9 	bl	80061a0 <__aeabi_dmul>
 80041ce:	4632      	mov	r2, r6
 80041d0:	463b      	mov	r3, r7
 80041d2:	e9c9 013e 	strd	r0, r1, [r9, #248]	; 0xf8
 80041d6:	e9dd 0154 	ldrd	r0, r1, [sp, #336]	; 0x150
 80041da:	f001 ffe1 	bl	80061a0 <__aeabi_dmul>
 80041de:	e9dd 2302 	ldrd	r2, r3, [sp, #8]
 80041e2:	e9c9 0140 	strd	r0, r1, [r9, #256]	; 0x100
 80041e6:	e9dd 0156 	ldrd	r0, r1, [sp, #344]	; 0x158
 80041ea:	f001 ffd9 	bl	80061a0 <__aeabi_dmul>
 80041ee:	4632      	mov	r2, r6
 80041f0:	463b      	mov	r3, r7
 80041f2:	e9c9 0142 	strd	r0, r1, [r9, #264]	; 0x108
 80041f6:	e9dd 0158 	ldrd	r0, r1, [sp, #352]	; 0x160
 80041fa:	f001 ffd1 	bl	80061a0 <__aeabi_dmul>
 80041fe:	4652      	mov	r2, sl
 8004200:	465b      	mov	r3, fp
 8004202:	e9c9 0144 	strd	r0, r1, [r9, #272]	; 0x110
 8004206:	e9dd 015a 	ldrd	r0, r1, [sp, #360]	; 0x168
 800420a:	f001 ffc9 	bl	80061a0 <__aeabi_dmul>
 800420e:	e9dd 2300 	ldrd	r2, r3, [sp]
 8004212:	e9c9 0146 	strd	r0, r1, [r9, #280]	; 0x118
 8004216:	e9dd 015c 	ldrd	r0, r1, [sp, #368]	; 0x170
 800421a:	f001 ffc1 	bl	80061a0 <__aeabi_dmul>
 800421e:	e9dd 2302 	ldrd	r2, r3, [sp, #8]
 8004222:	e9c9 0148 	strd	r0, r1, [r9, #288]	; 0x120
 8004226:	e9dd 015e 	ldrd	r0, r1, [sp, #376]	; 0x178
 800422a:	f001 ffb9 	bl	80061a0 <__aeabi_dmul>
 800422e:	4632      	mov	r2, r6
 8004230:	463b      	mov	r3, r7
 8004232:	e9c9 014a 	strd	r0, r1, [r9, #296]	; 0x128
 8004236:	e9dd 0160 	ldrd	r0, r1, [sp, #384]	; 0x180
 800423a:	f001 ffb1 	bl	80061a0 <__aeabi_dmul>
 800423e:	e9dd 2302 	ldrd	r2, r3, [sp, #8]
 8004242:	e9c9 014c 	strd	r0, r1, [r9, #304]	; 0x130
 8004246:	e9dd 0162 	ldrd	r0, r1, [sp, #392]	; 0x188
 800424a:	f001 ffa9 	bl	80061a0 <__aeabi_dmul>
 800424e:	4632      	mov	r2, r6
 8004250:	463b      	mov	r3, r7
 8004252:	e9c9 014e 	strd	r0, r1, [r9, #312]	; 0x138
 8004256:	e9dd 0164 	ldrd	r0, r1, [sp, #400]	; 0x190
 800425a:	f001 ffa1 	bl	80061a0 <__aeabi_dmul>
 800425e:	4652      	mov	r2, sl
 8004260:	465b      	mov	r3, fp
 8004262:	e9c9 0150 	strd	r0, r1, [r9, #320]	; 0x140
 8004266:	e9dd 0166 	ldrd	r0, r1, [sp, #408]	; 0x198
 800426a:	f001 ff99 	bl	80061a0 <__aeabi_dmul>
 800426e:	4632      	mov	r2, r6
 8004270:	463b      	mov	r3, r7
 8004272:	e9c9 0152 	strd	r0, r1, [r9, #328]	; 0x148
 8004276:	e9dd 0168 	ldrd	r0, r1, [sp, #416]	; 0x1a0
 800427a:	f001 ff91 	bl	80061a0 <__aeabi_dmul>
 800427e:	4652      	mov	r2, sl
 8004280:	465b      	mov	r3, fp
 8004282:	e9c9 0154 	strd	r0, r1, [r9, #336]	; 0x150
 8004286:	e9dd 016a 	ldrd	r0, r1, [sp, #424]	; 0x1a8
 800428a:	f001 ff89 	bl	80061a0 <__aeabi_dmul>
 800428e:	4652      	mov	r2, sl
 8004290:	465b      	mov	r3, fp
 8004292:	e9c9 0156 	strd	r0, r1, [r9, #344]	; 0x158
 8004296:	e9dd 016c 	ldrd	r0, r1, [sp, #432]	; 0x1b0
 800429a:	f001 ff81 	bl	80061a0 <__aeabi_dmul>
 800429e:	e9dd 2306 	ldrd	r2, r3, [sp, #24]
 80042a2:	e9c9 0158 	strd	r0, r1, [r9, #352]	; 0x160
 80042a6:	e9dd 016e 	ldrd	r0, r1, [sp, #440]	; 0x1b8
 80042aa:	f001 ff79 	bl	80061a0 <__aeabi_dmul>
 80042ae:	e9dd 2302 	ldrd	r2, r3, [sp, #8]
 80042b2:	e9c9 015a 	strd	r0, r1, [r9, #360]	; 0x168
 80042b6:	e9dd 0170 	ldrd	r0, r1, [sp, #448]	; 0x1c0
 80042ba:	f001 ff71 	bl	80061a0 <__aeabi_dmul>
 80042be:	4652      	mov	r2, sl
 80042c0:	465b      	mov	r3, fp
 80042c2:	e9c9 015c 	strd	r0, r1, [r9, #368]	; 0x170
 80042c6:	e9dd 0172 	ldrd	r0, r1, [sp, #456]	; 0x1c8
 80042ca:	f001 ff69 	bl	80061a0 <__aeabi_dmul>
 80042ce:	4632      	mov	r2, r6
 80042d0:	463b      	mov	r3, r7
 80042d2:	e9c9 015e 	strd	r0, r1, [r9, #376]	; 0x178
 80042d6:	e9dd 0174 	ldrd	r0, r1, [sp, #464]	; 0x1d0
 80042da:	f001 ff61 	bl	80061a0 <__aeabi_dmul>
 80042de:	4652      	mov	r2, sl
 80042e0:	465b      	mov	r3, fp
 80042e2:	e9c9 0160 	strd	r0, r1, [r9, #384]	; 0x180
 80042e6:	e9dd 0176 	ldrd	r0, r1, [sp, #472]	; 0x1d8
 80042ea:	f001 ff59 	bl	80061a0 <__aeabi_dmul>
 80042ee:	e9dd 2306 	ldrd	r2, r3, [sp, #24]
 80042f2:	e9c9 0162 	strd	r0, r1, [r9, #392]	; 0x188
 80042f6:	e9dd 0178 	ldrd	r0, r1, [sp, #480]	; 0x1e0
 80042fa:	f001 ff51 	bl	80061a0 <__aeabi_dmul>
 80042fe:	4652      	mov	r2, sl
 8004300:	465b      	mov	r3, fp
 8004302:	e9c9 0164 	strd	r0, r1, [r9, #400]	; 0x190
 8004306:	e9dd 017a 	ldrd	r0, r1, [sp, #488]	; 0x1e8
 800430a:	f001 ff49 	bl	80061a0 <__aeabi_dmul>
 800430e:	e9dd 2306 	ldrd	r2, r3, [sp, #24]
 8004312:	e9c9 0166 	strd	r0, r1, [r9, #408]	; 0x198
 8004316:	e9dd 017c 	ldrd	r0, r1, [sp, #496]	; 0x1f0
 800431a:	f001 ff41 	bl	80061a0 <__aeabi_dmul>
 800431e:	f240 0228 	movw	r2, #40	; 0x28
 8004322:	f2c2 0200 	movt	r2, #8192	; 0x2000
 8004326:	ed92 2b02 	vldr	d2, [r2, #8]
 800432a:	e9c9 0168 	strd	r0, r1, [r9, #416]	; 0x1a0
 800432e:	ec53 2b12 	vmov	r2, r3, d2
 8004332:	e9dd 017e 	ldrd	r0, r1, [sp, #504]	; 0x1f8
 8004336:	ed8d 2b04 	vstr	d2, [sp, #16]
 800433a:	f001 ff31 	bl	80061a0 <__aeabi_dmul>
 800433e:	e9dd 2300 	ldrd	r2, r3, [sp]
 8004342:	e9c9 016a 	strd	r0, r1, [r9, #424]	; 0x1a8
 8004346:	e9dd 0112 	ldrd	r0, r1, [sp, #72]	; 0x48
 800434a:	f001 ff29 	bl	80061a0 <__aeabi_dmul>
 800434e:	e9dd 2302 	ldrd	r2, r3, [sp, #8]
 8004352:	e9c9 016c 	strd	r0, r1, [r9, #432]	; 0x1b0
 8004356:	e9dd 0180 	ldrd	r0, r1, [sp, #512]	; 0x200
 800435a:	f001 ff21 	bl	80061a0 <__aeabi_dmul>
 800435e:	4632      	mov	r2, r6
 8004360:	463b      	mov	r3, r7
 8004362:	e9c9 016e 	strd	r0, r1, [r9, #440]	; 0x1b8
 8004366:	e9dd 0182 	ldrd	r0, r1, [sp, #520]	; 0x208
 800436a:	f001 ff19 	bl	80061a0 <__aeabi_dmul>
 800436e:	e9dd 2302 	ldrd	r2, r3, [sp, #8]
 8004372:	e9c9 0170 	strd	r0, r1, [r9, #448]	; 0x1c0
 8004376:	e9dd 0184 	ldrd	r0, r1, [sp, #528]	; 0x210
 800437a:	f001 ff11 	bl	80061a0 <__aeabi_dmul>
 800437e:	4632      	mov	r2, r6
 8004380:	463b      	mov	r3, r7
 8004382:	e9c9 0172 	strd	r0, r1, [r9, #456]	; 0x1c8
 8004386:	e9dd 0186 	ldrd	r0, r1, [sp, #536]	; 0x218
 800438a:	f001 ff09 	bl	80061a0 <__aeabi_dmul>
 800438e:	4652      	mov	r2, sl
 8004390:	465b      	mov	r3, fp
 8004392:	e9c9 0174 	strd	r0, r1, [r9, #464]	; 0x1d0
 8004396:	e9dd 0188 	ldrd	r0, r1, [sp, #544]	; 0x220
 800439a:	f001 ff01 	bl	80061a0 <__aeabi_dmul>
 800439e:	4632      	mov	r2, r6
 80043a0:	463b      	mov	r3, r7
 80043a2:	e9c9 0176 	strd	r0, r1, [r9, #472]	; 0x1d8
 80043a6:	e9dd 010a 	ldrd	r0, r1, [sp, #40]	; 0x28
 80043aa:	f001 fef9 	bl	80061a0 <__aeabi_dmul>
 80043ae:	4652      	mov	r2, sl
 80043b0:	465b      	mov	r3, fp
 80043b2:	e9c9 0178 	strd	r0, r1, [r9, #480]	; 0x1e0
 80043b6:	e9dd 018a 	ldrd	r0, r1, [sp, #552]	; 0x228
 80043ba:	f001 fef1 	bl	80061a0 <__aeabi_dmul>
 80043be:	e9dd 2300 	ldrd	r2, r3, [sp]
 80043c2:	e9c9 017a 	strd	r0, r1, [r9, #488]	; 0x1e8
 80043c6:	e9dd 018c 	ldrd	r0, r1, [sp, #560]	; 0x230
 80043ca:	f001 fee9 	bl	80061a0 <__aeabi_dmul>
 80043ce:	e9dd 2302 	ldrd	r2, r3, [sp, #8]
 80043d2:	e9c9 017c 	strd	r0, r1, [r9, #496]	; 0x1f0
 80043d6:	e9dd 010e 	ldrd	r0, r1, [sp, #56]	; 0x38
 80043da:	f001 fee1 	bl	80061a0 <__aeabi_dmul>
 80043de:	4632      	mov	r2, r6
 80043e0:	463b      	mov	r3, r7
 80043e2:	e9c9 017e 	strd	r0, r1, [r9, #504]	; 0x1f8
 80043e6:	e9dd 018e 	ldrd	r0, r1, [sp, #568]	; 0x238
 80043ea:	f001 fed9 	bl	80061a0 <__aeabi_dmul>
 80043ee:	4652      	mov	r2, sl
 80043f0:	465b      	mov	r3, fp
 80043f2:	e9c9 0180 	strd	r0, r1, [r9, #512]	; 0x200
 80043f6:	e9dd 0190 	ldrd	r0, r1, [sp, #576]	; 0x240
 80043fa:	f001 fed1 	bl	80061a0 <__aeabi_dmul>
 80043fe:	4632      	mov	r2, r6
 8004400:	463b      	mov	r3, r7
 8004402:	e9c9 0182 	strd	r0, r1, [r9, #520]	; 0x208
 8004406:	e9dd 0192 	ldrd	r0, r1, [sp, #584]	; 0x248
 800440a:	f001 fec9 	bl	80061a0 <__aeabi_dmul>
 800440e:	4652      	mov	r2, sl
 8004410:	465b      	mov	r3, fp
 8004412:	e9c9 0184 	strd	r0, r1, [r9, #528]	; 0x210
 8004416:	e9dd 0194 	ldrd	r0, r1, [sp, #592]	; 0x250
 800441a:	f001 fec1 	bl	80061a0 <__aeabi_dmul>
 800441e:	e9dd 2306 	ldrd	r2, r3, [sp, #24]
 8004422:	e9c9 0186 	strd	r0, r1, [r9, #536]	; 0x218
 8004426:	e9dd 0196 	ldrd	r0, r1, [sp, #600]	; 0x258
 800442a:	f001 feb9 	bl	80061a0 <__aeabi_dmul>
 800442e:	4652      	mov	r2, sl
 8004430:	465b      	mov	r3, fp
 8004432:	e9c9 0188 	strd	r0, r1, [r9, #544]	; 0x220
 8004436:	e9dd 0198 	ldrd	r0, r1, [sp, #608]	; 0x260
 800443a:	f001 feb1 	bl	80061a0 <__aeabi_dmul>
 800443e:	e9dd 2306 	ldrd	r2, r3, [sp, #24]
 8004442:	e9c9 018a 	strd	r0, r1, [r9, #552]	; 0x228
 8004446:	e9dd 019a 	ldrd	r0, r1, [sp, #616]	; 0x268
 800444a:	f001 fea9 	bl	80061a0 <__aeabi_dmul>
 800444e:	e9dd 2304 	ldrd	r2, r3, [sp, #16]
 8004452:	e9c9 018c 	strd	r0, r1, [r9, #560]	; 0x230
 8004456:	e9dd 019c 	ldrd	r0, r1, [sp, #624]	; 0x270
 800445a:	f001 fea1 	bl	80061a0 <__aeabi_dmul>
 800445e:	4632      	mov	r2, r6
 8004460:	463b      	mov	r3, r7
 8004462:	e9c9 018e 	strd	r0, r1, [r9, #568]	; 0x238
 8004466:	e9dd 0108 	ldrd	r0, r1, [sp, #32]
 800446a:	f001 fe99 	bl	80061a0 <__aeabi_dmul>
 800446e:	4652      	mov	r2, sl
 8004470:	465b      	mov	r3, fp
 8004472:	e9c9 0190 	strd	r0, r1, [r9, #576]	; 0x240
 8004476:	e9dd 0110 	ldrd	r0, r1, [sp, #64]	; 0x40
 800447a:	f001 fe91 	bl	80061a0 <__aeabi_dmul>
 800447e:	e9dd 2306 	ldrd	r2, r3, [sp, #24]
 8004482:	e9c9 0192 	strd	r0, r1, [r9, #584]	; 0x248
 8004486:	e9dd 019e 	ldrd	r0, r1, [sp, #632]	; 0x278
 800448a:	f001 fe89 	bl	80061a0 <__aeabi_dmul>
 800448e:	4652      	mov	r2, sl
 8004490:	465b      	mov	r3, fp
 8004492:	e9c9 0194 	strd	r0, r1, [r9, #592]	; 0x250
 8004496:	e9dd 010c 	ldrd	r0, r1, [sp, #48]	; 0x30
 800449a:	f001 fe81 	bl	80061a0 <__aeabi_dmul>
 800449e:	e9dd 2306 	ldrd	r2, r3, [sp, #24]
 80044a2:	e9c9 0196 	strd	r0, r1, [r9, #600]	; 0x258
 80044a6:	e9dd 01a0 	ldrd	r0, r1, [sp, #640]	; 0x280
 80044aa:	f001 fe79 	bl	80061a0 <__aeabi_dmul>
 80044ae:	e9dd 2304 	ldrd	r2, r3, [sp, #16]
 80044b2:	e9c9 0198 	strd	r0, r1, [r9, #608]	; 0x260
 80044b6:	e9dd 01a2 	ldrd	r0, r1, [sp, #648]	; 0x288
 80044ba:	f001 fe71 	bl	80061a0 <__aeabi_dmul>
 80044be:	e9dd 2306 	ldrd	r2, r3, [sp, #24]
 80044c2:	e9c9 019a 	strd	r0, r1, [r9, #616]	; 0x268
 80044c6:	e9dd 01a4 	ldrd	r0, r1, [sp, #656]	; 0x290
 80044ca:	f001 fe69 	bl	80061a0 <__aeabi_dmul>
 80044ce:	e9dd 2304 	ldrd	r2, r3, [sp, #16]
 80044d2:	e9c9 019c 	strd	r0, r1, [r9, #624]	; 0x270
 80044d6:	e9dd 01a6 	ldrd	r0, r1, [sp, #664]	; 0x298
 80044da:	f001 fe61 	bl	80061a0 <__aeabi_dmul>
 80044de:	e9dd 2304 	ldrd	r2, r3, [sp, #16]
 80044e2:	e9c9 019e 	strd	r0, r1, [r9, #632]	; 0x278
 80044e6:	e9dd 01a8 	ldrd	r0, r1, [sp, #672]	; 0x2a0
 80044ea:	f001 fe59 	bl	80061a0 <__aeabi_dmul>
 80044ee:	f50d 66a7 	add.w	r6, sp, #1336	; 0x538
 80044f2:	e9c9 01a0 	strd	r0, r1, [r9, #640]	; 0x280
 80044f6:	4620      	mov	r0, r4
 80044f8:	4629      	mov	r1, r5
 80044fa:	e9d9 2302 	ldrd	r2, r3, [r9, #8]
 80044fe:	f109 0408 	add.w	r4, r9, #8
 8004502:	f001 fc9b 	bl	8005e3c <__adddf3>
 8004506:	f109 0910 	add.w	r9, r9, #16
 800450a:	e9d4 2302 	ldrd	r2, r3, [r4, #8]
 800450e:	f001 fc95 	bl	8005e3c <__adddf3>
 8004512:	45b1      	cmp	r9, r6
 8004514:	d1f1      	bne.n	80044fa <BalanceFuzzy_step+0x16b2>
 8004516:	4607      	mov	r7, r0
 8004518:	460d      	mov	r5, r1
 800451a:	2200      	movs	r2, #0
 800451c:	e9dd 01ac 	ldrd	r0, r1, [sp, #688]	; 0x2b0
 8004520:	2300      	movs	r3, #0
 8004522:	f002 f8af 	bl	8006684 <__aeabi_dcmplt>
 8004526:	2800      	cmp	r0, #0
 8004528:	f040 8240 	bne.w	80049ac <BalanceFuzzy_step+0x1b64>
 800452c:	4638      	mov	r0, r7
 800452e:	4629      	mov	r1, r5
 8004530:	e9dd 23ac 	ldrd	r2, r3, [sp, #688]	; 0x2b0
 8004534:	f001 ff5e 	bl	80063f4 <__aeabi_ddiv>
 8004538:	4b95      	ldr	r3, [pc, #596]	; (8004790 <BalanceFuzzy_step+0x1948>)
 800453a:	e9d3 2300 	ldrd	r2, r3, [r3]
 800453e:	f001 fe2f 	bl	80061a0 <__aeabi_dmul>
 8004542:	460c      	mov	r4, r1
 8004544:	4621      	mov	r1, r4
 8004546:	2200      	movs	r2, #0
 8004548:	2300      	movs	r3, #0
 800454a:	4606      	mov	r6, r0
 800454c:	f002 f89a 	bl	8006684 <__aeabi_dcmplt>
 8004550:	2800      	cmp	r0, #0
 8004552:	f040 8309 	bne.w	8004b68 <BalanceFuzzy_step+0x1d20>
 8004556:	4630      	mov	r0, r6
 8004558:	4621      	mov	r1, r4
 800455a:	a385      	add	r3, pc, #532	; (adr r3, 8004770 <BalanceFuzzy_step+0x1928>)
 800455c:	e9d3 2300 	ldrd	r2, r3, [r3]
 8004560:	f001 fe1e 	bl	80061a0 <__aeabi_dmul>
 8004564:	f04f 0900 	mov.w	r9, #0
 8004568:	4604      	mov	r4, r0
 800456a:	460d      	mov	r5, r1
 800456c:	f04f 0800 	mov.w	r8, #0
 8004570:	f6c3 79f0 	movt	r9, #16368	; 0x3ff0
 8004574:	2601      	movs	r6, #1
 8004576:	f241 17e0 	movw	r7, #4576	; 0x11e0
 800457a:	f2c2 0700 	movt	r7, #8192	; 0x2000
 800457e:	2300      	movs	r3, #0
 8004580:	f2c4 0345 	movt	r3, #16453	; 0x4045
 8004584:	2200      	movs	r2, #0
 8004586:	4620      	mov	r0, r4
 8004588:	4629      	mov	r1, r5
 800458a:	e9c7 4504 	strd	r4, r5, [r7, #16]
 800458e:	e9c7 8906 	strd	r8, r9, [r7, #24]
 8004592:	f001 fe05 	bl	80061a0 <__aeabi_dmul>
 8004596:	f002 f89d 	bl	80066d4 <__aeabi_d2uiz>
 800459a:	f44f 6180 	mov.w	r1, #1024	; 0x400
 800459e:	f2c4 0100 	movt	r1, #16384	; 0x4000
 80045a2:	f248 23b0 	movw	r3, #33456	; 0x82b0
 80045a6:	ed9d 4b14 	vldr	d4, [sp, #80]	; 0x50
 80045aa:	6348      	str	r0, [r1, #52]	; 0x34
 80045ac:	f2c4 2341 	movt	r3, #16961	; 0x4241
 80045b0:	f241 10d0 	movw	r0, #4560	; 0x11d0
 80045b4:	f2c2 0000 	movt	r0, #8192	; 0x2000
 80045b8:	601e      	str	r6, [r3, #0]
 80045ba:	ed80 8b00 	vstr	d8, [r0]
 80045be:	ed80 4b02 	vstr	d4, [r0, #8]
 80045c2:	b051      	add	sp, #324	; 0x144
 80045c4:	f50d 6d80 	add.w	sp, sp, #1024	; 0x400
 80045c8:	ecbd 8b02 	vpop	{d8}
 80045cc:	e8bd 8ff0 	ldmia.w	sp!, {r4, r5, r6, r7, r8, r9, sl, fp, pc}
 80045d0:	f240 0128 	movw	r1, #40	; 0x28
 80045d4:	f2c2 0100 	movt	r1, #8192	; 0x2000
 80045d8:	e9d1 0100 	ldrd	r0, r1, [r1]
 80045dc:	e7ac      	b.n	8004538 <BalanceFuzzy_step+0x16f0>
 80045de:	2000      	movs	r0, #0
 80045e0:	2100      	movs	r1, #0
 80045e2:	e4b9      	b.n	8003f58 <BalanceFuzzy_step+0x1110>
 80045e4:	e9dd 0108 	ldrd	r0, r1, [sp, #32]
 80045e8:	a363      	add	r3, pc, #396	; (adr r3, 8004778 <BalanceFuzzy_step+0x1930>)
 80045ea:	e9d3 2300 	ldrd	r2, r3, [r3]
 80045ee:	f002 f85d 	bl	80066ac <__aeabi_dcmpge>
 80045f2:	2800      	cmp	r0, #0
 80045f4:	f000 81bc 	beq.w	8004970 <BalanceFuzzy_step+0x1b28>
 80045f8:	e9dd 0108 	ldrd	r0, r1, [sp, #32]
 80045fc:	a360      	add	r3, pc, #384	; (adr r3, 8004780 <BalanceFuzzy_step+0x1938>)
 80045fe:	e9d3 2300 	ldrd	r2, r3, [r3]
 8004602:	f002 f849 	bl	8006698 <__aeabi_dcmple>
 8004606:	2800      	cmp	r0, #0
 8004608:	f000 831b 	beq.w	8004c42 <BalanceFuzzy_step+0x1dfa>
 800460c:	ed99 4b22 	vldr	d4, [r9, #136]	; 0x88
 8004610:	ed8d 4b08 	vstr	d4, [sp, #32]
 8004614:	ec51 0b14 	vmov	r0, r1, d4
 8004618:	f7ff b9a4 	b.w	8003964 <BalanceFuzzy_step+0xb1c>
 800461c:	2300      	movs	r3, #0
 800461e:	4630      	mov	r0, r6
 8004620:	4639      	mov	r1, r7
 8004622:	2200      	movs	r2, #0
 8004624:	f6c3 73f0 	movt	r3, #16368	; 0x3ff0
 8004628:	f002 f822 	bl	8006670 <__aeabi_dcmpeq>
 800462c:	2800      	cmp	r0, #0
 800462e:	f040 8197 	bne.w	8004960 <BalanceFuzzy_step+0x1b18>
 8004632:	2300      	movs	r3, #0
 8004634:	4630      	mov	r0, r6
 8004636:	4639      	mov	r1, r7
 8004638:	2200      	movs	r2, #0
 800463a:	f6c3 73f0 	movt	r3, #16368	; 0x3ff0
 800463e:	f002 f821 	bl	8006684 <__aeabi_dcmplt>
 8004642:	2800      	cmp	r0, #0
 8004644:	f040 846d 	bne.w	8004f22 <BalanceFuzzy_step+0x20da>
 8004648:	f509 63b3 	add.w	r3, r9, #1432	; 0x598
 800464c:	e9d3 4500 	ldrd	r4, r5, [r3]
 8004650:	4632      	mov	r2, r6
 8004652:	463b      	mov	r3, r7
 8004654:	4620      	mov	r0, r4
 8004656:	4629      	mov	r1, r5
 8004658:	f001 fbee 	bl	8005e38 <__aeabi_dsub>
 800465c:	460f      	mov	r7, r1
 800465e:	f509 61b2 	add.w	r1, r9, #1424	; 0x590
 8004662:	e9d1 2300 	ldrd	r2, r3, [r1]
 8004666:	4606      	mov	r6, r0
 8004668:	4629      	mov	r1, r5
 800466a:	4620      	mov	r0, r4
 800466c:	f001 fbe4 	bl	8005e38 <__aeabi_dsub>
 8004670:	460b      	mov	r3, r1
 8004672:	2100      	movs	r1, #0
 8004674:	4602      	mov	r2, r0
 8004676:	f6c3 71f0 	movt	r1, #16368	; 0x3ff0
 800467a:	2000      	movs	r0, #0
 800467c:	f001 feba 	bl	80063f4 <__aeabi_ddiv>
 8004680:	4602      	mov	r2, r0
 8004682:	460b      	mov	r3, r1
 8004684:	4630      	mov	r0, r6
 8004686:	4639      	mov	r1, r7
 8004688:	f001 fd8a 	bl	80061a0 <__aeabi_dmul>
 800468c:	e9cd 0110 	strd	r0, r1, [sp, #64]	; 0x40
 8004690:	f7fe befe 	b.w	8003490 <BalanceFuzzy_step+0x648>
 8004694:	4620      	mov	r0, r4
 8004696:	4629      	mov	r1, r5
 8004698:	a33b      	add	r3, pc, #236	; (adr r3, 8004788 <BalanceFuzzy_step+0x1940>)
 800469a:	e9d3 2300 	ldrd	r2, r3, [r3]
 800469e:	f001 ffe7 	bl	8006670 <__aeabi_dcmpeq>
 80046a2:	2800      	cmp	r0, #0
 80046a4:	f040 8154 	bne.w	8004950 <BalanceFuzzy_step+0x1b08>
 80046a8:	4620      	mov	r0, r4
 80046aa:	4629      	mov	r1, r5
 80046ac:	a336      	add	r3, pc, #216	; (adr r3, 8004788 <BalanceFuzzy_step+0x1940>)
 80046ae:	e9d3 2300 	ldrd	r2, r3, [r3]
 80046b2:	f001 ffe7 	bl	8006684 <__aeabi_dcmplt>
 80046b6:	2800      	cmp	r0, #0
 80046b8:	f000 8355 	beq.w	8004d66 <BalanceFuzzy_step+0x1f1e>
 80046bc:	f8df 90d4 	ldr.w	r9, [pc, #212]	; 8004794 <BalanceFuzzy_step+0x194c>
 80046c0:	ecb9 1b02 	vldmia	r9!, {d1}
 80046c4:	4620      	mov	r0, r4
 80046c6:	ec53 2b11 	vmov	r2, r3, d1
 80046ca:	4629      	mov	r1, r5
 80046cc:	ed8d 1b04 	vstr	d1, [sp, #16]
 80046d0:	f001 fbb2 	bl	8005e38 <__aeabi_dsub>
 80046d4:	e9dd 2304 	ldrd	r2, r3, [sp, #16]
 80046d8:	4604      	mov	r4, r0
 80046da:	460d      	mov	r5, r1
 80046dc:	e9d9 0100 	ldrd	r0, r1, [r9]
 80046e0:	f001 fbaa 	bl	8005e38 <__aeabi_dsub>
 80046e4:	4602      	mov	r2, r0
 80046e6:	460b      	mov	r3, r1
 80046e8:	4620      	mov	r0, r4
 80046ea:	4629      	mov	r1, r5
 80046ec:	f001 fe82 	bl	80063f4 <__aeabi_ddiv>
 80046f0:	e9cd 0104 	strd	r0, r1, [sp, #16]
 80046f4:	f7fe bdd3 	b.w	800329e <BalanceFuzzy_step+0x456>
 80046f8:	2300      	movs	r3, #0
 80046fa:	4650      	mov	r0, sl
 80046fc:	4659      	mov	r1, fp
 80046fe:	2200      	movs	r2, #0
 8004700:	f6c3 73f0 	movt	r3, #16368	; 0x3ff0
 8004704:	f001 ffb4 	bl	8006670 <__aeabi_dcmpeq>
 8004708:	2800      	cmp	r0, #0
 800470a:	f040 811d 	bne.w	8004948 <BalanceFuzzy_step+0x1b00>
 800470e:	2300      	movs	r3, #0
 8004710:	4650      	mov	r0, sl
 8004712:	4659      	mov	r1, fp
 8004714:	2200      	movs	r2, #0
 8004716:	f6c3 73f0 	movt	r3, #16368	; 0x3ff0
 800471a:	f001 ffb3 	bl	8006684 <__aeabi_dcmplt>
 800471e:	2800      	cmp	r0, #0
 8004720:	f040 8204 	bne.w	8004b2c <BalanceFuzzy_step+0x1ce4>
 8004724:	f8df 9070 	ldr.w	r9, [pc, #112]	; 8004798 <BalanceFuzzy_step+0x1950>
 8004728:	e879 0102 	ldrd	r0, r1, [r9], #-8
 800472c:	e9cd 010c 	strd	r0, r1, [sp, #48]	; 0x30
 8004730:	4652      	mov	r2, sl
 8004732:	465b      	mov	r3, fp
 8004734:	e9dd 010c 	ldrd	r0, r1, [sp, #48]	; 0x30
 8004738:	f001 fb7e 	bl	8005e38 <__aeabi_dsub>
 800473c:	e9d9 2300 	ldrd	r2, r3, [r9]
 8004740:	4682      	mov	sl, r0
 8004742:	468b      	mov	fp, r1
 8004744:	e9dd 010c 	ldrd	r0, r1, [sp, #48]	; 0x30
 8004748:	f001 fb76 	bl	8005e38 <__aeabi_dsub>
 800474c:	460b      	mov	r3, r1
 800474e:	2100      	movs	r1, #0
 8004750:	4602      	mov	r2, r0
 8004752:	f6c3 71f0 	movt	r1, #16368	; 0x3ff0
 8004756:	2000      	movs	r0, #0
 8004758:	f001 fe4c 	bl	80063f4 <__aeabi_ddiv>
 800475c:	4602      	mov	r2, r0
 800475e:	460b      	mov	r3, r1
 8004760:	4650      	mov	r0, sl
 8004762:	4659      	mov	r1, fp
 8004764:	f001 fd1c 	bl	80061a0 <__aeabi_dmul>
 8004768:	4682      	mov	sl, r0
 800476a:	468b      	mov	fp, r1
 800476c:	f7fe bd30 	b.w	80031d0 <BalanceFuzzy_step+0x388>
 8004770:	aaaaaaaa 	.word	0xaaaaaaaa
 8004774:	4010aaaa 	.word	0x4010aaaa
 8004778:	66666666 	.word	0x66666666
 800477c:	40006666 	.word	0x40006666
 8004780:	eb851eb8 	.word	0xeb851eb8
 8004784:	4010b851 	.word	0x4010b851
 8004788:	e5604189 	.word	0xe5604189
 800478c:	400922d0 	.word	0x400922d0
 8004790:	20000530 	.word	0x20000530
 8004794:	20000568 	.word	0x20000568
 8004798:	20000620 	.word	0x20000620
 800479c:	4620      	mov	r0, r4
 800479e:	4629      	mov	r1, r5
 80047a0:	2200      	movs	r2, #0
 80047a2:	2300      	movs	r3, #0
 80047a4:	f001 ff64 	bl	8006670 <__aeabi_dcmpeq>
 80047a8:	2800      	cmp	r0, #0
 80047aa:	f040 815c 	bne.w	8004a66 <BalanceFuzzy_step+0x1c1e>
 80047ae:	4620      	mov	r0, r4
 80047b0:	4629      	mov	r1, r5
 80047b2:	2200      	movs	r2, #0
 80047b4:	2300      	movs	r3, #0
 80047b6:	f001 ff65 	bl	8006684 <__aeabi_dcmplt>
 80047ba:	2800      	cmp	r0, #0
 80047bc:	f040 83f5 	bne.w	8004faa <BalanceFuzzy_step+0x2162>
 80047c0:	f509 63a3 	add.w	r3, r9, #1304	; 0x518
 80047c4:	ed93 5b00 	vldr	d5, [r3]
 80047c8:	4622      	mov	r2, r4
 80047ca:	ec51 0b15 	vmov	r0, r1, d5
 80047ce:	462b      	mov	r3, r5
 80047d0:	ed8d 5b04 	vstr	d5, [sp, #16]
 80047d4:	f001 fb30 	bl	8005e38 <__aeabi_dsub>
 80047d8:	e9cd 010c 	strd	r0, r1, [sp, #48]	; 0x30
 80047dc:	f509 61a2 	add.w	r1, r9, #1296	; 0x510
 80047e0:	e9d1 2300 	ldrd	r2, r3, [r1]
 80047e4:	e9dd 0104 	ldrd	r0, r1, [sp, #16]
 80047e8:	f001 fb26 	bl	8005e38 <__aeabi_dsub>
 80047ec:	460b      	mov	r3, r1
 80047ee:	2100      	movs	r1, #0
 80047f0:	4602      	mov	r2, r0
 80047f2:	f6c3 71f0 	movt	r1, #16368	; 0x3ff0
 80047f6:	2000      	movs	r0, #0
 80047f8:	f001 fdfc 	bl	80063f4 <__aeabi_ddiv>
 80047fc:	4602      	mov	r2, r0
 80047fe:	460b      	mov	r3, r1
 8004800:	e9dd 010c 	ldrd	r0, r1, [sp, #48]	; 0x30
 8004804:	f001 fccc 	bl	80061a0 <__aeabi_dmul>
 8004808:	e9dd 230e 	ldrd	r2, r3, [sp, #56]	; 0x38
 800480c:	e9cd 010c 	strd	r0, r1, [sp, #48]	; 0x30
 8004810:	f001 fcc6 	bl	80061a0 <__aeabi_dmul>
 8004814:	e9d9 23a2 	ldrd	r2, r3, [r9, #648]	; 0x288
 8004818:	e9cd 0104 	strd	r0, r1, [sp, #16]
 800481c:	e9dd 0102 	ldrd	r0, r1, [sp, #8]
 8004820:	f001 fcbe 	bl	80061a0 <__aeabi_dmul>
 8004824:	e9dd 2304 	ldrd	r2, r3, [sp, #16]
 8004828:	f001 fcba 	bl	80061a0 <__aeabi_dmul>
 800482c:	e9d9 23a4 	ldrd	r2, r3, [r9, #656]	; 0x290
 8004830:	e9cd 011a 	strd	r0, r1, [sp, #104]	; 0x68
 8004834:	e9dd 0104 	ldrd	r0, r1, [sp, #16]
 8004838:	f001 fcb2 	bl	80061a0 <__aeabi_dmul>
 800483c:	e9dd 2300 	ldrd	r2, r3, [sp]
 8004840:	f001 fcae 	bl	80061a0 <__aeabi_dmul>
 8004844:	e9d9 23a6 	ldrd	r2, r3, [r9, #664]	; 0x298
 8004848:	e9cd 011c 	strd	r0, r1, [sp, #112]	; 0x70
 800484c:	e9dd 0104 	ldrd	r0, r1, [sp, #16]
 8004850:	f001 fca6 	bl	80061a0 <__aeabi_dmul>
 8004854:	4652      	mov	r2, sl
 8004856:	465b      	mov	r3, fp
 8004858:	f001 fca2 	bl	80061a0 <__aeabi_dmul>
 800485c:	e9cd 011e 	strd	r0, r1, [sp, #120]	; 0x78
 8004860:	f7fe bd0d 	b.w	800327e <BalanceFuzzy_step+0x436>
 8004864:	e9dd 0108 	ldrd	r0, r1, [sp, #32]
 8004868:	2200      	movs	r2, #0
 800486a:	2300      	movs	r3, #0
 800486c:	f001 ff00 	bl	8006670 <__aeabi_dcmpeq>
 8004870:	2800      	cmp	r0, #0
 8004872:	f040 8129 	bne.w	8004ac8 <BalanceFuzzy_step+0x1c80>
 8004876:	e9dd 0108 	ldrd	r0, r1, [sp, #32]
 800487a:	2200      	movs	r2, #0
 800487c:	2300      	movs	r3, #0
 800487e:	f001 ff01 	bl	8006684 <__aeabi_dcmplt>
 8004882:	2800      	cmp	r0, #0
 8004884:	f040 83f0 	bne.w	8005068 <BalanceFuzzy_step+0x2220>
 8004888:	f506 63c7 	add.w	r3, r6, #1592	; 0x638
 800488c:	e9d3 4500 	ldrd	r4, r5, [r3]
 8004890:	e9dd 2308 	ldrd	r2, r3, [sp, #32]
 8004894:	4620      	mov	r0, r4
 8004896:	4629      	mov	r1, r5
 8004898:	f001 face 	bl	8005e38 <__aeabi_dsub>
 800489c:	e9cd 010a 	strd	r0, r1, [sp, #40]	; 0x28
 80048a0:	f506 61c6 	add.w	r1, r6, #1584	; 0x630
 80048a4:	e9d1 2300 	ldrd	r2, r3, [r1]
 80048a8:	4620      	mov	r0, r4
 80048aa:	4629      	mov	r1, r5
 80048ac:	f001 fac4 	bl	8005e38 <__aeabi_dsub>
 80048b0:	460b      	mov	r3, r1
 80048b2:	2100      	movs	r1, #0
 80048b4:	4602      	mov	r2, r0
 80048b6:	f6c3 71f0 	movt	r1, #16368	; 0x3ff0
 80048ba:	2000      	movs	r0, #0
 80048bc:	f001 fd9a 	bl	80063f4 <__aeabi_ddiv>
 80048c0:	4602      	mov	r2, r0
 80048c2:	460b      	mov	r3, r1
 80048c4:	e9dd 010a 	ldrd	r0, r1, [sp, #40]	; 0x28
 80048c8:	f001 fc6a 	bl	80061a0 <__aeabi_dmul>
 80048cc:	e9cd 010a 	strd	r0, r1, [sp, #40]	; 0x28
 80048d0:	f7fe be8a 	b.w	80035e8 <BalanceFuzzy_step+0x7a0>
 80048d4:	e9dd 4506 	ldrd	r4, r5, [sp, #24]
 80048d8:	f7fe bc01 	b.w	80030de <BalanceFuzzy_step+0x296>
 80048dc:	e9dd 6706 	ldrd	r6, r7, [sp, #24]
 80048e0:	f7fe bbb7 	b.w	8003052 <BalanceFuzzy_step+0x20a>
 80048e4:	46b2      	mov	sl, r6
 80048e6:	46bb      	mov	fp, r7
 80048e8:	f7fe bb64 	b.w	8002fb4 <BalanceFuzzy_step+0x16c>
 80048ec:	e9cd 6708 	strd	r6, r7, [sp, #32]
 80048f0:	f7fe bb0f 	b.w	8002f12 <BalanceFuzzy_step+0xca>
 80048f4:	ed9d 0b00 	vldr	d0, [sp]
 80048f8:	f000 fd86 	bl	8005408 <rtIsNaN>
 80048fc:	2800      	cmp	r0, #0
 80048fe:	f000 8143 	beq.w	8004b88 <BalanceFuzzy_step+0x1d40>
 8004902:	4abd      	ldr	r2, [pc, #756]	; (8004bf8 <BalanceFuzzy_step+0x1db0>)
 8004904:	f241 14e0 	movw	r4, #4576	; 0x11e0
 8004908:	ed92 2b00 	vldr	d2, [r2]
 800490c:	f2c2 0400 	movt	r4, #8192	; 0x2000
 8004910:	ed94 3b00 	vldr	d3, [r4]
 8004914:	f241 11e0 	movw	r1, #4576	; 0x11e0
 8004918:	f2c2 0100 	movt	r1, #8192	; 0x2000
 800491c:	ed8d 2b00 	vstr	d2, [sp]
 8004920:	ed91 8b02 	vldr	d8, [r1, #8]
 8004924:	ed8d 3b14 	vstr	d3, [sp, #80]	; 0x50
 8004928:	e9dd 0100 	ldrd	r0, r1, [sp]
 800492c:	f7fe bbb6 	b.w	800309c <BalanceFuzzy_step+0x254>
 8004930:	ec45 4b10 	vmov	d0, r4, r5
 8004934:	f000 fd68 	bl	8005408 <rtIsNaN>
 8004938:	2800      	cmp	r0, #0
 800493a:	f000 8163 	beq.w	8004c04 <BalanceFuzzy_step+0x1dbc>
 800493e:	4fae      	ldr	r7, [pc, #696]	; (8004bf8 <BalanceFuzzy_step+0x1db0>)
 8004940:	e9d7 4500 	ldrd	r4, r5, [r7]
 8004944:	f7fe bac2 	b.w	8002ecc <BalanceFuzzy_step+0x84>
 8004948:	e9d8 ab3a 	ldrd	sl, fp, [r8, #232]	; 0xe8
 800494c:	f7fe bc40 	b.w	80031d0 <BalanceFuzzy_step+0x388>
 8004950:	ed98 2b6a 	vldr	d2, [r8, #424]	; 0x1a8
 8004954:	ed8d 2b04 	vstr	d2, [sp, #16]
 8004958:	ec51 0b12 	vmov	r0, r1, d2
 800495c:	f7fe bc9f 	b.w	800329e <BalanceFuzzy_step+0x456>
 8004960:	ed99 0b52 	vldr	d0, [r9, #328]	; 0x148
 8004964:	ed8d 0b10 	vstr	d0, [sp, #64]	; 0x40
 8004968:	ec51 0b10 	vmov	r0, r1, d0
 800496c:	f7fe bd90 	b.w	8003490 <BalanceFuzzy_step+0x648>
 8004970:	f509 61cc 	add.w	r1, r9, #1632	; 0x660
 8004974:	e9d1 6700 	ldrd	r6, r7, [r1]
 8004978:	e9dd 0108 	ldrd	r0, r1, [sp, #32]
 800497c:	4632      	mov	r2, r6
 800497e:	463b      	mov	r3, r7
 8004980:	f001 fa5a 	bl	8005e38 <__aeabi_dsub>
 8004984:	4604      	mov	r4, r0
 8004986:	f509 60cd 	add.w	r0, r9, #1640	; 0x668
 800498a:	460d      	mov	r5, r1
 800498c:	4632      	mov	r2, r6
 800498e:	463b      	mov	r3, r7
 8004990:	e9d0 0100 	ldrd	r0, r1, [r0]
 8004994:	f001 fa50 	bl	8005e38 <__aeabi_dsub>
 8004998:	4602      	mov	r2, r0
 800499a:	460b      	mov	r3, r1
 800499c:	4620      	mov	r0, r4
 800499e:	4629      	mov	r1, r5
 80049a0:	f001 fd28 	bl	80063f4 <__aeabi_ddiv>
 80049a4:	e9cd 0108 	strd	r0, r1, [sp, #32]
 80049a8:	f7fe bfdc 	b.w	8003964 <BalanceFuzzy_step+0xb1c>
 80049ac:	ed98 3b12 	vldr	d3, [r8, #72]	; 0x48
 80049b0:	ed8d 3bac 	vstr	d3, [sp, #688]	; 0x2b0
 80049b4:	e5ba      	b.n	800452c <BalanceFuzzy_step+0x16e4>
 80049b6:	e9dd 0108 	ldrd	r0, r1, [sp, #32]
 80049ba:	a389      	add	r3, pc, #548	; (adr r3, 8004be0 <BalanceFuzzy_step+0x1d98>)
 80049bc:	e9d3 2300 	ldrd	r2, r3, [r3]
 80049c0:	f001 fe74 	bl	80066ac <__aeabi_dcmpge>
 80049c4:	2800      	cmp	r0, #0
 80049c6:	f040 824a 	bne.w	8004e5e <BalanceFuzzy_step+0x2016>
 80049ca:	f8df 9230 	ldr.w	r9, [pc, #560]	; 8004bfc <BalanceFuzzy_step+0x1db4>
 80049ce:	e8f9 6702 	ldrd	r6, r7, [r9], #8
 80049d2:	e9dd 0108 	ldrd	r0, r1, [sp, #32]
 80049d6:	4632      	mov	r2, r6
 80049d8:	463b      	mov	r3, r7
 80049da:	f001 fa2d 	bl	8005e38 <__aeabi_dsub>
 80049de:	4632      	mov	r2, r6
 80049e0:	4604      	mov	r4, r0
 80049e2:	460d      	mov	r5, r1
 80049e4:	463b      	mov	r3, r7
 80049e6:	e9d9 0100 	ldrd	r0, r1, [r9]
 80049ea:	f001 fa25 	bl	8005e38 <__aeabi_dsub>
 80049ee:	4602      	mov	r2, r0
 80049f0:	460b      	mov	r3, r1
 80049f2:	4620      	mov	r0, r4
 80049f4:	4629      	mov	r1, r5
 80049f6:	f001 fcfd 	bl	80063f4 <__aeabi_ddiv>
 80049fa:	e9cd 010a 	strd	r0, r1, [sp, #40]	; 0x28
 80049fe:	f7fe ba9d 	b.w	8002f3c <BalanceFuzzy_step+0xf4>
 8004a02:	2300      	movs	r3, #0
 8004a04:	4650      	mov	r0, sl
 8004a06:	4659      	mov	r1, fp
 8004a08:	2200      	movs	r2, #0
 8004a0a:	f6cb 73f0 	movt	r3, #49136	; 0xbff0
 8004a0e:	f001 fe2f 	bl	8006670 <__aeabi_dcmpeq>
 8004a12:	2800      	cmp	r0, #0
 8004a14:	f000 81cd 	beq.w	8004db2 <BalanceFuzzy_step+0x1f6a>
 8004a18:	ed98 3b32 	vldr	d3, [r8, #200]	; 0xc8
 8004a1c:	ed8d 3b02 	vstr	d3, [sp, #8]
 8004a20:	f7fe bade 	b.w	8002fe0 <BalanceFuzzy_step+0x198>
 8004a24:	2300      	movs	r3, #0
 8004a26:	4630      	mov	r0, r6
 8004a28:	4639      	mov	r1, r7
 8004a2a:	2200      	movs	r2, #0
 8004a2c:	f6cb 73f0 	movt	r3, #49136	; 0xbff0
 8004a30:	f001 fe1e 	bl	8006670 <__aeabi_dcmpeq>
 8004a34:	2800      	cmp	r0, #0
 8004a36:	f000 8244 	beq.w	8004ec2 <BalanceFuzzy_step+0x207a>
 8004a3a:	ed98 7b4a 	vldr	d7, [r8, #296]	; 0x128
 8004a3e:	ed8d 7b12 	vstr	d7, [sp, #72]	; 0x48
 8004a42:	f7fe bb1c 	b.w	800307e <BalanceFuzzy_step+0x236>
 8004a46:	4620      	mov	r0, r4
 8004a48:	4629      	mov	r1, r5
 8004a4a:	a367      	add	r3, pc, #412	; (adr r3, 8004be8 <BalanceFuzzy_step+0x1da0>)
 8004a4c:	e9d3 2300 	ldrd	r2, r3, [r3]
 8004a50:	f001 fe0e 	bl	8006670 <__aeabi_dcmpeq>
 8004a54:	2800      	cmp	r0, #0
 8004a56:	f000 81da 	beq.w	8004e0e <BalanceFuzzy_step+0x1fc6>
 8004a5a:	ed98 6b62 	vldr	d6, [r8, #392]	; 0x188
 8004a5e:	ed8d 6b06 	vstr	d6, [sp, #24]
 8004a62:	f7fe bb60 	b.w	8003126 <BalanceFuzzy_step+0x2de>
 8004a66:	ed99 7b72 	vldr	d7, [r9, #456]	; 0x1c8
 8004a6a:	e9dd 010e 	ldrd	r0, r1, [sp, #56]	; 0x38
 8004a6e:	ec53 2b17 	vmov	r2, r3, d7
 8004a72:	ed8d 7b0c 	vstr	d7, [sp, #48]	; 0x30
 8004a76:	f001 fb93 	bl	80061a0 <__aeabi_dmul>
 8004a7a:	e9d9 23a2 	ldrd	r2, r3, [r9, #648]	; 0x288
 8004a7e:	e9cd 0104 	strd	r0, r1, [sp, #16]
 8004a82:	e9dd 0102 	ldrd	r0, r1, [sp, #8]
 8004a86:	f001 fb8b 	bl	80061a0 <__aeabi_dmul>
 8004a8a:	e9dd 2304 	ldrd	r2, r3, [sp, #16]
 8004a8e:	f001 fb87 	bl	80061a0 <__aeabi_dmul>
 8004a92:	e9d9 23a4 	ldrd	r2, r3, [r9, #656]	; 0x290
 8004a96:	e9cd 011a 	strd	r0, r1, [sp, #104]	; 0x68
 8004a9a:	e9dd 0104 	ldrd	r0, r1, [sp, #16]
 8004a9e:	f001 fb7f 	bl	80061a0 <__aeabi_dmul>
 8004aa2:	e9dd 2300 	ldrd	r2, r3, [sp]
 8004aa6:	f001 fb7b 	bl	80061a0 <__aeabi_dmul>
 8004aaa:	e9d9 23a6 	ldrd	r2, r3, [r9, #664]	; 0x298
 8004aae:	e9cd 011c 	strd	r0, r1, [sp, #112]	; 0x70
 8004ab2:	e9dd 0104 	ldrd	r0, r1, [sp, #16]
 8004ab6:	f001 fb73 	bl	80061a0 <__aeabi_dmul>
 8004aba:	4652      	mov	r2, sl
 8004abc:	465b      	mov	r3, fp
 8004abe:	f001 fb6f 	bl	80061a0 <__aeabi_dmul>
 8004ac2:	e9cd 011e 	strd	r0, r1, [sp, #120]	; 0x78
 8004ac6:	e5f9      	b.n	80046bc <BalanceFuzzy_step+0x1874>
 8004ac8:	ed96 2b2a 	vldr	d2, [r6, #168]	; 0xa8
 8004acc:	ed8d 2b0a 	vstr	d2, [sp, #40]	; 0x28
 8004ad0:	ec51 0b12 	vmov	r0, r1, d2
 8004ad4:	f7fe bd88 	b.w	80035e8 <BalanceFuzzy_step+0x7a0>
 8004ad8:	4630      	mov	r0, r6
 8004ada:	4639      	mov	r1, r7
 8004adc:	2200      	movs	r2, #0
 8004ade:	2300      	movs	r3, #0
 8004ae0:	f001 fdc6 	bl	8006670 <__aeabi_dcmpeq>
 8004ae4:	2800      	cmp	r0, #0
 8004ae6:	f000 810d 	beq.w	8004d04 <BalanceFuzzy_step+0x1ebc>
 8004aea:	ed94 6b5a 	vldr	d6, [r4, #360]	; 0x168
 8004aee:	ed8d 6b0e 	vstr	d6, [sp, #56]	; 0x38
 8004af2:	ec51 0b16 	vmov	r0, r1, d6
 8004af6:	f7fe bc17 	b.w	8003328 <BalanceFuzzy_step+0x4e0>
 8004afa:	4650      	mov	r0, sl
 8004afc:	4659      	mov	r1, fp
 8004afe:	2200      	movs	r2, #0
 8004b00:	2300      	movs	r3, #0
 8004b02:	f001 fdb5 	bl	8006670 <__aeabi_dcmpeq>
 8004b06:	2800      	cmp	r0, #0
 8004b08:	f000 80c1 	beq.w	8004c8e <BalanceFuzzy_step+0x1e46>
 8004b0c:	ed99 2b42 	vldr	d2, [r9, #264]	; 0x108
 8004b10:	e9d9 239e 	ldrd	r2, r3, [r9, #632]	; 0x278
 8004b14:	ec51 0b12 	vmov	r0, r1, d2
 8004b18:	ed8d 2b00 	vstr	d2, [sp]
 8004b1c:	f001 fb40 	bl	80061a0 <__aeabi_dmul>
 8004b20:	e9dd 2304 	ldrd	r2, r3, [sp, #16]
 8004b24:	f001 fb3c 	bl	80061a0 <__aeabi_dmul>
 8004b28:	e9cd 01aa 	strd	r0, r1, [sp, #680]	; 0x2a8
 8004b2c:	f8df 90d0 	ldr.w	r9, [pc, #208]	; 8004c00 <BalanceFuzzy_step+0x1db8>
 8004b30:	ecb9 4b02 	vldmia	r9!, {d4}
 8004b34:	4650      	mov	r0, sl
 8004b36:	ec53 2b14 	vmov	r2, r3, d4
 8004b3a:	4659      	mov	r1, fp
 8004b3c:	ed8d 4b0c 	vstr	d4, [sp, #48]	; 0x30
 8004b40:	f001 f97a 	bl	8005e38 <__aeabi_dsub>
 8004b44:	e9dd 230c 	ldrd	r2, r3, [sp, #48]	; 0x30
 8004b48:	4682      	mov	sl, r0
 8004b4a:	468b      	mov	fp, r1
 8004b4c:	e9d9 0100 	ldrd	r0, r1, [r9]
 8004b50:	f001 f972 	bl	8005e38 <__aeabi_dsub>
 8004b54:	4602      	mov	r2, r0
 8004b56:	460b      	mov	r3, r1
 8004b58:	4650      	mov	r0, sl
 8004b5a:	4659      	mov	r1, fp
 8004b5c:	f001 fc4a 	bl	80063f4 <__aeabi_ddiv>
 8004b60:	4682      	mov	sl, r0
 8004b62:	468b      	mov	fp, r1
 8004b64:	f7fe bb34 	b.w	80031d0 <BalanceFuzzy_step+0x388>
 8004b68:	4630      	mov	r0, r6
 8004b6a:	f104 4100 	add.w	r1, r4, #2147483648	; 0x80000000
 8004b6e:	a320      	add	r3, pc, #128	; (adr r3, 8004bf0 <BalanceFuzzy_step+0x1da8>)
 8004b70:	e9d3 2300 	ldrd	r2, r3, [r3]
 8004b74:	f001 fb14 	bl	80061a0 <__aeabi_dmul>
 8004b78:	2600      	movs	r6, #0
 8004b7a:	4604      	mov	r4, r0
 8004b7c:	460d      	mov	r5, r1
 8004b7e:	f04f 0800 	mov.w	r8, #0
 8004b82:	f04f 0900 	mov.w	r9, #0
 8004b86:	e4f6      	b.n	8004576 <BalanceFuzzy_step+0x172e>
 8004b88:	ed9d 0b00 	vldr	d0, [sp]
 8004b8c:	f000 fc02 	bl	8005394 <rtIsInf>
 8004b90:	2800      	cmp	r0, #0
 8004b92:	f47f aeb6 	bne.w	8004902 <BalanceFuzzy_step+0x1aba>
 8004b96:	ec45 4b10 	vmov	d0, r4, r5
 8004b9a:	f000 fc35 	bl	8005408 <rtIsNaN>
 8004b9e:	2800      	cmp	r0, #0
 8004ba0:	f47f aeaf 	bne.w	8004902 <BalanceFuzzy_step+0x1aba>
 8004ba4:	ec45 4b10 	vmov	d0, r4, r5
 8004ba8:	f000 fbf4 	bl	8005394 <rtIsInf>
 8004bac:	2800      	cmp	r0, #0
 8004bae:	f47f aea8 	bne.w	8004902 <BalanceFuzzy_step+0x1aba>
 8004bb2:	e9dd 0100 	ldrd	r0, r1, [sp]
 8004bb6:	462b      	mov	r3, r5
 8004bb8:	4622      	mov	r2, r4
 8004bba:	f7fd ffc1 	bl	8002b40 <rt_modd_snf.part.0>
 8004bbe:	f241 13e0 	movw	r3, #4576	; 0x11e0
 8004bc2:	f2c2 0300 	movt	r3, #8192	; 0x2000
 8004bc6:	ed93 1b00 	vldr	d1, [r3]
 8004bca:	e9cd 0100 	strd	r0, r1, [sp]
 8004bce:	ed93 8b02 	vldr	d8, [r3, #8]
 8004bd2:	ed8d 1b14 	vstr	d1, [sp, #80]	; 0x50
 8004bd6:	f7fe ba61 	b.w	800309c <BalanceFuzzy_step+0x254>
 8004bda:	bf00      	nop
 8004bdc:	f3af 8000 	nop.w
 8004be0:	7ae147ae 	.word	0x7ae147ae
 8004be4:	c00bae14 	.word	0xc00bae14
 8004be8:	e5604189 	.word	0xe5604189
 8004bec:	c00922d0 	.word	0xc00922d0
 8004bf0:	aaaaaaaa 	.word	0xaaaaaaaa
 8004bf4:	4010aaaa 	.word	0x4010aaaa
 8004bf8:	20001220 	.word	0x20001220
 8004bfc:	200006a8 	.word	0x200006a8
 8004c00:	20000628 	.word	0x20000628
 8004c04:	ec45 4b10 	vmov	d0, r4, r5
 8004c08:	f000 fbc4 	bl	8005394 <rtIsInf>
 8004c0c:	2800      	cmp	r0, #0
 8004c0e:	f47f ae96 	bne.w	800493e <BalanceFuzzy_step+0x1af6>
 8004c12:	ec47 6b10 	vmov	d0, r6, r7
 8004c16:	f000 fbf7 	bl	8005408 <rtIsNaN>
 8004c1a:	2800      	cmp	r0, #0
 8004c1c:	f47f ae8f 	bne.w	800493e <BalanceFuzzy_step+0x1af6>
 8004c20:	ec47 6b10 	vmov	d0, r6, r7
 8004c24:	f000 fbb6 	bl	8005394 <rtIsInf>
 8004c28:	2800      	cmp	r0, #0
 8004c2a:	f47f ae88 	bne.w	800493e <BalanceFuzzy_step+0x1af6>
 8004c2e:	4620      	mov	r0, r4
 8004c30:	4629      	mov	r1, r5
 8004c32:	4632      	mov	r2, r6
 8004c34:	463b      	mov	r3, r7
 8004c36:	f7fd ff83 	bl	8002b40 <rt_modd_snf.part.0>
 8004c3a:	4604      	mov	r4, r0
 8004c3c:	460d      	mov	r5, r1
 8004c3e:	f7fe b945 	b.w	8002ecc <BalanceFuzzy_step+0x84>
 8004c42:	f509 63cb 	add.w	r3, r9, #1624	; 0x658
 8004c46:	e9d3 6700 	ldrd	r6, r7, [r3]
 8004c4a:	e9dd 2308 	ldrd	r2, r3, [sp, #32]
 8004c4e:	4630      	mov	r0, r6
 8004c50:	4639      	mov	r1, r7
 8004c52:	f001 f8f1 	bl	8005e38 <__aeabi_dsub>
 8004c56:	f509 6cca 	add.w	ip, r9, #1616	; 0x650
 8004c5a:	e9dc 2300 	ldrd	r2, r3, [ip]
 8004c5e:	4604      	mov	r4, r0
 8004c60:	460d      	mov	r5, r1
 8004c62:	4630      	mov	r0, r6
 8004c64:	4639      	mov	r1, r7
 8004c66:	f001 f8e7 	bl	8005e38 <__aeabi_dsub>
 8004c6a:	460b      	mov	r3, r1
 8004c6c:	2100      	movs	r1, #0
 8004c6e:	4602      	mov	r2, r0
 8004c70:	f6c3 71f0 	movt	r1, #16368	; 0x3ff0
 8004c74:	2000      	movs	r0, #0
 8004c76:	f001 fbbd 	bl	80063f4 <__aeabi_ddiv>
 8004c7a:	4602      	mov	r2, r0
 8004c7c:	460b      	mov	r3, r1
 8004c7e:	4620      	mov	r0, r4
 8004c80:	4629      	mov	r1, r5
 8004c82:	f001 fa8d 	bl	80061a0 <__aeabi_dmul>
 8004c86:	e9cd 0108 	strd	r0, r1, [sp, #32]
 8004c8a:	f7fe be6b 	b.w	8003964 <BalanceFuzzy_step+0xb1c>
 8004c8e:	4650      	mov	r0, sl
 8004c90:	4659      	mov	r1, fp
 8004c92:	2200      	movs	r2, #0
 8004c94:	2300      	movs	r3, #0
 8004c96:	f001 fcf5 	bl	8006684 <__aeabi_dcmplt>
 8004c9a:	2800      	cmp	r0, #0
 8004c9c:	f040 8202 	bne.w	80050a4 <BalanceFuzzy_step+0x225c>
 8004ca0:	f509 63bb 	add.w	r3, r9, #1496	; 0x5d8
 8004ca4:	ed93 0b00 	vldr	d0, [r3]
 8004ca8:	4652      	mov	r2, sl
 8004caa:	ec51 0b10 	vmov	r0, r1, d0
 8004cae:	465b      	mov	r3, fp
 8004cb0:	ed8d 0b00 	vstr	d0, [sp]
 8004cb4:	f001 f8c0 	bl	8005e38 <__aeabi_dsub>
 8004cb8:	e9cd 010c 	strd	r0, r1, [sp, #48]	; 0x30
 8004cbc:	f509 61ba 	add.w	r1, r9, #1488	; 0x5d0
 8004cc0:	e9d1 2300 	ldrd	r2, r3, [r1]
 8004cc4:	e9dd 0100 	ldrd	r0, r1, [sp]
 8004cc8:	f001 f8b6 	bl	8005e38 <__aeabi_dsub>
 8004ccc:	460b      	mov	r3, r1
 8004cce:	2100      	movs	r1, #0
 8004cd0:	4602      	mov	r2, r0
 8004cd2:	f6c3 71f0 	movt	r1, #16368	; 0x3ff0
 8004cd6:	2000      	movs	r0, #0
 8004cd8:	f001 fb8c 	bl	80063f4 <__aeabi_ddiv>
 8004cdc:	4602      	mov	r2, r0
 8004cde:	460b      	mov	r3, r1
 8004ce0:	e9dd 010c 	ldrd	r0, r1, [sp, #48]	; 0x30
 8004ce4:	f001 fa5c 	bl	80061a0 <__aeabi_dmul>
 8004ce8:	e9d9 239e 	ldrd	r2, r3, [r9, #632]	; 0x278
 8004cec:	e9cd 0100 	strd	r0, r1, [sp]
 8004cf0:	f001 fa56 	bl	80061a0 <__aeabi_dmul>
 8004cf4:	e9dd 2304 	ldrd	r2, r3, [sp, #16]
 8004cf8:	f001 fa52 	bl	80061a0 <__aeabi_dmul>
 8004cfc:	e9cd 01aa 	strd	r0, r1, [sp, #680]	; 0x2a8
 8004d00:	f7fe ba5a 	b.w	80031b8 <BalanceFuzzy_step+0x370>
 8004d04:	4630      	mov	r0, r6
 8004d06:	4639      	mov	r1, r7
 8004d08:	2200      	movs	r2, #0
 8004d0a:	2300      	movs	r3, #0
 8004d0c:	f001 fcba 	bl	8006684 <__aeabi_dcmplt>
 8004d10:	2800      	cmp	r0, #0
 8004d12:	f040 81f1 	bne.w	80050f8 <BalanceFuzzy_step+0x22b0>
 8004d16:	f504 63af 	add.w	r3, r4, #1400	; 0x578
 8004d1a:	ed93 4b00 	vldr	d4, [r3]
 8004d1e:	4632      	mov	r2, r6
 8004d20:	ec51 0b14 	vmov	r0, r1, d4
 8004d24:	463b      	mov	r3, r7
 8004d26:	ed8d 4b0e 	vstr	d4, [sp, #56]	; 0x38
 8004d2a:	f001 f885 	bl	8005e38 <__aeabi_dsub>
 8004d2e:	e9cd 0110 	strd	r0, r1, [sp, #64]	; 0x40
 8004d32:	f504 61ae 	add.w	r1, r4, #1392	; 0x570
 8004d36:	e9d1 2300 	ldrd	r2, r3, [r1]
 8004d3a:	e9dd 010e 	ldrd	r0, r1, [sp, #56]	; 0x38
 8004d3e:	f001 f87b 	bl	8005e38 <__aeabi_dsub>
 8004d42:	460b      	mov	r3, r1
 8004d44:	2100      	movs	r1, #0
 8004d46:	4602      	mov	r2, r0
 8004d48:	f6c3 71f0 	movt	r1, #16368	; 0x3ff0
 8004d4c:	2000      	movs	r0, #0
 8004d4e:	f001 fb51 	bl	80063f4 <__aeabi_ddiv>
 8004d52:	4602      	mov	r2, r0
 8004d54:	460b      	mov	r3, r1
 8004d56:	e9dd 0110 	ldrd	r0, r1, [sp, #64]	; 0x40
 8004d5a:	f001 fa21 	bl	80061a0 <__aeabi_dmul>
 8004d5e:	e9cd 010e 	strd	r0, r1, [sp, #56]	; 0x38
 8004d62:	f7fe bae1 	b.w	8003328 <BalanceFuzzy_step+0x4e0>
 8004d66:	f8df 92f0 	ldr.w	r9, [pc, #752]	; 8005058 <BalanceFuzzy_step+0x2210>
 8004d6a:	e879 2302 	ldrd	r2, r3, [r9], #-8
 8004d6e:	e9cd 2304 	strd	r2, r3, [sp, #16]
 8004d72:	e9dd 0104 	ldrd	r0, r1, [sp, #16]
 8004d76:	4622      	mov	r2, r4
 8004d78:	462b      	mov	r3, r5
 8004d7a:	f001 f85d 	bl	8005e38 <__aeabi_dsub>
 8004d7e:	e9d9 2300 	ldrd	r2, r3, [r9]
 8004d82:	4604      	mov	r4, r0
 8004d84:	460d      	mov	r5, r1
 8004d86:	e9dd 0104 	ldrd	r0, r1, [sp, #16]
 8004d8a:	f001 f855 	bl	8005e38 <__aeabi_dsub>
 8004d8e:	460b      	mov	r3, r1
 8004d90:	2100      	movs	r1, #0
 8004d92:	4602      	mov	r2, r0
 8004d94:	f6c3 71f0 	movt	r1, #16368	; 0x3ff0
 8004d98:	2000      	movs	r0, #0
 8004d9a:	f001 fb2b 	bl	80063f4 <__aeabi_ddiv>
 8004d9e:	4602      	mov	r2, r0
 8004da0:	460b      	mov	r3, r1
 8004da2:	4620      	mov	r0, r4
 8004da4:	4629      	mov	r1, r5
 8004da6:	f001 f9fb 	bl	80061a0 <__aeabi_dmul>
 8004daa:	e9cd 0104 	strd	r0, r1, [sp, #16]
 8004dae:	f7fe ba76 	b.w	800329e <BalanceFuzzy_step+0x456>
 8004db2:	2300      	movs	r3, #0
 8004db4:	4650      	mov	r0, sl
 8004db6:	4659      	mov	r1, fp
 8004db8:	2200      	movs	r2, #0
 8004dba:	f6cb 73f0 	movt	r3, #49136	; 0xbff0
 8004dbe:	f001 fc61 	bl	8006684 <__aeabi_dcmplt>
 8004dc2:	2800      	cmp	r0, #0
 8004dc4:	f040 81d5 	bne.w	8005172 <BalanceFuzzy_step+0x232a>
 8004dc8:	4ea1      	ldr	r6, [pc, #644]	; (8005050 <BalanceFuzzy_step+0x2208>)
 8004dca:	e876 4502 	ldrd	r4, r5, [r6], #-8
 8004dce:	4652      	mov	r2, sl
 8004dd0:	465b      	mov	r3, fp
 8004dd2:	4620      	mov	r0, r4
 8004dd4:	4629      	mov	r1, r5
 8004dd6:	f001 f82f 	bl	8005e38 <__aeabi_dsub>
 8004dda:	e9d6 2300 	ldrd	r2, r3, [r6]
 8004dde:	e9cd 0102 	strd	r0, r1, [sp, #8]
 8004de2:	4620      	mov	r0, r4
 8004de4:	4629      	mov	r1, r5
 8004de6:	f001 f827 	bl	8005e38 <__aeabi_dsub>
 8004dea:	460b      	mov	r3, r1
 8004dec:	2100      	movs	r1, #0
 8004dee:	4602      	mov	r2, r0
 8004df0:	f6c3 71f0 	movt	r1, #16368	; 0x3ff0
 8004df4:	2000      	movs	r0, #0
 8004df6:	f001 fafd 	bl	80063f4 <__aeabi_ddiv>
 8004dfa:	4602      	mov	r2, r0
 8004dfc:	460b      	mov	r3, r1
 8004dfe:	e9dd 0102 	ldrd	r0, r1, [sp, #8]
 8004e02:	f001 f9cd 	bl	80061a0 <__aeabi_dmul>
 8004e06:	e9cd 0102 	strd	r0, r1, [sp, #8]
 8004e0a:	f7fe b8e9 	b.w	8002fe0 <BalanceFuzzy_step+0x198>
 8004e0e:	4620      	mov	r0, r4
 8004e10:	4629      	mov	r1, r5
 8004e12:	a38b      	add	r3, pc, #556	; (adr r3, 8005040 <BalanceFuzzy_step+0x21f8>)
 8004e14:	e9d3 2300 	ldrd	r2, r3, [r3]
 8004e18:	f001 fc34 	bl	8006684 <__aeabi_dcmplt>
 8004e1c:	2800      	cmp	r0, #0
 8004e1e:	f000 809e 	beq.w	8004f5e <BalanceFuzzy_step+0x2116>
 8004e22:	f8df 9238 	ldr.w	r9, [pc, #568]	; 800505c <BalanceFuzzy_step+0x2214>
 8004e26:	ecb9 5b02 	vldmia	r9!, {d5}
 8004e2a:	4620      	mov	r0, r4
 8004e2c:	ec53 2b15 	vmov	r2, r3, d5
 8004e30:	4629      	mov	r1, r5
 8004e32:	ed8d 5b00 	vstr	d5, [sp]
 8004e36:	f000 ffff 	bl	8005e38 <__aeabi_dsub>
 8004e3a:	e9dd 2300 	ldrd	r2, r3, [sp]
 8004e3e:	e9cd 0106 	strd	r0, r1, [sp, #24]
 8004e42:	e9d9 0100 	ldrd	r0, r1, [r9]
 8004e46:	f000 fff7 	bl	8005e38 <__aeabi_dsub>
 8004e4a:	4602      	mov	r2, r0
 8004e4c:	460b      	mov	r3, r1
 8004e4e:	e9dd 0106 	ldrd	r0, r1, [sp, #24]
 8004e52:	f001 facf 	bl	80063f4 <__aeabi_ddiv>
 8004e56:	e9cd 0106 	strd	r0, r1, [sp, #24]
 8004e5a:	f7fe b964 	b.w	8003126 <BalanceFuzzy_step+0x2de>
 8004e5e:	e9dd 0108 	ldrd	r0, r1, [sp, #32]
 8004e62:	a379      	add	r3, pc, #484	; (adr r3, 8005048 <BalanceFuzzy_step+0x2200>)
 8004e64:	e9d3 2300 	ldrd	r2, r3, [r3]
 8004e68:	f001 fc16 	bl	8006698 <__aeabi_dcmple>
 8004e6c:	b128      	cbz	r0, 8004e7a <BalanceFuzzy_step+0x2032>
 8004e6e:	ed98 0b1a 	vldr	d0, [r8, #104]	; 0x68
 8004e72:	ed8d 0b0a 	vstr	d0, [sp, #40]	; 0x28
 8004e76:	f7fe b861 	b.w	8002f3c <BalanceFuzzy_step+0xf4>
 8004e7a:	f8df a1e4 	ldr.w	sl, [pc, #484]	; 8005060 <BalanceFuzzy_step+0x2218>
 8004e7e:	e87a 6702 	ldrd	r6, r7, [sl], #-8
 8004e82:	e9dd 2308 	ldrd	r2, r3, [sp, #32]
 8004e86:	4630      	mov	r0, r6
 8004e88:	4639      	mov	r1, r7
 8004e8a:	f000 ffd5 	bl	8005e38 <__aeabi_dsub>
 8004e8e:	e9da 2300 	ldrd	r2, r3, [sl]
 8004e92:	4604      	mov	r4, r0
 8004e94:	460d      	mov	r5, r1
 8004e96:	4630      	mov	r0, r6
 8004e98:	4639      	mov	r1, r7
 8004e9a:	f000 ffcd 	bl	8005e38 <__aeabi_dsub>
 8004e9e:	460b      	mov	r3, r1
 8004ea0:	2100      	movs	r1, #0
 8004ea2:	4602      	mov	r2, r0
 8004ea4:	f6c3 71f0 	movt	r1, #16368	; 0x3ff0
 8004ea8:	2000      	movs	r0, #0
 8004eaa:	f001 faa3 	bl	80063f4 <__aeabi_ddiv>
 8004eae:	4602      	mov	r2, r0
 8004eb0:	460b      	mov	r3, r1
 8004eb2:	4620      	mov	r0, r4
 8004eb4:	4629      	mov	r1, r5
 8004eb6:	f001 f973 	bl	80061a0 <__aeabi_dmul>
 8004eba:	e9cd 010a 	strd	r0, r1, [sp, #40]	; 0x28
 8004ebe:	f7fe b83d 	b.w	8002f3c <BalanceFuzzy_step+0xf4>
 8004ec2:	2300      	movs	r3, #0
 8004ec4:	4630      	mov	r0, r6
 8004ec6:	4639      	mov	r1, r7
 8004ec8:	2200      	movs	r2, #0
 8004eca:	f6cb 73f0 	movt	r3, #49136	; 0xbff0
 8004ece:	f001 fbd9 	bl	8006684 <__aeabi_dcmplt>
 8004ed2:	2800      	cmp	r0, #0
 8004ed4:	f040 8130 	bne.w	8005138 <BalanceFuzzy_step+0x22f0>
 8004ed8:	4c5e      	ldr	r4, [pc, #376]	; (8005054 <BalanceFuzzy_step+0x220c>)
 8004eda:	e874 0102 	ldrd	r0, r1, [r4], #-8
 8004ede:	e9cd 0106 	strd	r0, r1, [sp, #24]
 8004ee2:	4632      	mov	r2, r6
 8004ee4:	463b      	mov	r3, r7
 8004ee6:	e9dd 0106 	ldrd	r0, r1, [sp, #24]
 8004eea:	f000 ffa5 	bl	8005e38 <__aeabi_dsub>
 8004eee:	e9d4 2300 	ldrd	r2, r3, [r4]
 8004ef2:	e9cd 0104 	strd	r0, r1, [sp, #16]
 8004ef6:	e9dd 0106 	ldrd	r0, r1, [sp, #24]
 8004efa:	f000 ff9d 	bl	8005e38 <__aeabi_dsub>
 8004efe:	460b      	mov	r3, r1
 8004f00:	2100      	movs	r1, #0
 8004f02:	4602      	mov	r2, r0
 8004f04:	f6c3 71f0 	movt	r1, #16368	; 0x3ff0
 8004f08:	2000      	movs	r0, #0
 8004f0a:	f001 fa73 	bl	80063f4 <__aeabi_ddiv>
 8004f0e:	4602      	mov	r2, r0
 8004f10:	460b      	mov	r3, r1
 8004f12:	e9dd 0104 	ldrd	r0, r1, [sp, #16]
 8004f16:	f001 f943 	bl	80061a0 <__aeabi_dmul>
 8004f1a:	e9cd 0112 	strd	r0, r1, [sp, #72]	; 0x48
 8004f1e:	f7fe b8ae 	b.w	800307e <BalanceFuzzy_step+0x236>
 8004f22:	f509 60b4 	add.w	r0, r9, #1440	; 0x5a0
 8004f26:	e9d0 4500 	ldrd	r4, r5, [r0]
 8004f2a:	4639      	mov	r1, r7
 8004f2c:	4630      	mov	r0, r6
 8004f2e:	4622      	mov	r2, r4
 8004f30:	462b      	mov	r3, r5
 8004f32:	f000 ff81 	bl	8005e38 <__aeabi_dsub>
 8004f36:	f509 62b5 	add.w	r2, r9, #1448	; 0x5a8
 8004f3a:	4606      	mov	r6, r0
 8004f3c:	460f      	mov	r7, r1
 8004f3e:	462b      	mov	r3, r5
 8004f40:	e9d2 0100 	ldrd	r0, r1, [r2]
 8004f44:	4622      	mov	r2, r4
 8004f46:	f000 ff77 	bl	8005e38 <__aeabi_dsub>
 8004f4a:	4602      	mov	r2, r0
 8004f4c:	460b      	mov	r3, r1
 8004f4e:	4630      	mov	r0, r6
 8004f50:	4639      	mov	r1, r7
 8004f52:	f001 fa4f 	bl	80063f4 <__aeabi_ddiv>
 8004f56:	e9cd 0110 	strd	r0, r1, [sp, #64]	; 0x40
 8004f5a:	f7fe ba99 	b.w	8003490 <BalanceFuzzy_step+0x648>
 8004f5e:	f8df 9104 	ldr.w	r9, [pc, #260]	; 8005064 <BalanceFuzzy_step+0x221c>
 8004f62:	e879 2302 	ldrd	r2, r3, [r9], #-8
 8004f66:	e9cd 2300 	strd	r2, r3, [sp]
 8004f6a:	e9dd 0100 	ldrd	r0, r1, [sp]
 8004f6e:	4622      	mov	r2, r4
 8004f70:	462b      	mov	r3, r5
 8004f72:	f000 ff61 	bl	8005e38 <__aeabi_dsub>
 8004f76:	e9d9 2300 	ldrd	r2, r3, [r9]
 8004f7a:	e9cd 0106 	strd	r0, r1, [sp, #24]
 8004f7e:	e9dd 0100 	ldrd	r0, r1, [sp]
 8004f82:	f000 ff59 	bl	8005e38 <__aeabi_dsub>
 8004f86:	460b      	mov	r3, r1
 8004f88:	2100      	movs	r1, #0
 8004f8a:	4602      	mov	r2, r0
 8004f8c:	f6c3 71f0 	movt	r1, #16368	; 0x3ff0
 8004f90:	2000      	movs	r0, #0
 8004f92:	f001 fa2f 	bl	80063f4 <__aeabi_ddiv>
 8004f96:	4602      	mov	r2, r0
 8004f98:	460b      	mov	r3, r1
 8004f9a:	e9dd 0106 	ldrd	r0, r1, [sp, #24]
 8004f9e:	f001 f8ff 	bl	80061a0 <__aeabi_dmul>
 8004fa2:	e9cd 0106 	strd	r0, r1, [sp, #24]
 8004fa6:	f7fe b8be 	b.w	8003126 <BalanceFuzzy_step+0x2de>
 8004faa:	f509 62a4 	add.w	r2, r9, #1312	; 0x520
 8004fae:	ed92 6b00 	vldr	d6, [r2]
 8004fb2:	4620      	mov	r0, r4
 8004fb4:	ec53 2b16 	vmov	r2, r3, d6
 8004fb8:	4629      	mov	r1, r5
 8004fba:	ed8d 6b04 	vstr	d6, [sp, #16]
 8004fbe:	f000 ff3b 	bl	8005e38 <__aeabi_dsub>
 8004fc2:	4604      	mov	r4, r0
 8004fc4:	f509 60a5 	add.w	r0, r9, #1320	; 0x528
 8004fc8:	460d      	mov	r5, r1
 8004fca:	e9dd 2304 	ldrd	r2, r3, [sp, #16]
 8004fce:	e9d0 0100 	ldrd	r0, r1, [r0]
 8004fd2:	f000 ff31 	bl	8005e38 <__aeabi_dsub>
 8004fd6:	4602      	mov	r2, r0
 8004fd8:	460b      	mov	r3, r1
 8004fda:	4620      	mov	r0, r4
 8004fdc:	4629      	mov	r1, r5
 8004fde:	f001 fa09 	bl	80063f4 <__aeabi_ddiv>
 8004fe2:	e9dd 230e 	ldrd	r2, r3, [sp, #56]	; 0x38
 8004fe6:	e9cd 010c 	strd	r0, r1, [sp, #48]	; 0x30
 8004fea:	f001 f8d9 	bl	80061a0 <__aeabi_dmul>
 8004fee:	e9d9 23a2 	ldrd	r2, r3, [r9, #648]	; 0x288
 8004ff2:	4604      	mov	r4, r0
 8004ff4:	460d      	mov	r5, r1
 8004ff6:	e9dd 0102 	ldrd	r0, r1, [sp, #8]
 8004ffa:	f001 f8d1 	bl	80061a0 <__aeabi_dmul>
 8004ffe:	4622      	mov	r2, r4
 8005000:	462b      	mov	r3, r5
 8005002:	f001 f8cd 	bl	80061a0 <__aeabi_dmul>
 8005006:	e9d9 23a4 	ldrd	r2, r3, [r9, #656]	; 0x290
 800500a:	e9cd 011a 	strd	r0, r1, [sp, #104]	; 0x68
 800500e:	4620      	mov	r0, r4
 8005010:	4629      	mov	r1, r5
 8005012:	f001 f8c5 	bl	80061a0 <__aeabi_dmul>
 8005016:	e9dd 2300 	ldrd	r2, r3, [sp]
 800501a:	f001 f8c1 	bl	80061a0 <__aeabi_dmul>
 800501e:	e9d9 23a6 	ldrd	r2, r3, [r9, #664]	; 0x298
 8005022:	e9cd 011c 	strd	r0, r1, [sp, #112]	; 0x70
 8005026:	4620      	mov	r0, r4
 8005028:	4629      	mov	r1, r5
 800502a:	f001 f8b9 	bl	80061a0 <__aeabi_dmul>
 800502e:	4652      	mov	r2, sl
 8005030:	465b      	mov	r3, fp
 8005032:	f001 f8b5 	bl	80061a0 <__aeabi_dmul>
 8005036:	e9cd 011e 	strd	r0, r1, [sp, #120]	; 0x78
 800503a:	f7fe b92a 	b.w	8003292 <BalanceFuzzy_step+0x44a>
 800503e:	bf00      	nop
 8005040:	e5604189 	.word	0xe5604189
 8005044:	c00922d0 	.word	0xc00922d0
 8005048:	a3d70a3d 	.word	0xa3d70a3d
 800504c:	bffe3d70 	.word	0xbffe3d70
 8005050:	20000640 	.word	0x20000640
 8005054:	200005e0 	.word	0x200005e0
 8005058:	20000560 	.word	0x20000560
 800505c:	20000588 	.word	0x20000588
 8005060:	200006a0 	.word	0x200006a0
 8005064:	20000580 	.word	0x20000580
 8005068:	f506 60c8 	add.w	r0, r6, #1600	; 0x640
 800506c:	e9d0 4500 	ldrd	r4, r5, [r0]
 8005070:	e9dd 0108 	ldrd	r0, r1, [sp, #32]
 8005074:	4622      	mov	r2, r4
 8005076:	462b      	mov	r3, r5
 8005078:	f000 fede 	bl	8005e38 <__aeabi_dsub>
 800507c:	f506 62c9 	add.w	r2, r6, #1608	; 0x648
 8005080:	e9cd 010a 	strd	r0, r1, [sp, #40]	; 0x28
 8005084:	462b      	mov	r3, r5
 8005086:	e9d2 0100 	ldrd	r0, r1, [r2]
 800508a:	4622      	mov	r2, r4
 800508c:	f000 fed4 	bl	8005e38 <__aeabi_dsub>
 8005090:	4602      	mov	r2, r0
 8005092:	460b      	mov	r3, r1
 8005094:	e9dd 010a 	ldrd	r0, r1, [sp, #40]	; 0x28
 8005098:	f001 f9ac 	bl	80063f4 <__aeabi_ddiv>
 800509c:	e9cd 010a 	strd	r0, r1, [sp, #40]	; 0x28
 80050a0:	f7fe baa2 	b.w	80035e8 <BalanceFuzzy_step+0x7a0>
 80050a4:	f509 60bc 	add.w	r0, r9, #1504	; 0x5e0
 80050a8:	ed90 1b00 	vldr	d1, [r0]
 80050ac:	4659      	mov	r1, fp
 80050ae:	ec53 2b11 	vmov	r2, r3, d1
 80050b2:	4650      	mov	r0, sl
 80050b4:	ed8d 1b00 	vstr	d1, [sp]
 80050b8:	f000 febe 	bl	8005e38 <__aeabi_dsub>
 80050bc:	f509 62bd 	add.w	r2, r9, #1512	; 0x5e8
 80050c0:	4682      	mov	sl, r0
 80050c2:	468b      	mov	fp, r1
 80050c4:	e9d2 0100 	ldrd	r0, r1, [r2]
 80050c8:	e9dd 2300 	ldrd	r2, r3, [sp]
 80050cc:	f000 feb4 	bl	8005e38 <__aeabi_dsub>
 80050d0:	4602      	mov	r2, r0
 80050d2:	460b      	mov	r3, r1
 80050d4:	4650      	mov	r0, sl
 80050d6:	4659      	mov	r1, fp
 80050d8:	f001 f98c 	bl	80063f4 <__aeabi_ddiv>
 80050dc:	e9d9 239e 	ldrd	r2, r3, [r9, #632]	; 0x278
 80050e0:	e9cd 0100 	strd	r0, r1, [sp]
 80050e4:	f001 f85c 	bl	80061a0 <__aeabi_dmul>
 80050e8:	e9dd 2304 	ldrd	r2, r3, [sp, #16]
 80050ec:	f001 f858 	bl	80061a0 <__aeabi_dmul>
 80050f0:	e9cd 01aa 	strd	r0, r1, [sp, #680]	; 0x2a8
 80050f4:	f7fe b86a 	b.w	80031cc <BalanceFuzzy_step+0x384>
 80050f8:	f504 60b0 	add.w	r0, r4, #1408	; 0x580
 80050fc:	ed90 5b00 	vldr	d5, [r0]
 8005100:	4639      	mov	r1, r7
 8005102:	ec53 2b15 	vmov	r2, r3, d5
 8005106:	4630      	mov	r0, r6
 8005108:	ed8d 5b0e 	vstr	d5, [sp, #56]	; 0x38
 800510c:	f000 fe94 	bl	8005e38 <__aeabi_dsub>
 8005110:	f504 62b1 	add.w	r2, r4, #1416	; 0x588
 8005114:	e9cd 0110 	strd	r0, r1, [sp, #64]	; 0x40
 8005118:	e9d2 0100 	ldrd	r0, r1, [r2]
 800511c:	e9dd 230e 	ldrd	r2, r3, [sp, #56]	; 0x38
 8005120:	f000 fe8a 	bl	8005e38 <__aeabi_dsub>
 8005124:	4602      	mov	r2, r0
 8005126:	460b      	mov	r3, r1
 8005128:	e9dd 0110 	ldrd	r0, r1, [sp, #64]	; 0x40
 800512c:	f001 f962 	bl	80063f4 <__aeabi_ddiv>
 8005130:	e9cd 010e 	strd	r0, r1, [sp, #56]	; 0x38
 8005134:	f7fe b8f8 	b.w	8003328 <BalanceFuzzy_step+0x4e0>
 8005138:	4d1b      	ldr	r5, [pc, #108]	; (80051a8 <BalanceFuzzy_step+0x2360>)
 800513a:	ecb5 8b02 	vldmia	r5!, {d8}
 800513e:	4630      	mov	r0, r6
 8005140:	ec53 2b18 	vmov	r2, r3, d8
 8005144:	4639      	mov	r1, r7
 8005146:	ed8d 8b06 	vstr	d8, [sp, #24]
 800514a:	f000 fe75 	bl	8005e38 <__aeabi_dsub>
 800514e:	e9dd 2306 	ldrd	r2, r3, [sp, #24]
 8005152:	e9cd 0104 	strd	r0, r1, [sp, #16]
 8005156:	e9d5 0100 	ldrd	r0, r1, [r5]
 800515a:	f000 fe6d 	bl	8005e38 <__aeabi_dsub>
 800515e:	4602      	mov	r2, r0
 8005160:	460b      	mov	r3, r1
 8005162:	e9dd 0104 	ldrd	r0, r1, [sp, #16]
 8005166:	f001 f945 	bl	80063f4 <__aeabi_ddiv>
 800516a:	e9cd 0112 	strd	r0, r1, [sp, #72]	; 0x48
 800516e:	f7fd bf86 	b.w	800307e <BalanceFuzzy_step+0x236>
 8005172:	4f0e      	ldr	r7, [pc, #56]	; (80051ac <BalanceFuzzy_step+0x2364>)
 8005174:	e8f7 4502 	ldrd	r4, r5, [r7], #8
 8005178:	4650      	mov	r0, sl
 800517a:	4622      	mov	r2, r4
 800517c:	462b      	mov	r3, r5
 800517e:	4659      	mov	r1, fp
 8005180:	f000 fe5a 	bl	8005e38 <__aeabi_dsub>
 8005184:	4622      	mov	r2, r4
 8005186:	e9cd 0102 	strd	r0, r1, [sp, #8]
 800518a:	462b      	mov	r3, r5
 800518c:	e9d7 0100 	ldrd	r0, r1, [r7]
 8005190:	f000 fe52 	bl	8005e38 <__aeabi_dsub>
 8005194:	4602      	mov	r2, r0
 8005196:	460b      	mov	r3, r1
 8005198:	e9dd 0102 	ldrd	r0, r1, [sp, #8]
 800519c:	f001 f92a 	bl	80063f4 <__aeabi_ddiv>
 80051a0:	e9cd 0102 	strd	r0, r1, [sp, #8]
 80051a4:	f7fd bf1c 	b.w	8002fe0 <BalanceFuzzy_step+0x198>
 80051a8:	200005e8 	.word	0x200005e8
 80051ac:	20000648 	.word	0x20000648

080051b0 <BalanceFuzzy_initialize>:
 80051b0:	b538      	push	{r3, r4, r5, lr}
 80051b2:	2008      	movs	r0, #8
 80051b4:	f000 f8bc 	bl	8005330 <rt_InitInfAndNaN>
 80051b8:	f241 10e0 	movw	r0, #4576	; 0x11e0
 80051bc:	f2c2 0000 	movt	r0, #8192	; 0x2000
 80051c0:	4604      	mov	r4, r0
 80051c2:	2300      	movs	r3, #0
 80051c4:	f844 3b04 	str.w	r3, [r4], #4
 80051c8:	3404      	adds	r4, #4
 80051ca:	f240 0128 	movw	r1, #40	; 0x28
 80051ce:	f844 3b04 	str.w	r3, [r4], #4
 80051d2:	f844 3b04 	str.w	r3, [r4], #4
 80051d6:	f844 3b04 	str.w	r3, [r4], #4
 80051da:	f844 3b04 	str.w	r3, [r4], #4
 80051de:	f844 3b04 	str.w	r3, [r4], #4
 80051e2:	f844 3b04 	str.w	r3, [r4], #4
 80051e6:	f844 3b04 	str.w	r3, [r4], #4
 80051ea:	f844 3b04 	str.w	r3, [r4], #4
 80051ee:	f2c2 0100 	movt	r1, #8192	; 0x2000
 80051f2:	6043      	str	r3, [r0, #4]
 80051f4:	4620      	mov	r0, r4
 80051f6:	ed91 7b80 	vldr	d7, [r1, #512]	; 0x200
 80051fa:	ed91 0b8a 	vldr	d0, [r1, #552]	; 0x228
 80051fe:	f241 15c8 	movw	r5, #4552	; 0x11c8
 8005202:	f840 3b04 	str.w	r3, [r0], #4
 8005206:	f2c2 0500 	movt	r5, #8192	; 0x2000
 800520a:	f241 12d0 	movw	r2, #4560	; 0x11d0
 800520e:	f2c2 0200 	movt	r2, #8192	; 0x2000
 8005212:	602b      	str	r3, [r5, #0]
 8005214:	ed82 7b00 	vstr	d7, [r2]
 8005218:	ed82 0b02 	vstr	d0, [r2, #8]
 800521c:	6003      	str	r3, [r0, #0]
 800521e:	f7fd f979 	bl	8002514 <enable_UARTTx>
 8005222:	f7fd fa9d 	bl	8002760 <enable_UARTSetup>
 8005226:	f7fd fbe9 	bl	80029fc <enable_EncoderDigitalInput>
 800522a:	f7fd fbff 	bl	8002a2c <enable_EncoderQuadraturEncoder>
 800522e:	f7fd fc01 	bl	8002a34 <enable_BasicPWM>
 8005232:	e8bd 4038 	ldmia.w	sp!, {r3, r4, r5, lr}
 8005236:	f7fd bc63 	b.w	8002b00 <enable_DigitalOutput>
 800523a:	bf00      	nop

0800523c <BalanceFuzzy_terminate>:
 800523c:	4770      	bx	lr
 800523e:	bf00      	nop

08005240 <_exit>:
 8005240:	e7fe      	b.n	8005240 <_exit>
 8005242:	bf00      	nop

08005244 <_close>:
 8005244:	f04f 30ff 	mov.w	r0, #4294967295
 8005248:	4770      	bx	lr
 800524a:	bf00      	nop

0800524c <_execve>:
 800524c:	f241 2334 	movw	r3, #4660	; 0x1234
 8005250:	f2c2 0300 	movt	r3, #8192	; 0x2000
 8005254:	220c      	movs	r2, #12
 8005256:	601a      	str	r2, [r3, #0]
 8005258:	f04f 30ff 	mov.w	r0, #4294967295
 800525c:	4770      	bx	lr
 800525e:	bf00      	nop

08005260 <_fork>:
 8005260:	f241 2334 	movw	r3, #4660	; 0x1234
 8005264:	f2c2 0300 	movt	r3, #8192	; 0x2000
 8005268:	220b      	movs	r2, #11
 800526a:	601a      	str	r2, [r3, #0]
 800526c:	f04f 30ff 	mov.w	r0, #4294967295
 8005270:	4770      	bx	lr
 8005272:	bf00      	nop

08005274 <_fstat>:
 8005274:	f44f 5300 	mov.w	r3, #8192	; 0x2000
 8005278:	604b      	str	r3, [r1, #4]
 800527a:	2000      	movs	r0, #0
 800527c:	4770      	bx	lr
 800527e:	bf00      	nop

08005280 <_getpid>:
 8005280:	2001      	movs	r0, #1
 8005282:	4770      	bx	lr

08005284 <_isatty>:
 8005284:	2000      	movs	r0, #0
 8005286:	4770      	bx	lr

08005288 <_kill>:
 8005288:	f241 2334 	movw	r3, #4660	; 0x1234
 800528c:	f2c2 0300 	movt	r3, #8192	; 0x2000
 8005290:	2216      	movs	r2, #22
 8005292:	601a      	str	r2, [r3, #0]
 8005294:	f04f 30ff 	mov.w	r0, #4294967295
 8005298:	4770      	bx	lr
 800529a:	bf00      	nop

0800529c <_link>:
 800529c:	f241 2334 	movw	r3, #4660	; 0x1234
 80052a0:	f2c2 0300 	movt	r3, #8192	; 0x2000
 80052a4:	221f      	movs	r2, #31
 80052a6:	601a      	str	r2, [r3, #0]
 80052a8:	f04f 30ff 	mov.w	r0, #4294967295
 80052ac:	4770      	bx	lr
 80052ae:	bf00      	nop

080052b0 <_lseek>:
 80052b0:	2000      	movs	r0, #0
 80052b2:	4770      	bx	lr

080052b4 <_sbrk>:
 80052b4:	4a0a      	ldr	r2, [pc, #40]	; (80052e0 <_sbrk+0x2c>)
 80052b6:	6813      	ldr	r3, [r2, #0]
 80052b8:	b173      	cbz	r3, 80052d8 <_sbrk+0x24>
 80052ba:	f3ef 8108 	mrs	r1, MSP
 80052be:	1818      	adds	r0, r3, r0
 80052c0:	4288      	cmp	r0, r1
 80052c2:	d802      	bhi.n	80052ca <_sbrk+0x16>
 80052c4:	6010      	str	r0, [r2, #0]
 80052c6:	4618      	mov	r0, r3
 80052c8:	4770      	bx	lr
 80052ca:	4b06      	ldr	r3, [pc, #24]	; (80052e4 <_sbrk+0x30>)
 80052cc:	220c      	movs	r2, #12
 80052ce:	601a      	str	r2, [r3, #0]
 80052d0:	f04f 33ff 	mov.w	r3, #4294967295
 80052d4:	4618      	mov	r0, r3
 80052d6:	4770      	bx	lr
 80052d8:	4b03      	ldr	r3, [pc, #12]	; (80052e8 <_sbrk+0x34>)
 80052da:	6013      	str	r3, [r2, #0]
 80052dc:	e7ed      	b.n	80052ba <_sbrk+0x6>
 80052de:	bf00      	nop
 80052e0:	20000f04 	.word	0x20000f04
 80052e4:	20001234 	.word	0x20001234
 80052e8:	20001238 	.word	0x20001238

080052ec <_read>:
 80052ec:	2000      	movs	r0, #0
 80052ee:	4770      	bx	lr

080052f0 <_stat>:
 80052f0:	f44f 5300 	mov.w	r3, #8192	; 0x2000
 80052f4:	604b      	str	r3, [r1, #4]
 80052f6:	2000      	movs	r0, #0
 80052f8:	4770      	bx	lr
 80052fa:	bf00      	nop

080052fc <_times>:
 80052fc:	f04f 30ff 	mov.w	r0, #4294967295
 8005300:	4770      	bx	lr
 8005302:	bf00      	nop

08005304 <_unlink>:
 8005304:	f241 2334 	movw	r3, #4660	; 0x1234
 8005308:	f2c2 0300 	movt	r3, #8192	; 0x2000
 800530c:	2202      	movs	r2, #2
 800530e:	601a      	str	r2, [r3, #0]
 8005310:	f04f 30ff 	mov.w	r0, #4294967295
 8005314:	4770      	bx	lr
 8005316:	bf00      	nop

08005318 <_wait>:
 8005318:	f241 2334 	movw	r3, #4660	; 0x1234
 800531c:	f2c2 0300 	movt	r3, #8192	; 0x2000
 8005320:	220a      	movs	r2, #10
 8005322:	601a      	str	r2, [r3, #0]
 8005324:	f04f 30ff 	mov.w	r0, #4294967295
 8005328:	4770      	bx	lr
 800532a:	bf00      	nop

0800532c <_write>:
 800532c:	2000      	movs	r0, #0
 800532e:	4770      	bx	lr

08005330 <rt_InitInfAndNaN>:
 8005330:	b508      	push	{r3, lr}
 8005332:	f7fc fe0d 	bl	8001f50 <rtGetNaN>
 8005336:	f241 2320 	movw	r3, #4640	; 0x1220
 800533a:	f2c2 0300 	movt	r3, #8192	; 0x2000
 800533e:	ed83 0b00 	vstr	d0, [r3]
 8005342:	f7fc fe0d 	bl	8001f60 <rtGetNaNF>
 8005346:	f241 2010 	movw	r0, #4624	; 0x1210
 800534a:	f2c2 0000 	movt	r0, #8192	; 0x2000
 800534e:	ed80 0a00 	vstr	s0, [r0]
 8005352:	f000 fa9d 	bl	8005890 <rtGetInf>
 8005356:	f241 2118 	movw	r1, #4632	; 0x1218
 800535a:	f2c2 0100 	movt	r1, #8192	; 0x2000
 800535e:	ed81 0b00 	vstr	d0, [r1]
 8005362:	f000 fa9d 	bl	80058a0 <rtGetInfF>
 8005366:	f241 2214 	movw	r2, #4628	; 0x1214
 800536a:	f2c2 0200 	movt	r2, #8192	; 0x2000
 800536e:	ed82 0a00 	vstr	s0, [r2]
 8005372:	f000 fa9b 	bl	80058ac <rtGetMinusInf>
 8005376:	f241 2328 	movw	r3, #4648	; 0x1228
 800537a:	f2c2 0300 	movt	r3, #8192	; 0x2000
 800537e:	ed83 0b00 	vstr	d0, [r3]
 8005382:	f000 fa9d 	bl	80058c0 <rtGetMinusInfF>
 8005386:	f241 2030 	movw	r0, #4656	; 0x1230
 800538a:	f2c2 0000 	movt	r0, #8192	; 0x2000
 800538e:	ed80 0a00 	vstr	s0, [r0]
 8005392:	bd08      	pop	{r3, pc}

08005394 <rtIsInf>:
 8005394:	b538      	push	{r3, r4, r5, lr}
 8005396:	ec55 4b10 	vmov	r4, r5, d0
 800539a:	4b0c      	ldr	r3, [pc, #48]	; (80053cc <rtIsInf+0x38>)
 800539c:	ee10 0a10 	vmov	r0, s0
 80053a0:	4629      	mov	r1, r5
 80053a2:	e9d3 2300 	ldrd	r2, r3, [r3]
 80053a6:	f001 f963 	bl	8006670 <__aeabi_dcmpeq>
 80053aa:	b968      	cbnz	r0, 80053c8 <rtIsInf+0x34>
 80053ac:	4a08      	ldr	r2, [pc, #32]	; (80053d0 <rtIsInf+0x3c>)
 80053ae:	4629      	mov	r1, r5
 80053b0:	4620      	mov	r0, r4
 80053b2:	e9d2 2300 	ldrd	r2, r3, [r2]
 80053b6:	f001 f95b 	bl	8006670 <__aeabi_dcmpeq>
 80053ba:	2101      	movs	r1, #1
 80053bc:	b108      	cbz	r0, 80053c2 <rtIsInf+0x2e>
 80053be:	b2c8      	uxtb	r0, r1
 80053c0:	bd38      	pop	{r3, r4, r5, pc}
 80053c2:	4601      	mov	r1, r0
 80053c4:	b2c8      	uxtb	r0, r1
 80053c6:	bd38      	pop	{r3, r4, r5, pc}
 80053c8:	2001      	movs	r0, #1
 80053ca:	bd38      	pop	{r3, r4, r5, pc}
 80053cc:	20001218 	.word	0x20001218
 80053d0:	20001228 	.word	0x20001228

080053d4 <rtIsInfF>:
 80053d4:	4b0a      	ldr	r3, [pc, #40]	; (8005400 <rtIsInfF+0x2c>)
 80053d6:	edd3 7a00 	vldr	s15, [r3]
 80053da:	eeb4 0a67 	vcmp.f32	s0, s15
 80053de:	eef1 fa10 	vmrs	APSR_nzcv, fpscr
 80053e2:	d00a      	beq.n	80053fa <rtIsInfF+0x26>
 80053e4:	4807      	ldr	r0, [pc, #28]	; (8005404 <rtIsInfF+0x30>)
 80053e6:	edd0 0a00 	vldr	s1, [r0]
 80053ea:	eeb4 0a60 	vcmp.f32	s0, s1
 80053ee:	eef1 fa10 	vmrs	APSR_nzcv, fpscr
 80053f2:	bf14      	ite	ne
 80053f4:	2000      	movne	r0, #0
 80053f6:	2001      	moveq	r0, #1
 80053f8:	4770      	bx	lr
 80053fa:	2001      	movs	r0, #1
 80053fc:	4770      	bx	lr
 80053fe:	bf00      	nop
 8005400:	20001214 	.word	0x20001214
 8005404:	20001230 	.word	0x20001230

08005408 <rtIsNaN>:
 8005408:	2000      	movs	r0, #0
 800540a:	4770      	bx	lr

0800540c <rtIsNaNF>:
 800540c:	2000      	movs	r0, #0
 800540e:	4770      	bx	lr

08005410 <USART_DeInit>:
 8005410:	b508      	push	{r3, lr}
 8005412:	f44f 5380 	mov.w	r3, #4096	; 0x1000
 8005416:	f2c4 0301 	movt	r3, #16385	; 0x4001
 800541a:	4298      	cmp	r0, r3
 800541c:	d028      	beq.n	8005470 <USART_DeInit+0x60>
 800541e:	f44f 4188 	mov.w	r1, #17408	; 0x4400
 8005422:	f2c4 0100 	movt	r1, #16384	; 0x4000
 8005426:	4288      	cmp	r0, r1
 8005428:	d02c      	beq.n	8005484 <USART_DeInit+0x74>
 800542a:	f44f 4290 	mov.w	r2, #18432	; 0x4800
 800542e:	f2c4 0200 	movt	r2, #16384	; 0x4000
 8005432:	4290      	cmp	r0, r2
 8005434:	d032      	beq.n	800549c <USART_DeInit+0x8c>
 8005436:	f44f 4398 	mov.w	r3, #19456	; 0x4c00
 800543a:	f2c4 0300 	movt	r3, #16384	; 0x4000
 800543e:	4298      	cmp	r0, r3
 8005440:	d038      	beq.n	80054b4 <USART_DeInit+0xa4>
 8005442:	f44f 41a0 	mov.w	r1, #20480	; 0x5000
 8005446:	f2c4 0100 	movt	r1, #16384	; 0x4000
 800544a:	4288      	cmp	r0, r1
 800544c:	d03e      	beq.n	80054cc <USART_DeInit+0xbc>
 800544e:	f44f 52a0 	mov.w	r2, #5120	; 0x1400
 8005452:	f2c4 0201 	movt	r2, #16385	; 0x4001
 8005456:	4290      	cmp	r0, r2
 8005458:	d000      	beq.n	800545c <USART_DeInit+0x4c>
 800545a:	bd08      	pop	{r3, pc}
 800545c:	2020      	movs	r0, #32
 800545e:	2101      	movs	r1, #1
 8005460:	f7fb f93c 	bl	80006dc <RCC_APB2PeriphResetCmd>
 8005464:	2020      	movs	r0, #32
 8005466:	2100      	movs	r1, #0
 8005468:	e8bd 4008 	ldmia.w	sp!, {r3, lr}
 800546c:	f7fb b936 	b.w	80006dc <RCC_APB2PeriphResetCmd>
 8005470:	2010      	movs	r0, #16
 8005472:	2101      	movs	r1, #1
 8005474:	f7fb f932 	bl	80006dc <RCC_APB2PeriphResetCmd>
 8005478:	2010      	movs	r0, #16
 800547a:	2100      	movs	r1, #0
 800547c:	e8bd 4008 	ldmia.w	sp!, {r3, lr}
 8005480:	f7fb b92c 	b.w	80006dc <RCC_APB2PeriphResetCmd>
 8005484:	2101      	movs	r1, #1
 8005486:	f44f 3000 	mov.w	r0, #131072	; 0x20000
 800548a:	f7fb f919 	bl	80006c0 <RCC_APB1PeriphResetCmd>
 800548e:	f44f 3000 	mov.w	r0, #131072	; 0x20000
 8005492:	2100      	movs	r1, #0
 8005494:	e8bd 4008 	ldmia.w	sp!, {r3, lr}
 8005498:	f7fb b912 	b.w	80006c0 <RCC_APB1PeriphResetCmd>
 800549c:	2101      	movs	r1, #1
 800549e:	f44f 2080 	mov.w	r0, #262144	; 0x40000
 80054a2:	f7fb f90d 	bl	80006c0 <RCC_APB1PeriphResetCmd>
 80054a6:	f44f 2080 	mov.w	r0, #262144	; 0x40000
 80054aa:	2100      	movs	r1, #0
 80054ac:	e8bd 4008 	ldmia.w	sp!, {r3, lr}
 80054b0:	f7fb b906 	b.w	80006c0 <RCC_APB1PeriphResetCmd>
 80054b4:	2101      	movs	r1, #1
 80054b6:	f44f 2000 	mov.w	r0, #524288	; 0x80000
 80054ba:	f7fb f901 	bl	80006c0 <RCC_APB1PeriphResetCmd>
 80054be:	f44f 2000 	mov.w	r0, #524288	; 0x80000
 80054c2:	2100      	movs	r1, #0
 80054c4:	e8bd 4008 	ldmia.w	sp!, {r3, lr}
 80054c8:	f7fb b8fa 	b.w	80006c0 <RCC_APB1PeriphResetCmd>
 80054cc:	2101      	movs	r1, #1
 80054ce:	f44f 1080 	mov.w	r0, #1048576	; 0x100000
 80054d2:	f7fb f8f5 	bl	80006c0 <RCC_APB1PeriphResetCmd>
 80054d6:	f44f 1080 	mov.w	r0, #1048576	; 0x100000
 80054da:	2100      	movs	r1, #0
 80054dc:	e8bd 4008 	ldmia.w	sp!, {r3, lr}
 80054e0:	f7fb b8ee 	b.w	80006c0 <RCC_APB1PeriphResetCmd>

080054e4 <USART_Init>:
 80054e4:	8a02      	ldrh	r2, [r0, #16]
 80054e6:	88cb      	ldrh	r3, [r1, #6]
 80054e8:	f422 5240 	bic.w	r2, r2, #12288	; 0x3000
 80054ec:	0412      	lsls	r2, r2, #16
 80054ee:	b5f0      	push	{r4, r5, r6, r7, lr}
 80054f0:	0c12      	lsrs	r2, r2, #16
 80054f2:	4604      	mov	r4, r0
 80054f4:	431a      	orrs	r2, r3
 80054f6:	8948      	ldrh	r0, [r1, #10]
 80054f8:	890f      	ldrh	r7, [r1, #8]
 80054fa:	888e      	ldrh	r6, [r1, #4]
 80054fc:	460d      	mov	r5, r1
 80054fe:	8989      	ldrh	r1, [r1, #12]
 8005500:	8222      	strh	r2, [r4, #16]
 8005502:	89a3      	ldrh	r3, [r4, #12]
 8005504:	f423 52b0 	bic.w	r2, r3, #5632	; 0x1600
 8005508:	f022 030c 	bic.w	r3, r2, #12
 800550c:	433e      	orrs	r6, r7
 800550e:	041a      	lsls	r2, r3, #16
 8005510:	4306      	orrs	r6, r0
 8005512:	b2b3      	uxth	r3, r6
 8005514:	0c10      	lsrs	r0, r2, #16
 8005516:	ea43 0600 	orr.w	r6, r3, r0
 800551a:	81a6      	strh	r6, [r4, #12]
 800551c:	8aa2      	ldrh	r2, [r4, #20]
 800551e:	f422 7040 	bic.w	r0, r2, #768	; 0x300
 8005522:	0403      	lsls	r3, r0, #16
 8005524:	0c1e      	lsrs	r6, r3, #16
 8005526:	430e      	orrs	r6, r1
 8005528:	b085      	sub	sp, #20
 800552a:	82a6      	strh	r6, [r4, #20]
 800552c:	4668      	mov	r0, sp
 800552e:	f7fa ffcf 	bl	80004d0 <RCC_GetClocksFreq>
 8005532:	f44f 5180 	mov.w	r1, #4096	; 0x1000
 8005536:	f2c4 0101 	movt	r1, #16385	; 0x4001
 800553a:	428c      	cmp	r4, r1
 800553c:	d02c      	beq.n	8005598 <USART_Init+0xb4>
 800553e:	f44f 52a0 	mov.w	r2, #5120	; 0x1400
 8005542:	f2c4 0201 	movt	r2, #16385	; 0x4001
 8005546:	4294      	cmp	r4, r2
 8005548:	d026      	beq.n	8005598 <USART_Init+0xb4>
 800554a:	89a0      	ldrh	r0, [r4, #12]
 800554c:	9b02      	ldr	r3, [sp, #8]
 800554e:	b206      	sxth	r6, r0
 8005550:	2e00      	cmp	r6, #0
 8005552:	db26      	blt.n	80055a2 <USART_Init+0xbe>
 8005554:	682d      	ldr	r5, [r5, #0]
 8005556:	eb03 0183 	add.w	r1, r3, r3, lsl #2
 800555a:	eb01 0281 	add.w	r2, r1, r1, lsl #2
 800555e:	00ab      	lsls	r3, r5, #2
 8005560:	fbb2 f1f3 	udiv	r1, r2, r3
 8005564:	f248 531f 	movw	r3, #34079	; 0x851f
 8005568:	89a0      	ldrh	r0, [r4, #12]
 800556a:	f2c5 13eb 	movt	r3, #20971	; 0x51eb
 800556e:	fba3 5601 	umull	r5, r6, r3, r1
 8005572:	0972      	lsrs	r2, r6, #5
 8005574:	b200      	sxth	r0, r0
 8005576:	2564      	movs	r5, #100	; 0x64
 8005578:	0116      	lsls	r6, r2, #4
 800557a:	2800      	cmp	r0, #0
 800557c:	fb02 1115 	mls	r1, r2, r5, r1
 8005580:	db18      	blt.n	80055b4 <USART_Init+0xd0>
 8005582:	010d      	lsls	r5, r1, #4
 8005584:	3532      	adds	r5, #50	; 0x32
 8005586:	fba3 5305 	umull	r5, r3, r3, r5
 800558a:	f3c3 1243 	ubfx	r2, r3, #5, #4
 800558e:	4332      	orrs	r2, r6
 8005590:	b291      	uxth	r1, r2
 8005592:	8121      	strh	r1, [r4, #8]
 8005594:	b005      	add	sp, #20
 8005596:	bdf0      	pop	{r4, r5, r6, r7, pc}
 8005598:	89a0      	ldrh	r0, [r4, #12]
 800559a:	9b03      	ldr	r3, [sp, #12]
 800559c:	b206      	sxth	r6, r0
 800559e:	2e00      	cmp	r6, #0
 80055a0:	dad8      	bge.n	8005554 <USART_Init+0x70>
 80055a2:	6828      	ldr	r0, [r5, #0]
 80055a4:	eb03 0683 	add.w	r6, r3, r3, lsl #2
 80055a8:	eb06 0586 	add.w	r5, r6, r6, lsl #2
 80055ac:	0042      	lsls	r2, r0, #1
 80055ae:	fbb5 f1f2 	udiv	r1, r5, r2
 80055b2:	e7d7      	b.n	8005564 <USART_Init+0x80>
 80055b4:	00c8      	lsls	r0, r1, #3
 80055b6:	3032      	adds	r0, #50	; 0x32
 80055b8:	fba3 1300 	umull	r1, r3, r3, r0
 80055bc:	f3c3 1242 	ubfx	r2, r3, #5, #3
 80055c0:	4332      	orrs	r2, r6
 80055c2:	e7e5      	b.n	8005590 <USART_Init+0xac>

080055c4 <USART_StructInit>:
 80055c4:	2300      	movs	r3, #0
 80055c6:	f44f 5216 	mov.w	r2, #9600	; 0x2580
 80055ca:	210c      	movs	r1, #12
 80055cc:	6002      	str	r2, [r0, #0]
 80055ce:	8083      	strh	r3, [r0, #4]
 80055d0:	80c3      	strh	r3, [r0, #6]
 80055d2:	8103      	strh	r3, [r0, #8]
 80055d4:	8141      	strh	r1, [r0, #10]
 80055d6:	8183      	strh	r3, [r0, #12]
 80055d8:	4770      	bx	lr
 80055da:	bf00      	nop

080055dc <USART_ClockInit>:
 80055dc:	880a      	ldrh	r2, [r1, #0]
 80055de:	8a03      	ldrh	r3, [r0, #16]
 80055e0:	b430      	push	{r4, r5}
 80055e2:	884d      	ldrh	r5, [r1, #2]
 80055e4:	888c      	ldrh	r4, [r1, #4]
 80055e6:	88c9      	ldrh	r1, [r1, #6]
 80055e8:	432a      	orrs	r2, r5
 80055ea:	f423 6370 	bic.w	r3, r3, #3840	; 0xf00
 80055ee:	4322      	orrs	r2, r4
 80055f0:	041b      	lsls	r3, r3, #16
 80055f2:	430a      	orrs	r2, r1
 80055f4:	b292      	uxth	r2, r2
 80055f6:	0c19      	lsrs	r1, r3, #16
 80055f8:	ea42 0301 	orr.w	r3, r2, r1
 80055fc:	8203      	strh	r3, [r0, #16]
 80055fe:	bc30      	pop	{r4, r5}
 8005600:	4770      	bx	lr
 8005602:	bf00      	nop

08005604 <USART_ClockStructInit>:
 8005604:	2300      	movs	r3, #0
 8005606:	8003      	strh	r3, [r0, #0]
 8005608:	8043      	strh	r3, [r0, #2]
 800560a:	8083      	strh	r3, [r0, #4]
 800560c:	80c3      	strh	r3, [r0, #6]
 800560e:	4770      	bx	lr

08005610 <USART_Cmd>:
 8005610:	8983      	ldrh	r3, [r0, #12]
 8005612:	b929      	cbnz	r1, 8005620 <USART_Cmd+0x10>
 8005614:	f423 5100 	bic.w	r1, r3, #8192	; 0x2000
 8005618:	040a      	lsls	r2, r1, #16
 800561a:	0c13      	lsrs	r3, r2, #16
 800561c:	8183      	strh	r3, [r0, #12]
 800561e:	4770      	bx	lr
 8005620:	b299      	uxth	r1, r3
 8005622:	f441 5200 	orr.w	r2, r1, #8192	; 0x2000
 8005626:	8182      	strh	r2, [r0, #12]
 8005628:	4770      	bx	lr
 800562a:	bf00      	nop

0800562c <USART_SetPrescaler>:
 800562c:	8b03      	ldrh	r3, [r0, #24]
 800562e:	f403 427f 	and.w	r2, r3, #65280	; 0xff00
 8005632:	8302      	strh	r2, [r0, #24]
 8005634:	8b03      	ldrh	r3, [r0, #24]
 8005636:	b29a      	uxth	r2, r3
 8005638:	4311      	orrs	r1, r2
 800563a:	8301      	strh	r1, [r0, #24]
 800563c:	4770      	bx	lr
 800563e:	bf00      	nop

08005640 <USART_OverSampling8Cmd>:
 8005640:	8983      	ldrh	r3, [r0, #12]
 8005642:	b919      	cbnz	r1, 800564c <USART_OverSampling8Cmd+0xc>
 8005644:	0459      	lsls	r1, r3, #17
 8005646:	0c4a      	lsrs	r2, r1, #17
 8005648:	8182      	strh	r2, [r0, #12]
 800564a:	4770      	bx	lr
 800564c:	ea6f 4343 	mvn.w	r3, r3, lsl #17
 8005650:	ea6f 4153 	mvn.w	r1, r3, lsr #17
 8005654:	b28a      	uxth	r2, r1
 8005656:	8182      	strh	r2, [r0, #12]
 8005658:	4770      	bx	lr
 800565a:	bf00      	nop

0800565c <USART_OneBitMethodCmd>:
 800565c:	8a83      	ldrh	r3, [r0, #20]
 800565e:	b929      	cbnz	r1, 800566c <USART_OneBitMethodCmd+0x10>
 8005660:	f423 6100 	bic.w	r1, r3, #2048	; 0x800
 8005664:	040a      	lsls	r2, r1, #16
 8005666:	0c13      	lsrs	r3, r2, #16
 8005668:	8283      	strh	r3, [r0, #20]
 800566a:	4770      	bx	lr
 800566c:	b299      	uxth	r1, r3
 800566e:	f441 6200 	orr.w	r2, r1, #2048	; 0x800
 8005672:	8282      	strh	r2, [r0, #20]
 8005674:	4770      	bx	lr
 8005676:	bf00      	nop

08005678 <USART_SendData>:
 8005678:	05c9      	lsls	r1, r1, #23
 800567a:	0dca      	lsrs	r2, r1, #23
 800567c:	8082      	strh	r2, [r0, #4]
 800567e:	4770      	bx	lr

08005680 <USART_ReceiveData>:
 8005680:	8880      	ldrh	r0, [r0, #4]
 8005682:	05c1      	lsls	r1, r0, #23
 8005684:	0dc8      	lsrs	r0, r1, #23
 8005686:	4770      	bx	lr

08005688 <USART_SetAddress>:
 8005688:	8a03      	ldrh	r3, [r0, #16]
 800568a:	f023 020f 	bic.w	r2, r3, #15
 800568e:	0413      	lsls	r3, r2, #16
 8005690:	0c1a      	lsrs	r2, r3, #16
 8005692:	8202      	strh	r2, [r0, #16]
 8005694:	8a03      	ldrh	r3, [r0, #16]
 8005696:	b29a      	uxth	r2, r3
 8005698:	4311      	orrs	r1, r2
 800569a:	8201      	strh	r1, [r0, #16]
 800569c:	4770      	bx	lr
 800569e:	bf00      	nop

080056a0 <USART_ReceiverWakeUpCmd>:
 80056a0:	8983      	ldrh	r3, [r0, #12]
 80056a2:	b929      	cbnz	r1, 80056b0 <USART_ReceiverWakeUpCmd+0x10>
 80056a4:	f023 0102 	bic.w	r1, r3, #2
 80056a8:	040a      	lsls	r2, r1, #16
 80056aa:	0c13      	lsrs	r3, r2, #16
 80056ac:	8183      	strh	r3, [r0, #12]
 80056ae:	4770      	bx	lr
 80056b0:	b299      	uxth	r1, r3
 80056b2:	f041 0202 	orr.w	r2, r1, #2
 80056b6:	8182      	strh	r2, [r0, #12]
 80056b8:	4770      	bx	lr
 80056ba:	bf00      	nop

080056bc <USART_WakeUpConfig>:
 80056bc:	8983      	ldrh	r3, [r0, #12]
 80056be:	f423 6200 	bic.w	r2, r3, #2048	; 0x800
 80056c2:	0413      	lsls	r3, r2, #16
 80056c4:	0c1a      	lsrs	r2, r3, #16
 80056c6:	8182      	strh	r2, [r0, #12]
 80056c8:	8983      	ldrh	r3, [r0, #12]
 80056ca:	b29a      	uxth	r2, r3
 80056cc:	4311      	orrs	r1, r2
 80056ce:	8181      	strh	r1, [r0, #12]
 80056d0:	4770      	bx	lr
 80056d2:	bf00      	nop

080056d4 <USART_LINBreakDetectLengthConfig>:
 80056d4:	8a03      	ldrh	r3, [r0, #16]
 80056d6:	f023 0220 	bic.w	r2, r3, #32
 80056da:	0413      	lsls	r3, r2, #16
 80056dc:	0c1a      	lsrs	r2, r3, #16
 80056de:	8202      	strh	r2, [r0, #16]
 80056e0:	8a03      	ldrh	r3, [r0, #16]
 80056e2:	b29a      	uxth	r2, r3
 80056e4:	4311      	orrs	r1, r2
 80056e6:	8201      	strh	r1, [r0, #16]
 80056e8:	4770      	bx	lr
 80056ea:	bf00      	nop

080056ec <USART_LINCmd>:
 80056ec:	8a03      	ldrh	r3, [r0, #16]
 80056ee:	b929      	cbnz	r1, 80056fc <USART_LINCmd+0x10>
 80056f0:	f423 4180 	bic.w	r1, r3, #16384	; 0x4000
 80056f4:	040a      	lsls	r2, r1, #16
 80056f6:	0c13      	lsrs	r3, r2, #16
 80056f8:	8203      	strh	r3, [r0, #16]
 80056fa:	4770      	bx	lr
 80056fc:	b299      	uxth	r1, r3
 80056fe:	f441 4280 	orr.w	r2, r1, #16384	; 0x4000
 8005702:	8202      	strh	r2, [r0, #16]
 8005704:	4770      	bx	lr
 8005706:	bf00      	nop

08005708 <USART_SendBreak>:
 8005708:	8983      	ldrh	r3, [r0, #12]
 800570a:	b299      	uxth	r1, r3
 800570c:	f041 0201 	orr.w	r2, r1, #1
 8005710:	8182      	strh	r2, [r0, #12]
 8005712:	4770      	bx	lr

08005714 <USART_HalfDuplexCmd>:
 8005714:	8a83      	ldrh	r3, [r0, #20]
 8005716:	b929      	cbnz	r1, 8005724 <USART_HalfDuplexCmd+0x10>
 8005718:	f023 0108 	bic.w	r1, r3, #8
 800571c:	040a      	lsls	r2, r1, #16
 800571e:	0c13      	lsrs	r3, r2, #16
 8005720:	8283      	strh	r3, [r0, #20]
 8005722:	4770      	bx	lr
 8005724:	b299      	uxth	r1, r3
 8005726:	f041 0208 	orr.w	r2, r1, #8
 800572a:	8282      	strh	r2, [r0, #20]
 800572c:	4770      	bx	lr
 800572e:	bf00      	nop

08005730 <USART_SetGuardTime>:
 8005730:	8b03      	ldrh	r3, [r0, #24]
 8005732:	b2da      	uxtb	r2, r3
 8005734:	8302      	strh	r2, [r0, #24]
 8005736:	8b03      	ldrh	r3, [r0, #24]
 8005738:	b29a      	uxth	r2, r3
 800573a:	ea42 2101 	orr.w	r1, r2, r1, lsl #8
 800573e:	8301      	strh	r1, [r0, #24]
 8005740:	4770      	bx	lr
 8005742:	bf00      	nop

08005744 <USART_SmartCardCmd>:
 8005744:	8a83      	ldrh	r3, [r0, #20]
 8005746:	b929      	cbnz	r1, 8005754 <USART_SmartCardCmd+0x10>
 8005748:	f023 0120 	bic.w	r1, r3, #32
 800574c:	040a      	lsls	r2, r1, #16
 800574e:	0c13      	lsrs	r3, r2, #16
 8005750:	8283      	strh	r3, [r0, #20]
 8005752:	4770      	bx	lr
 8005754:	b299      	uxth	r1, r3
 8005756:	f041 0220 	orr.w	r2, r1, #32
 800575a:	8282      	strh	r2, [r0, #20]
 800575c:	4770      	bx	lr
 800575e:	bf00      	nop

08005760 <USART_SmartCardNACKCmd>:
 8005760:	8a83      	ldrh	r3, [r0, #20]
 8005762:	b929      	cbnz	r1, 8005770 <USART_SmartCardNACKCmd+0x10>
 8005764:	f023 0110 	bic.w	r1, r3, #16
 8005768:	040a      	lsls	r2, r1, #16
 800576a:	0c13      	lsrs	r3, r2, #16
 800576c:	8283      	strh	r3, [r0, #20]
 800576e:	4770      	bx	lr
 8005770:	b299      	uxth	r1, r3
 8005772:	f041 0210 	orr.w	r2, r1, #16
 8005776:	8282      	strh	r2, [r0, #20]
 8005778:	4770      	bx	lr
 800577a:	bf00      	nop

0800577c <USART_IrDAConfig>:
 800577c:	8a83      	ldrh	r3, [r0, #20]
 800577e:	f023 0204 	bic.w	r2, r3, #4
 8005782:	0413      	lsls	r3, r2, #16
 8005784:	0c1a      	lsrs	r2, r3, #16
 8005786:	8282      	strh	r2, [r0, #20]
 8005788:	8a83      	ldrh	r3, [r0, #20]
 800578a:	b29a      	uxth	r2, r3
 800578c:	4311      	orrs	r1, r2
 800578e:	8281      	strh	r1, [r0, #20]
 8005790:	4770      	bx	lr
 8005792:	bf00      	nop

08005794 <USART_IrDACmd>:
 8005794:	8a83      	ldrh	r3, [r0, #20]
 8005796:	b929      	cbnz	r1, 80057a4 <USART_IrDACmd+0x10>
 8005798:	f023 0102 	bic.w	r1, r3, #2
 800579c:	040a      	lsls	r2, r1, #16
 800579e:	0c13      	lsrs	r3, r2, #16
 80057a0:	8283      	strh	r3, [r0, #20]
 80057a2:	4770      	bx	lr
 80057a4:	b299      	uxth	r1, r3
 80057a6:	f041 0202 	orr.w	r2, r1, #2
 80057aa:	8282      	strh	r2, [r0, #20]
 80057ac:	4770      	bx	lr
 80057ae:	bf00      	nop

080057b0 <USART_DMACmd>:
 80057b0:	8a83      	ldrh	r3, [r0, #20]
 80057b2:	b29b      	uxth	r3, r3
 80057b4:	b91a      	cbnz	r2, 80057be <USART_DMACmd+0xe>
 80057b6:	ea23 0101 	bic.w	r1, r3, r1
 80057ba:	8281      	strh	r1, [r0, #20]
 80057bc:	4770      	bx	lr
 80057be:	4319      	orrs	r1, r3
 80057c0:	8281      	strh	r1, [r0, #20]
 80057c2:	4770      	bx	lr

080057c4 <USART_ITConfig>:
 80057c4:	f001 031f 	and.w	r3, r1, #31
 80057c8:	b410      	push	{r4}
 80057ca:	f3c1 1142 	ubfx	r1, r1, #5, #3
 80057ce:	2401      	movs	r4, #1
 80057d0:	42a1      	cmp	r1, r4
 80057d2:	fa04 f303 	lsl.w	r3, r4, r3
 80057d6:	d00d      	beq.n	80057f4 <USART_ITConfig+0x30>
 80057d8:	2902      	cmp	r1, #2
 80057da:	d00d      	beq.n	80057f8 <USART_ITConfig+0x34>
 80057dc:	3014      	adds	r0, #20
 80057de:	b92a      	cbnz	r2, 80057ec <USART_ITConfig+0x28>
 80057e0:	6802      	ldr	r2, [r0, #0]
 80057e2:	ea22 0103 	bic.w	r1, r2, r3
 80057e6:	6001      	str	r1, [r0, #0]
 80057e8:	bc10      	pop	{r4}
 80057ea:	4770      	bx	lr
 80057ec:	6802      	ldr	r2, [r0, #0]
 80057ee:	4313      	orrs	r3, r2
 80057f0:	6003      	str	r3, [r0, #0]
 80057f2:	e7f9      	b.n	80057e8 <USART_ITConfig+0x24>
 80057f4:	300c      	adds	r0, #12
 80057f6:	e7f2      	b.n	80057de <USART_ITConfig+0x1a>
 80057f8:	3010      	adds	r0, #16
 80057fa:	e7f0      	b.n	80057de <USART_ITConfig+0x1a>

080057fc <USART_GetFlagStatus>:
 80057fc:	8803      	ldrh	r3, [r0, #0]
 80057fe:	4219      	tst	r1, r3
 8005800:	bf0c      	ite	eq
 8005802:	2000      	moveq	r0, #0
 8005804:	2001      	movne	r0, #1
 8005806:	4770      	bx	lr

08005808 <USART_ClearFlag>:
 8005808:	43c9      	mvns	r1, r1
 800580a:	b28a      	uxth	r2, r1
 800580c:	8002      	strh	r2, [r0, #0]
 800580e:	4770      	bx	lr

08005810 <USART_GetITStatus>:
 8005810:	b410      	push	{r4}
 8005812:	f3c1 1342 	ubfx	r3, r1, #5, #3
 8005816:	2401      	movs	r4, #1
 8005818:	f001 021f 	and.w	r2, r1, #31
 800581c:	42a3      	cmp	r3, r4
 800581e:	fa04 f202 	lsl.w	r2, r4, r2
 8005822:	d014      	beq.n	800584e <USART_GetITStatus+0x3e>
 8005824:	2b02      	cmp	r3, #2
 8005826:	bf0c      	ite	eq
 8005828:	8a03      	ldrheq	r3, [r0, #16]
 800582a:	8a83      	ldrhne	r3, [r0, #20]
 800582c:	b29b      	uxth	r3, r3
 800582e:	4013      	ands	r3, r2
 8005830:	8800      	ldrh	r0, [r0, #0]
 8005832:	b282      	uxth	r2, r0
 8005834:	b14b      	cbz	r3, 800584a <USART_GetITStatus+0x3a>
 8005836:	0a09      	lsrs	r1, r1, #8
 8005838:	2301      	movs	r3, #1
 800583a:	fa03 f001 	lsl.w	r0, r3, r1
 800583e:	4210      	tst	r0, r2
 8005840:	bf0c      	ite	eq
 8005842:	2000      	moveq	r0, #0
 8005844:	2001      	movne	r0, #1
 8005846:	bc10      	pop	{r4}
 8005848:	4770      	bx	lr
 800584a:	4618      	mov	r0, r3
 800584c:	e7fb      	b.n	8005846 <USART_GetITStatus+0x36>
 800584e:	8983      	ldrh	r3, [r0, #12]
 8005850:	b29b      	uxth	r3, r3
 8005852:	4013      	ands	r3, r2
 8005854:	e7ec      	b.n	8005830 <USART_GetITStatus+0x20>
 8005856:	bf00      	nop

08005858 <USART_ClearITPendingBit>:
 8005858:	0a09      	lsrs	r1, r1, #8
 800585a:	2301      	movs	r3, #1
 800585c:	fa03 f201 	lsl.w	r2, r3, r1
 8005860:	43d1      	mvns	r1, r2
 8005862:	b28b      	uxth	r3, r1
 8005864:	8003      	strh	r3, [r0, #0]
 8005866:	4770      	bx	lr

08005868 <pulsetoangle_Outputs_wrapper>:
 8005868:	6800      	ldr	r0, [r0, #0]
 800586a:	b510      	push	{r4, lr}
 800586c:	0040      	lsls	r0, r0, #1
 800586e:	460c      	mov	r4, r1
 8005870:	f000 fc30 	bl	80060d4 <__aeabi_i2d>
 8005874:	a304      	add	r3, pc, #16	; (adr r3, 8005888 <pulsetoangle_Outputs_wrapper+0x20>)
 8005876:	e9d3 2300 	ldrd	r2, r3, [r3]
 800587a:	f000 fc91 	bl	80061a0 <__aeabi_dmul>
 800587e:	e9c4 0100 	strd	r0, r1, [r4]
 8005882:	bd10      	pop	{r4, pc}
 8005884:	f3af 8000 	nop.w
 8005888:	54442d18 	.word	0x54442d18
 800588c:	3f4921fb 	.word	0x3f4921fb

08005890 <rtGetInf>:
 8005890:	ed9f 0b01 	vldr	d0, [pc, #4]	; 8005898 <rtGetInf+0x8>
 8005894:	4770      	bx	lr
 8005896:	bf00      	nop
 8005898:	00000000 	.word	0x00000000
 800589c:	7ff00000 	.word	0x7ff00000

080058a0 <rtGetInfF>:
 80058a0:	ed9f 0a01 	vldr	s0, [pc, #4]	; 80058a8 <rtGetInfF+0x8>
 80058a4:	4770      	bx	lr
 80058a6:	bf00      	nop
 80058a8:	7f800000 	.word	0x7f800000

080058ac <rtGetMinusInf>:
 80058ac:	ed9f 0b02 	vldr	d0, [pc, #8]	; 80058b8 <rtGetMinusInf+0xc>
 80058b0:	4770      	bx	lr
 80058b2:	bf00      	nop
 80058b4:	f3af 8000 	nop.w
 80058b8:	00000000 	.word	0x00000000
 80058bc:	fff00000 	.word	0xfff00000

080058c0 <rtGetMinusInfF>:
 80058c0:	ed9f 0a01 	vldr	s0, [pc, #4]	; 80058c8 <rtGetMinusInfF+0x8>
 80058c4:	4770      	bx	lr
 80058c6:	bf00      	nop
 80058c8:	ff800000 	.word	0xff800000
 80058cc:	f3af 8000 	nop.w

080058d0 <GPIO_DeInit>:
 80058d0:	b508      	push	{r3, lr}
 80058d2:	2300      	movs	r3, #0
 80058d4:	f2c4 0302 	movt	r3, #16386	; 0x4002
 80058d8:	4298      	cmp	r0, r3
 80058da:	d03c      	beq.n	8005956 <GPIO_DeInit+0x86>
 80058dc:	f44f 6180 	mov.w	r1, #1024	; 0x400
 80058e0:	f2c4 0102 	movt	r1, #16386	; 0x4002
 80058e4:	4288      	cmp	r0, r1
 80058e6:	d040      	beq.n	800596a <GPIO_DeInit+0x9a>
 80058e8:	f44f 6200 	mov.w	r2, #2048	; 0x800
 80058ec:	f2c4 0202 	movt	r2, #16386	; 0x4002
 80058f0:	4290      	cmp	r0, r2
 80058f2:	d044      	beq.n	800597e <GPIO_DeInit+0xae>
 80058f4:	f44f 6340 	mov.w	r3, #3072	; 0xc00
 80058f8:	f2c4 0302 	movt	r3, #16386	; 0x4002
 80058fc:	4298      	cmp	r0, r3
 80058fe:	d048      	beq.n	8005992 <GPIO_DeInit+0xc2>
 8005900:	f44f 5180 	mov.w	r1, #4096	; 0x1000
 8005904:	f2c4 0102 	movt	r1, #16386	; 0x4002
 8005908:	4288      	cmp	r0, r1
 800590a:	d04c      	beq.n	80059a6 <GPIO_DeInit+0xd6>
 800590c:	f44f 52a0 	mov.w	r2, #5120	; 0x1400
 8005910:	f2c4 0202 	movt	r2, #16386	; 0x4002
 8005914:	4290      	cmp	r0, r2
 8005916:	d050      	beq.n	80059ba <GPIO_DeInit+0xea>
 8005918:	f44f 53c0 	mov.w	r3, #6144	; 0x1800
 800591c:	f2c4 0302 	movt	r3, #16386	; 0x4002
 8005920:	4298      	cmp	r0, r3
 8005922:	d054      	beq.n	80059ce <GPIO_DeInit+0xfe>
 8005924:	f44f 51e0 	mov.w	r1, #7168	; 0x1c00
 8005928:	f2c4 0102 	movt	r1, #16386	; 0x4002
 800592c:	4288      	cmp	r0, r1
 800592e:	d058      	beq.n	80059e2 <GPIO_DeInit+0x112>
 8005930:	f44f 5200 	mov.w	r2, #8192	; 0x2000
 8005934:	f2c4 0202 	movt	r2, #16386	; 0x4002
 8005938:	4290      	cmp	r0, r2
 800593a:	d000      	beq.n	800593e <GPIO_DeInit+0x6e>
 800593c:	bd08      	pop	{r3, pc}
 800593e:	2101      	movs	r1, #1
 8005940:	f44f 7080 	mov.w	r0, #256	; 0x100
 8005944:	f7fa fe92 	bl	800066c <RCC_AHB1PeriphResetCmd>
 8005948:	f44f 7080 	mov.w	r0, #256	; 0x100
 800594c:	2100      	movs	r1, #0
 800594e:	e8bd 4008 	ldmia.w	sp!, {r3, lr}
 8005952:	f7fa be8b 	b.w	800066c <RCC_AHB1PeriphResetCmd>
 8005956:	2001      	movs	r0, #1
 8005958:	4601      	mov	r1, r0
 800595a:	f7fa fe87 	bl	800066c <RCC_AHB1PeriphResetCmd>
 800595e:	2001      	movs	r0, #1
 8005960:	2100      	movs	r1, #0
 8005962:	e8bd 4008 	ldmia.w	sp!, {r3, lr}
 8005966:	f7fa be81 	b.w	800066c <RCC_AHB1PeriphResetCmd>
 800596a:	2002      	movs	r0, #2
 800596c:	2101      	movs	r1, #1
 800596e:	f7fa fe7d 	bl	800066c <RCC_AHB1PeriphResetCmd>
 8005972:	2002      	movs	r0, #2
 8005974:	2100      	movs	r1, #0
 8005976:	e8bd 4008 	ldmia.w	sp!, {r3, lr}
 800597a:	f7fa be77 	b.w	800066c <RCC_AHB1PeriphResetCmd>
 800597e:	2004      	movs	r0, #4
 8005980:	2101      	movs	r1, #1
 8005982:	f7fa fe73 	bl	800066c <RCC_AHB1PeriphResetCmd>
 8005986:	2004      	movs	r0, #4
 8005988:	2100      	movs	r1, #0
 800598a:	e8bd 4008 	ldmia.w	sp!, {r3, lr}
 800598e:	f7fa be6d 	b.w	800066c <RCC_AHB1PeriphResetCmd>
 8005992:	2008      	movs	r0, #8
 8005994:	2101      	movs	r1, #1
 8005996:	f7fa fe69 	bl	800066c <RCC_AHB1PeriphResetCmd>
 800599a:	2008      	movs	r0, #8
 800599c:	2100      	movs	r1, #0
 800599e:	e8bd 4008 	ldmia.w	sp!, {r3, lr}
 80059a2:	f7fa be63 	b.w	800066c <RCC_AHB1PeriphResetCmd>
 80059a6:	2010      	movs	r0, #16
 80059a8:	2101      	movs	r1, #1
 80059aa:	f7fa fe5f 	bl	800066c <RCC_AHB1PeriphResetCmd>
 80059ae:	2010      	movs	r0, #16
 80059b0:	2100      	movs	r1, #0
 80059b2:	e8bd 4008 	ldmia.w	sp!, {r3, lr}
 80059b6:	f7fa be59 	b.w	800066c <RCC_AHB1PeriphResetCmd>
 80059ba:	2020      	movs	r0, #32
 80059bc:	2101      	movs	r1, #1
 80059be:	f7fa fe55 	bl	800066c <RCC_AHB1PeriphResetCmd>
 80059c2:	2020      	movs	r0, #32
 80059c4:	2100      	movs	r1, #0
 80059c6:	e8bd 4008 	ldmia.w	sp!, {r3, lr}
 80059ca:	f7fa be4f 	b.w	800066c <RCC_AHB1PeriphResetCmd>
 80059ce:	2040      	movs	r0, #64	; 0x40
 80059d0:	2101      	movs	r1, #1
 80059d2:	f7fa fe4b 	bl	800066c <RCC_AHB1PeriphResetCmd>
 80059d6:	2040      	movs	r0, #64	; 0x40
 80059d8:	2100      	movs	r1, #0
 80059da:	e8bd 4008 	ldmia.w	sp!, {r3, lr}
 80059de:	f7fa be45 	b.w	800066c <RCC_AHB1PeriphResetCmd>
 80059e2:	2080      	movs	r0, #128	; 0x80
 80059e4:	2101      	movs	r1, #1
 80059e6:	f7fa fe41 	bl	800066c <RCC_AHB1PeriphResetCmd>
 80059ea:	2080      	movs	r0, #128	; 0x80
 80059ec:	2100      	movs	r1, #0
 80059ee:	e8bd 4008 	ldmia.w	sp!, {r3, lr}
 80059f2:	f7fa be3b 	b.w	800066c <RCC_AHB1PeriphResetCmd>
 80059f6:	bf00      	nop

080059f8 <GPIO_Init>:
 80059f8:	e92d 0ff0 	stmdb	sp!, {r4, r5, r6, r7, r8, r9, sl, fp}
 80059fc:	680e      	ldr	r6, [r1, #0]
 80059fe:	b084      	sub	sp, #16
 8005a00:	2200      	movs	r2, #0
 8005a02:	4688      	mov	r8, r1
 8005a04:	4613      	mov	r3, r2
 8005a06:	f04f 0b01 	mov.w	fp, #1
 8005a0a:	9600      	str	r6, [sp, #0]
 8005a0c:	468a      	mov	sl, r1
 8005a0e:	e007      	b.n	8005a20 <GPIO_Init+0x28>
 8005a10:	f8dd 9004 	ldr.w	r9, [sp, #4]
 8005a14:	45a1      	cmp	r9, r4
 8005a16:	d039      	beq.n	8005a8c <GPIO_Init+0x94>
 8005a18:	1c4b      	adds	r3, r1, #1
 8005a1a:	1caa      	adds	r2, r5, #2
 8005a1c:	2b10      	cmp	r3, #16
 8005a1e:	d054      	beq.n	8005aca <GPIO_Init+0xd2>
 8005a20:	9e00      	ldr	r6, [sp, #0]
 8005a22:	fa0b f503 	lsl.w	r5, fp, r3
 8005a26:	1c59      	adds	r1, r3, #1
 8005a28:	ea05 0c06 	and.w	ip, r5, r6
 8005a2c:	fa0b f401 	lsl.w	r4, fp, r1
 8005a30:	4026      	ands	r6, r4
 8005a32:	45ac      	cmp	ip, r5
 8005a34:	9601      	str	r6, [sp, #4]
 8005a36:	f102 0502 	add.w	r5, r2, #2
 8005a3a:	d1e9      	bne.n	8005a10 <GPIO_Init+0x18>
 8005a3c:	2603      	movs	r6, #3
 8005a3e:	fa06 f902 	lsl.w	r9, r6, r2
 8005a42:	6807      	ldr	r7, [r0, #0]
 8005a44:	f89a 8004 	ldrb.w	r8, [sl, #4]
 8005a48:	ea6f 0909 	mvn.w	r9, r9
 8005a4c:	464e      	mov	r6, r9
 8005a4e:	403e      	ands	r6, r7
 8005a50:	6006      	str	r6, [r0, #0]
 8005a52:	6807      	ldr	r7, [r0, #0]
 8005a54:	f8cd 900c 	str.w	r9, [sp, #12]
 8005a58:	fa08 f902 	lsl.w	r9, r8, r2
 8005a5c:	f108 38ff 	add.w	r8, r8, #4294967295
 8005a60:	ea49 0907 	orr.w	r9, r9, r7
 8005a64:	f1b8 0f01 	cmp.w	r8, #1
 8005a68:	f8c0 9000 	str.w	r9, [r0]
 8005a6c:	d931      	bls.n	8005ad2 <GPIO_Init+0xda>
 8005a6e:	68c3      	ldr	r3, [r0, #12]
 8005a70:	9f03      	ldr	r7, [sp, #12]
 8005a72:	f89a c007 	ldrb.w	ip, [sl, #7]
 8005a76:	f8dd 9004 	ldr.w	r9, [sp, #4]
 8005a7a:	403b      	ands	r3, r7
 8005a7c:	60c3      	str	r3, [r0, #12]
 8005a7e:	68c3      	ldr	r3, [r0, #12]
 8005a80:	fa0c f202 	lsl.w	r2, ip, r2
 8005a84:	431a      	orrs	r2, r3
 8005a86:	45a1      	cmp	r9, r4
 8005a88:	60c2      	str	r2, [r0, #12]
 8005a8a:	d1c5      	bne.n	8005a18 <GPIO_Init+0x20>
 8005a8c:	2303      	movs	r3, #3
 8005a8e:	6804      	ldr	r4, [r0, #0]
 8005a90:	f89a 2004 	ldrb.w	r2, [sl, #4]
 8005a94:	40ab      	lsls	r3, r5
 8005a96:	43db      	mvns	r3, r3
 8005a98:	401c      	ands	r4, r3
 8005a9a:	6004      	str	r4, [r0, #0]
 8005a9c:	6804      	ldr	r4, [r0, #0]
 8005a9e:	fa02 fc05 	lsl.w	ip, r2, r5
 8005aa2:	3a01      	subs	r2, #1
 8005aa4:	ea4c 0404 	orr.w	r4, ip, r4
 8005aa8:	2a01      	cmp	r2, #1
 8005aaa:	6004      	str	r4, [r0, #0]
 8005aac:	d933      	bls.n	8005b16 <GPIO_Init+0x11e>
 8005aae:	68c2      	ldr	r2, [r0, #12]
 8005ab0:	f89a 4007 	ldrb.w	r4, [sl, #7]
 8005ab4:	4013      	ands	r3, r2
 8005ab6:	60c3      	str	r3, [r0, #12]
 8005ab8:	68c2      	ldr	r2, [r0, #12]
 8005aba:	fa04 f305 	lsl.w	r3, r4, r5
 8005abe:	4313      	orrs	r3, r2
 8005ac0:	60c3      	str	r3, [r0, #12]
 8005ac2:	1c4b      	adds	r3, r1, #1
 8005ac4:	1caa      	adds	r2, r5, #2
 8005ac6:	2b10      	cmp	r3, #16
 8005ac8:	d1aa      	bne.n	8005a20 <GPIO_Init+0x28>
 8005aca:	b004      	add	sp, #16
 8005acc:	e8bd 0ff0 	ldmia.w	sp!, {r4, r5, r6, r7, r8, r9, sl, fp}
 8005ad0:	4770      	bx	lr
 8005ad2:	f8d0 8008 	ldr.w	r8, [r0, #8]
 8005ad6:	9e03      	ldr	r6, [sp, #12]
 8005ad8:	f89a 7006 	ldrb.w	r7, [sl, #6]
 8005adc:	f89a 9005 	ldrb.w	r9, [sl, #5]
 8005ae0:	ea06 0808 	and.w	r8, r6, r8
 8005ae4:	f8c0 8008 	str.w	r8, [r0, #8]
 8005ae8:	f8d0 8008 	ldr.w	r8, [r0, #8]
 8005aec:	fa09 f902 	lsl.w	r9, r9, r2
 8005af0:	ea49 0808 	orr.w	r8, r9, r8
 8005af4:	f8c0 8008 	str.w	r8, [r0, #8]
 8005af8:	f8d0 8004 	ldr.w	r8, [r0, #4]
 8005afc:	ea28 0c0c 	bic.w	ip, r8, ip
 8005b00:	f8c0 c004 	str.w	ip, [r0, #4]
 8005b04:	f8d0 9004 	ldr.w	r9, [r0, #4]
 8005b08:	fa07 f303 	lsl.w	r3, r7, r3
 8005b0c:	b29f      	uxth	r7, r3
 8005b0e:	ea47 0309 	orr.w	r3, r7, r9
 8005b12:	6043      	str	r3, [r0, #4]
 8005b14:	e7ab      	b.n	8005a6e <GPIO_Init+0x76>
 8005b16:	6886      	ldr	r6, [r0, #8]
 8005b18:	f89a 7005 	ldrb.w	r7, [sl, #5]
 8005b1c:	f89a 2006 	ldrb.w	r2, [sl, #6]
 8005b20:	401e      	ands	r6, r3
 8005b22:	6086      	str	r6, [r0, #8]
 8005b24:	6884      	ldr	r4, [r0, #8]
 8005b26:	fa07 fc05 	lsl.w	ip, r7, r5
 8005b2a:	ea4c 0604 	orr.w	r6, ip, r4
 8005b2e:	6086      	str	r6, [r0, #8]
 8005b30:	6847      	ldr	r7, [r0, #4]
 8005b32:	9e01      	ldr	r6, [sp, #4]
 8005b34:	ea27 0706 	bic.w	r7, r7, r6
 8005b38:	6047      	str	r7, [r0, #4]
 8005b3a:	6844      	ldr	r4, [r0, #4]
 8005b3c:	fa02 f201 	lsl.w	r2, r2, r1
 8005b40:	b292      	uxth	r2, r2
 8005b42:	4322      	orrs	r2, r4
 8005b44:	6042      	str	r2, [r0, #4]
 8005b46:	e7b2      	b.n	8005aae <GPIO_Init+0xb6>

08005b48 <GPIO_StructInit>:
 8005b48:	2300      	movs	r3, #0
 8005b4a:	f64f 72ff 	movw	r2, #65535	; 0xffff
 8005b4e:	6002      	str	r2, [r0, #0]
 8005b50:	7103      	strb	r3, [r0, #4]
 8005b52:	7143      	strb	r3, [r0, #5]
 8005b54:	7183      	strb	r3, [r0, #6]
 8005b56:	71c3      	strb	r3, [r0, #7]
 8005b58:	4770      	bx	lr
 8005b5a:	bf00      	nop

08005b5c <GPIO_PinLockConfig>:
 8005b5c:	b082      	sub	sp, #8
 8005b5e:	f44f 3380 	mov.w	r3, #65536	; 0x10000
 8005b62:	9301      	str	r3, [sp, #4]
 8005b64:	9a01      	ldr	r2, [sp, #4]
 8005b66:	ea41 0302 	orr.w	r3, r1, r2
 8005b6a:	9301      	str	r3, [sp, #4]
 8005b6c:	9a01      	ldr	r2, [sp, #4]
 8005b6e:	61c2      	str	r2, [r0, #28]
 8005b70:	61c1      	str	r1, [r0, #28]
 8005b72:	9901      	ldr	r1, [sp, #4]
 8005b74:	61c1      	str	r1, [r0, #28]
 8005b76:	69c3      	ldr	r3, [r0, #28]
 8005b78:	9301      	str	r3, [sp, #4]
 8005b7a:	69c0      	ldr	r0, [r0, #28]
 8005b7c:	9001      	str	r0, [sp, #4]
 8005b7e:	b002      	add	sp, #8
 8005b80:	4770      	bx	lr
 8005b82:	bf00      	nop

08005b84 <GPIO_ReadInputDataBit>:
 8005b84:	6903      	ldr	r3, [r0, #16]
 8005b86:	4219      	tst	r1, r3
 8005b88:	bf0c      	ite	eq
 8005b8a:	2000      	moveq	r0, #0
 8005b8c:	2001      	movne	r0, #1
 8005b8e:	4770      	bx	lr

08005b90 <GPIO_ReadInputData>:
 8005b90:	6900      	ldr	r0, [r0, #16]
 8005b92:	b280      	uxth	r0, r0
 8005b94:	4770      	bx	lr
 8005b96:	bf00      	nop

08005b98 <GPIO_ReadOutputDataBit>:
 8005b98:	6943      	ldr	r3, [r0, #20]
 8005b9a:	4219      	tst	r1, r3
 8005b9c:	bf0c      	ite	eq
 8005b9e:	2000      	moveq	r0, #0
 8005ba0:	2001      	movne	r0, #1
 8005ba2:	4770      	bx	lr

08005ba4 <GPIO_ReadOutputData>:
 8005ba4:	6940      	ldr	r0, [r0, #20]
 8005ba6:	b280      	uxth	r0, r0
 8005ba8:	4770      	bx	lr
 8005baa:	bf00      	nop

08005bac <GPIO_SetBits>:
 8005bac:	8301      	strh	r1, [r0, #24]
 8005bae:	4770      	bx	lr

08005bb0 <GPIO_ResetBits>:
 8005bb0:	8341      	strh	r1, [r0, #26]
 8005bb2:	4770      	bx	lr

08005bb4 <GPIO_WriteBit>:
 8005bb4:	b90a      	cbnz	r2, 8005bba <GPIO_WriteBit+0x6>
 8005bb6:	8341      	strh	r1, [r0, #26]
 8005bb8:	4770      	bx	lr
 8005bba:	8301      	strh	r1, [r0, #24]
 8005bbc:	4770      	bx	lr
 8005bbe:	bf00      	nop

08005bc0 <GPIO_Write>:
 8005bc0:	6141      	str	r1, [r0, #20]
 8005bc2:	4770      	bx	lr

08005bc4 <GPIO_ToggleBits>:
 8005bc4:	6943      	ldr	r3, [r0, #20]
 8005bc6:	4059      	eors	r1, r3
 8005bc8:	6141      	str	r1, [r0, #20]
 8005bca:	4770      	bx	lr

08005bcc <GPIO_PinAFConfig>:
 8005bcc:	08cb      	lsrs	r3, r1, #3
 8005bce:	3308      	adds	r3, #8
 8005bd0:	f001 0107 	and.w	r1, r1, #7
 8005bd4:	b430      	push	{r4, r5}
 8005bd6:	0089      	lsls	r1, r1, #2
 8005bd8:	f850 5023 	ldr.w	r5, [r0, r3, lsl #2]
 8005bdc:	240f      	movs	r4, #15
 8005bde:	fa04 f401 	lsl.w	r4, r4, r1
 8005be2:	ea25 0404 	bic.w	r4, r5, r4
 8005be6:	f840 4023 	str.w	r4, [r0, r3, lsl #2]
 8005bea:	f850 4023 	ldr.w	r4, [r0, r3, lsl #2]
 8005bee:	fa02 f201 	lsl.w	r2, r2, r1
 8005bf2:	4314      	orrs	r4, r2
 8005bf4:	f840 4023 	str.w	r4, [r0, r3, lsl #2]
 8005bf8:	bc30      	pop	{r4, r5}
 8005bfa:	4770      	bx	lr
 8005bfc:	0000      	movs	r0, r0
	...

08005c00 <ceil>:
 8005c00:	e92d 4ff8 	stmdb	sp!, {r3, r4, r5, r6, r7, r8, r9, sl, fp, lr}
 8005c04:	f3c1 590a 	ubfx	r9, r1, #20, #11
 8005c08:	f2a9 36ff 	subw	r6, r9, #1023	; 0x3ff
 8005c0c:	2e13      	cmp	r6, #19
 8005c0e:	4602      	mov	r2, r0
 8005c10:	460b      	mov	r3, r1
 8005c12:	4604      	mov	r4, r0
 8005c14:	460d      	mov	r5, r1
 8005c16:	460f      	mov	r7, r1
 8005c18:	468a      	mov	sl, r1
 8005c1a:	4680      	mov	r8, r0
 8005c1c:	dc27      	bgt.n	8005c6e <ceil+0x6e>
 8005c1e:	2e00      	cmp	r6, #0
 8005c20:	db59      	blt.n	8005cd6 <ceil+0xd6>
 8005c22:	f64f 74ff 	movw	r4, #65535	; 0xffff
 8005c26:	f2c0 040f 	movt	r4, #15
 8005c2a:	fa44 f406 	asr.w	r4, r4, r6
 8005c2e:	ea04 0501 	and.w	r5, r4, r1
 8005c32:	4305      	orrs	r5, r0
 8005c34:	d017      	beq.n	8005c66 <ceil+0x66>
 8005c36:	a338      	add	r3, pc, #224	; (adr r3, 8005d18 <ceil+0x118>)
 8005c38:	e9d3 2300 	ldrd	r2, r3, [r3]
 8005c3c:	f000 f8fe 	bl	8005e3c <__adddf3>
 8005c40:	2200      	movs	r2, #0
 8005c42:	2300      	movs	r3, #0
 8005c44:	f000 fd3c 	bl	80066c0 <__aeabi_dcmpgt>
 8005c48:	b158      	cbz	r0, 8005c62 <ceil+0x62>
 8005c4a:	2f00      	cmp	r7, #0
 8005c4c:	dd05      	ble.n	8005c5a <ceil+0x5a>
 8005c4e:	f44f 1380 	mov.w	r3, #1048576	; 0x100000
 8005c52:	fa43 f606 	asr.w	r6, r3, r6
 8005c56:	eb07 0a06 	add.w	sl, r7, r6
 8005c5a:	ea2a 0704 	bic.w	r7, sl, r4
 8005c5e:	f04f 0800 	mov.w	r8, #0
 8005c62:	463b      	mov	r3, r7
 8005c64:	4642      	mov	r2, r8
 8005c66:	4610      	mov	r0, r2
 8005c68:	4619      	mov	r1, r3
 8005c6a:	e8bd 8ff8 	ldmia.w	sp!, {r3, r4, r5, r6, r7, r8, r9, sl, fp, pc}
 8005c6e:	2e33      	cmp	r6, #51	; 0x33
 8005c70:	dd07      	ble.n	8005c82 <ceil+0x82>
 8005c72:	f5b6 6f80 	cmp.w	r6, #1024	; 0x400
 8005c76:	d1f6      	bne.n	8005c66 <ceil+0x66>
 8005c78:	f000 f8e0 	bl	8005e3c <__adddf3>
 8005c7c:	4602      	mov	r2, r0
 8005c7e:	460b      	mov	r3, r1
 8005c80:	e7f1      	b.n	8005c66 <ceil+0x66>
 8005c82:	f2a9 4c13 	subw	ip, r9, #1043	; 0x413
 8005c86:	f04f 3bff 	mov.w	fp, #4294967295
 8005c8a:	fa2b fb0c 	lsr.w	fp, fp, ip
 8005c8e:	ea1b 0f00 	tst.w	fp, r0
 8005c92:	d0e8      	beq.n	8005c66 <ceil+0x66>
 8005c94:	a320      	add	r3, pc, #128	; (adr r3, 8005d18 <ceil+0x118>)
 8005c96:	e9d3 2300 	ldrd	r2, r3, [r3]
 8005c9a:	f000 f8cf 	bl	8005e3c <__adddf3>
 8005c9e:	2200      	movs	r2, #0
 8005ca0:	2300      	movs	r3, #0
 8005ca2:	f000 fd0d 	bl	80066c0 <__aeabi_dcmpgt>
 8005ca6:	2800      	cmp	r0, #0
 8005ca8:	d0db      	beq.n	8005c62 <ceil+0x62>
 8005caa:	2d00      	cmp	r5, #0
 8005cac:	dd0d      	ble.n	8005cca <ceil+0xca>
 8005cae:	2e14      	cmp	r6, #20
 8005cb0:	d009      	beq.n	8005cc6 <ceil+0xc6>
 8005cb2:	f5c9 6986 	rsb	r9, r9, #1072	; 0x430
 8005cb6:	2401      	movs	r4, #1
 8005cb8:	f109 0903 	add.w	r9, r9, #3
 8005cbc:	fa04 f009 	lsl.w	r0, r4, r9
 8005cc0:	eb10 0408 	adds.w	r4, r0, r8
 8005cc4:	d301      	bcc.n	8005cca <ceil+0xca>
 8005cc6:	f10a 0a01 	add.w	sl, sl, #1
 8005cca:	ea24 080b 	bic.w	r8, r4, fp
 8005cce:	4657      	mov	r7, sl
 8005cd0:	463b      	mov	r3, r7
 8005cd2:	4642      	mov	r2, r8
 8005cd4:	e7c7      	b.n	8005c66 <ceil+0x66>
 8005cd6:	a310      	add	r3, pc, #64	; (adr r3, 8005d18 <ceil+0x118>)
 8005cd8:	e9d3 2300 	ldrd	r2, r3, [r3]
 8005cdc:	f000 f8ae 	bl	8005e3c <__adddf3>
 8005ce0:	2200      	movs	r2, #0
 8005ce2:	2300      	movs	r3, #0
 8005ce4:	f000 fcec 	bl	80066c0 <__aeabi_dcmpgt>
 8005ce8:	2800      	cmp	r0, #0
 8005cea:	d0ba      	beq.n	8005c62 <ceil+0x62>
 8005cec:	2d00      	cmp	r5, #0
 8005cee:	db0b      	blt.n	8005d08 <ceil+0x108>
 8005cf0:	2100      	movs	r1, #0
 8005cf2:	ea44 0205 	orr.w	r2, r4, r5
 8005cf6:	428a      	cmp	r2, r1
 8005cf8:	f6c3 71f0 	movt	r1, #16368	; 0x3ff0
 8005cfc:	bf18      	it	ne
 8005cfe:	f04f 0800 	movne.w	r8, #0
 8005d02:	bf18      	it	ne
 8005d04:	460f      	movne	r7, r1
 8005d06:	e7ac      	b.n	8005c62 <ceil+0x62>
 8005d08:	f04f 0800 	mov.w	r8, #0
 8005d0c:	f04f 4700 	mov.w	r7, #2147483648	; 0x80000000
 8005d10:	e7a7      	b.n	8005c62 <ceil+0x62>
 8005d12:	bf00      	nop
 8005d14:	f3af 8000 	nop.w
 8005d18:	8800759c 	.word	0x8800759c
 8005d1c:	7e37e43c 	.word	0x7e37e43c

08005d20 <floor>:
 8005d20:	e92d 43f8 	stmdb	sp!, {r3, r4, r5, r6, r7, r8, r9, lr}
 8005d24:	f3c1 580a 	ubfx	r8, r1, #20, #11
 8005d28:	f2a8 36ff 	subw	r6, r8, #1023	; 0x3ff
 8005d2c:	2e13      	cmp	r6, #19
 8005d2e:	4602      	mov	r2, r0
 8005d30:	460b      	mov	r3, r1
 8005d32:	4604      	mov	r4, r0
 8005d34:	460d      	mov	r5, r1
 8005d36:	460f      	mov	r7, r1
 8005d38:	dc21      	bgt.n	8005d7e <floor+0x5e>
 8005d3a:	2e00      	cmp	r6, #0
 8005d3c:	db45      	blt.n	8005dca <floor+0xaa>
 8005d3e:	f64f 7cff 	movw	ip, #65535	; 0xffff
 8005d42:	f2c0 0c0f 	movt	ip, #15
 8005d46:	fa4c f806 	asr.w	r8, ip, r6
 8005d4a:	ea08 0c01 	and.w	ip, r8, r1
 8005d4e:	ea5c 0c00 	orrs.w	ip, ip, r0
 8005d52:	d010      	beq.n	8005d76 <floor+0x56>
 8005d54:	a334      	add	r3, pc, #208	; (adr r3, 8005e28 <floor+0x108>)
 8005d56:	e9d3 2300 	ldrd	r2, r3, [r3]
 8005d5a:	f000 f86f 	bl	8005e3c <__adddf3>
 8005d5e:	2200      	movs	r2, #0
 8005d60:	2300      	movs	r3, #0
 8005d62:	f000 fcad 	bl	80066c0 <__aeabi_dcmpgt>
 8005d66:	b120      	cbz	r0, 8005d72 <floor+0x52>
 8005d68:	2d00      	cmp	r5, #0
 8005d6a:	db3e      	blt.n	8005dea <floor+0xca>
 8005d6c:	ea25 0708 	bic.w	r7, r5, r8
 8005d70:	2400      	movs	r4, #0
 8005d72:	463b      	mov	r3, r7
 8005d74:	4622      	mov	r2, r4
 8005d76:	4610      	mov	r0, r2
 8005d78:	4619      	mov	r1, r3
 8005d7a:	e8bd 83f8 	ldmia.w	sp!, {r3, r4, r5, r6, r7, r8, r9, pc}
 8005d7e:	2e33      	cmp	r6, #51	; 0x33
 8005d80:	dd07      	ble.n	8005d92 <floor+0x72>
 8005d82:	f5b6 6f80 	cmp.w	r6, #1024	; 0x400
 8005d86:	d1f6      	bne.n	8005d76 <floor+0x56>
 8005d88:	f000 f858 	bl	8005e3c <__adddf3>
 8005d8c:	4602      	mov	r2, r0
 8005d8e:	460b      	mov	r3, r1
 8005d90:	e7f1      	b.n	8005d76 <floor+0x56>
 8005d92:	f2a8 4c13 	subw	ip, r8, #1043	; 0x413
 8005d96:	f04f 39ff 	mov.w	r9, #4294967295
 8005d9a:	fa29 f90c 	lsr.w	r9, r9, ip
 8005d9e:	ea19 0f00 	tst.w	r9, r0
 8005da2:	d0e8      	beq.n	8005d76 <floor+0x56>
 8005da4:	a320      	add	r3, pc, #128	; (adr r3, 8005e28 <floor+0x108>)
 8005da6:	e9d3 2300 	ldrd	r2, r3, [r3]
 8005daa:	f000 f847 	bl	8005e3c <__adddf3>
 8005dae:	2200      	movs	r2, #0
 8005db0:	2300      	movs	r3, #0
 8005db2:	f000 fc85 	bl	80066c0 <__aeabi_dcmpgt>
 8005db6:	2800      	cmp	r0, #0
 8005db8:	d0db      	beq.n	8005d72 <floor+0x52>
 8005dba:	2d00      	cmp	r5, #0
 8005dbc:	db1b      	blt.n	8005df6 <floor+0xd6>
 8005dbe:	ea24 0409 	bic.w	r4, r4, r9
 8005dc2:	462f      	mov	r7, r5
 8005dc4:	463b      	mov	r3, r7
 8005dc6:	4622      	mov	r2, r4
 8005dc8:	e7d5      	b.n	8005d76 <floor+0x56>
 8005dca:	a317      	add	r3, pc, #92	; (adr r3, 8005e28 <floor+0x108>)
 8005dcc:	e9d3 2300 	ldrd	r2, r3, [r3]
 8005dd0:	f000 f834 	bl	8005e3c <__adddf3>
 8005dd4:	2200      	movs	r2, #0
 8005dd6:	2300      	movs	r3, #0
 8005dd8:	f000 fc72 	bl	80066c0 <__aeabi_dcmpgt>
 8005ddc:	2800      	cmp	r0, #0
 8005dde:	d0c8      	beq.n	8005d72 <floor+0x52>
 8005de0:	2d00      	cmp	r5, #0
 8005de2:	db15      	blt.n	8005e10 <floor+0xf0>
 8005de4:	2400      	movs	r4, #0
 8005de6:	4627      	mov	r7, r4
 8005de8:	e7c3      	b.n	8005d72 <floor+0x52>
 8005dea:	f44f 1180 	mov.w	r1, #1048576	; 0x100000
 8005dee:	fa41 f606 	asr.w	r6, r1, r6
 8005df2:	19ad      	adds	r5, r5, r6
 8005df4:	e7ba      	b.n	8005d6c <floor+0x4c>
 8005df6:	2e14      	cmp	r6, #20
 8005df8:	d008      	beq.n	8005e0c <floor+0xec>
 8005dfa:	f5c8 6886 	rsb	r8, r8, #1072	; 0x430
 8005dfe:	2301      	movs	r3, #1
 8005e00:	f108 0803 	add.w	r8, r8, #3
 8005e04:	fa03 f008 	lsl.w	r0, r3, r8
 8005e08:	1904      	adds	r4, r0, r4
 8005e0a:	d3d8      	bcc.n	8005dbe <floor+0x9e>
 8005e0c:	3501      	adds	r5, #1
 8005e0e:	e7d6      	b.n	8005dbe <floor+0x9e>
 8005e10:	f025 4200 	bic.w	r2, r5, #2147483648	; 0x80000000
 8005e14:	4322      	orrs	r2, r4
 8005e16:	2300      	movs	r3, #0
 8005e18:	429a      	cmp	r2, r3
 8005e1a:	f6cb 73f0 	movt	r3, #49136	; 0xbff0
 8005e1e:	bf18      	it	ne
 8005e20:	2400      	movne	r4, #0
 8005e22:	bf18      	it	ne
 8005e24:	461f      	movne	r7, r3
 8005e26:	e7a4      	b.n	8005d72 <floor+0x52>
 8005e28:	8800759c 	.word	0x8800759c
 8005e2c:	7e37e43c 	.word	0x7e37e43c

08005e30 <__aeabi_drsub>:
 8005e30:	f081 4100 	eor.w	r1, r1, #2147483648	; 0x80000000
 8005e34:	e002      	b.n	8005e3c <__adddf3>
 8005e36:	bf00      	nop

08005e38 <__aeabi_dsub>:
 8005e38:	f083 4300 	eor.w	r3, r3, #2147483648	; 0x80000000

08005e3c <__adddf3>:
 8005e3c:	b530      	push	{r4, r5, lr}
 8005e3e:	ea4f 0441 	mov.w	r4, r1, lsl #1
 8005e42:	ea4f 0543 	mov.w	r5, r3, lsl #1
 8005e46:	ea94 0f05 	teq	r4, r5
 8005e4a:	bf08      	it	eq
 8005e4c:	ea90 0f02 	teqeq	r0, r2
 8005e50:	bf1f      	itttt	ne
 8005e52:	ea54 0c00 	orrsne.w	ip, r4, r0
 8005e56:	ea55 0c02 	orrsne.w	ip, r5, r2
 8005e5a:	ea7f 5c64 	mvnsne.w	ip, r4, asr #21
 8005e5e:	ea7f 5c65 	mvnsne.w	ip, r5, asr #21
 8005e62:	f000 80e2 	beq.w	800602a <__adddf3+0x1ee>
 8005e66:	ea4f 5454 	mov.w	r4, r4, lsr #21
 8005e6a:	ebd4 5555 	rsbs	r5, r4, r5, lsr #21
 8005e6e:	bfb8      	it	lt
 8005e70:	426d      	neglt	r5, r5
 8005e72:	dd0c      	ble.n	8005e8e <__adddf3+0x52>
 8005e74:	442c      	add	r4, r5
 8005e76:	ea80 0202 	eor.w	r2, r0, r2
 8005e7a:	ea81 0303 	eor.w	r3, r1, r3
 8005e7e:	ea82 0000 	eor.w	r0, r2, r0
 8005e82:	ea83 0101 	eor.w	r1, r3, r1
 8005e86:	ea80 0202 	eor.w	r2, r0, r2
 8005e8a:	ea81 0303 	eor.w	r3, r1, r3
 8005e8e:	2d36      	cmp	r5, #54	; 0x36
 8005e90:	bf88      	it	hi
 8005e92:	bd30      	pophi	{r4, r5, pc}
 8005e94:	f011 4f00 	tst.w	r1, #2147483648	; 0x80000000
 8005e98:	ea4f 3101 	mov.w	r1, r1, lsl #12
 8005e9c:	f44f 1c80 	mov.w	ip, #1048576	; 0x100000
 8005ea0:	ea4c 3111 	orr.w	r1, ip, r1, lsr #12
 8005ea4:	d002      	beq.n	8005eac <__adddf3+0x70>
 8005ea6:	4240      	negs	r0, r0
 8005ea8:	eb61 0141 	sbc.w	r1, r1, r1, lsl #1
 8005eac:	f013 4f00 	tst.w	r3, #2147483648	; 0x80000000
 8005eb0:	ea4f 3303 	mov.w	r3, r3, lsl #12
 8005eb4:	ea4c 3313 	orr.w	r3, ip, r3, lsr #12
 8005eb8:	d002      	beq.n	8005ec0 <__adddf3+0x84>
 8005eba:	4252      	negs	r2, r2
 8005ebc:	eb63 0343 	sbc.w	r3, r3, r3, lsl #1
 8005ec0:	ea94 0f05 	teq	r4, r5
 8005ec4:	f000 80a7 	beq.w	8006016 <__adddf3+0x1da>
 8005ec8:	f1a4 0401 	sub.w	r4, r4, #1
 8005ecc:	f1d5 0e20 	rsbs	lr, r5, #32
 8005ed0:	db0d      	blt.n	8005eee <__adddf3+0xb2>
 8005ed2:	fa02 fc0e 	lsl.w	ip, r2, lr
 8005ed6:	fa22 f205 	lsr.w	r2, r2, r5
 8005eda:	1880      	adds	r0, r0, r2
 8005edc:	f141 0100 	adc.w	r1, r1, #0
 8005ee0:	fa03 f20e 	lsl.w	r2, r3, lr
 8005ee4:	1880      	adds	r0, r0, r2
 8005ee6:	fa43 f305 	asr.w	r3, r3, r5
 8005eea:	4159      	adcs	r1, r3
 8005eec:	e00e      	b.n	8005f0c <__adddf3+0xd0>
 8005eee:	f1a5 0520 	sub.w	r5, r5, #32
 8005ef2:	f10e 0e20 	add.w	lr, lr, #32
 8005ef6:	2a01      	cmp	r2, #1
 8005ef8:	fa03 fc0e 	lsl.w	ip, r3, lr
 8005efc:	bf28      	it	cs
 8005efe:	f04c 0c02 	orrcs.w	ip, ip, #2
 8005f02:	fa43 f305 	asr.w	r3, r3, r5
 8005f06:	18c0      	adds	r0, r0, r3
 8005f08:	eb51 71e3 	adcs.w	r1, r1, r3, asr #31
 8005f0c:	f001 4500 	and.w	r5, r1, #2147483648	; 0x80000000
 8005f10:	d507      	bpl.n	8005f22 <__adddf3+0xe6>
 8005f12:	f04f 0e00 	mov.w	lr, #0
 8005f16:	f1dc 0c00 	rsbs	ip, ip, #0
 8005f1a:	eb7e 0000 	sbcs.w	r0, lr, r0
 8005f1e:	eb6e 0101 	sbc.w	r1, lr, r1
 8005f22:	f5b1 1f80 	cmp.w	r1, #1048576	; 0x100000
 8005f26:	d31b      	bcc.n	8005f60 <__adddf3+0x124>
 8005f28:	f5b1 1f00 	cmp.w	r1, #2097152	; 0x200000
 8005f2c:	d30c      	bcc.n	8005f48 <__adddf3+0x10c>
 8005f2e:	0849      	lsrs	r1, r1, #1
 8005f30:	ea5f 0030 	movs.w	r0, r0, rrx
 8005f34:	ea4f 0c3c 	mov.w	ip, ip, rrx
 8005f38:	f104 0401 	add.w	r4, r4, #1
 8005f3c:	ea4f 5244 	mov.w	r2, r4, lsl #21
 8005f40:	f512 0f80 	cmn.w	r2, #4194304	; 0x400000
 8005f44:	f080 809a 	bcs.w	800607c <__adddf3+0x240>
 8005f48:	f1bc 4f00 	cmp.w	ip, #2147483648	; 0x80000000
 8005f4c:	bf08      	it	eq
 8005f4e:	ea5f 0c50 	movseq.w	ip, r0, lsr #1
 8005f52:	f150 0000 	adcs.w	r0, r0, #0
 8005f56:	eb41 5104 	adc.w	r1, r1, r4, lsl #20
 8005f5a:	ea41 0105 	orr.w	r1, r1, r5
 8005f5e:	bd30      	pop	{r4, r5, pc}
 8005f60:	ea5f 0c4c 	movs.w	ip, ip, lsl #1
 8005f64:	4140      	adcs	r0, r0
 8005f66:	eb41 0101 	adc.w	r1, r1, r1
 8005f6a:	f411 1f80 	tst.w	r1, #1048576	; 0x100000
 8005f6e:	f1a4 0401 	sub.w	r4, r4, #1
 8005f72:	d1e9      	bne.n	8005f48 <__adddf3+0x10c>
 8005f74:	f091 0f00 	teq	r1, #0
 8005f78:	bf04      	itt	eq
 8005f7a:	4601      	moveq	r1, r0
 8005f7c:	2000      	moveq	r0, #0
 8005f7e:	fab1 f381 	clz	r3, r1
 8005f82:	bf08      	it	eq
 8005f84:	3320      	addeq	r3, #32
 8005f86:	f1a3 030b 	sub.w	r3, r3, #11
 8005f8a:	f1b3 0220 	subs.w	r2, r3, #32
 8005f8e:	da0c      	bge.n	8005faa <__adddf3+0x16e>
 8005f90:	320c      	adds	r2, #12
 8005f92:	dd08      	ble.n	8005fa6 <__adddf3+0x16a>
 8005f94:	f102 0c14 	add.w	ip, r2, #20
 8005f98:	f1c2 020c 	rsb	r2, r2, #12
 8005f9c:	fa01 f00c 	lsl.w	r0, r1, ip
 8005fa0:	fa21 f102 	lsr.w	r1, r1, r2
 8005fa4:	e00c      	b.n	8005fc0 <__adddf3+0x184>
 8005fa6:	f102 0214 	add.w	r2, r2, #20
 8005faa:	bfd8      	it	le
 8005fac:	f1c2 0c20 	rsble	ip, r2, #32
 8005fb0:	fa01 f102 	lsl.w	r1, r1, r2
 8005fb4:	fa20 fc0c 	lsr.w	ip, r0, ip
 8005fb8:	bfdc      	itt	le
 8005fba:	ea41 010c 	orrle.w	r1, r1, ip
 8005fbe:	4090      	lslle	r0, r2
 8005fc0:	1ae4      	subs	r4, r4, r3
 8005fc2:	bfa2      	ittt	ge
 8005fc4:	eb01 5104 	addge.w	r1, r1, r4, lsl #20
 8005fc8:	4329      	orrge	r1, r5
 8005fca:	bd30      	popge	{r4, r5, pc}
 8005fcc:	ea6f 0404 	mvn.w	r4, r4
 8005fd0:	3c1f      	subs	r4, #31
 8005fd2:	da1c      	bge.n	800600e <__adddf3+0x1d2>
 8005fd4:	340c      	adds	r4, #12
 8005fd6:	dc0e      	bgt.n	8005ff6 <__adddf3+0x1ba>
 8005fd8:	f104 0414 	add.w	r4, r4, #20
 8005fdc:	f1c4 0220 	rsb	r2, r4, #32
 8005fe0:	fa20 f004 	lsr.w	r0, r0, r4
 8005fe4:	fa01 f302 	lsl.w	r3, r1, r2
 8005fe8:	ea40 0003 	orr.w	r0, r0, r3
 8005fec:	fa21 f304 	lsr.w	r3, r1, r4
 8005ff0:	ea45 0103 	orr.w	r1, r5, r3
 8005ff4:	bd30      	pop	{r4, r5, pc}
 8005ff6:	f1c4 040c 	rsb	r4, r4, #12
 8005ffa:	f1c4 0220 	rsb	r2, r4, #32
 8005ffe:	fa20 f002 	lsr.w	r0, r0, r2
 8006002:	fa01 f304 	lsl.w	r3, r1, r4
 8006006:	ea40 0003 	orr.w	r0, r0, r3
 800600a:	4629      	mov	r1, r5
 800600c:	bd30      	pop	{r4, r5, pc}
 800600e:	fa21 f004 	lsr.w	r0, r1, r4
 8006012:	4629      	mov	r1, r5
 8006014:	bd30      	pop	{r4, r5, pc}
 8006016:	f094 0f00 	teq	r4, #0
 800601a:	f483 1380 	eor.w	r3, r3, #1048576	; 0x100000
 800601e:	bf06      	itte	eq
 8006020:	f481 1180 	eoreq.w	r1, r1, #1048576	; 0x100000
 8006024:	3401      	addeq	r4, #1
 8006026:	3d01      	subne	r5, #1
 8006028:	e74e      	b.n	8005ec8 <__adddf3+0x8c>
 800602a:	ea7f 5c64 	mvns.w	ip, r4, asr #21
 800602e:	bf18      	it	ne
 8006030:	ea7f 5c65 	mvnsne.w	ip, r5, asr #21
 8006034:	d029      	beq.n	800608a <__adddf3+0x24e>
 8006036:	ea94 0f05 	teq	r4, r5
 800603a:	bf08      	it	eq
 800603c:	ea90 0f02 	teqeq	r0, r2
 8006040:	d005      	beq.n	800604e <__adddf3+0x212>
 8006042:	ea54 0c00 	orrs.w	ip, r4, r0
 8006046:	bf04      	itt	eq
 8006048:	4619      	moveq	r1, r3
 800604a:	4610      	moveq	r0, r2
 800604c:	bd30      	pop	{r4, r5, pc}
 800604e:	ea91 0f03 	teq	r1, r3
 8006052:	bf1e      	ittt	ne
 8006054:	2100      	movne	r1, #0
 8006056:	2000      	movne	r0, #0
 8006058:	bd30      	popne	{r4, r5, pc}
 800605a:	ea5f 5c54 	movs.w	ip, r4, lsr #21
 800605e:	d105      	bne.n	800606c <__adddf3+0x230>
 8006060:	0040      	lsls	r0, r0, #1
 8006062:	4149      	adcs	r1, r1
 8006064:	bf28      	it	cs
 8006066:	f041 4100 	orrcs.w	r1, r1, #2147483648	; 0x80000000
 800606a:	bd30      	pop	{r4, r5, pc}
 800606c:	f514 0480 	adds.w	r4, r4, #4194304	; 0x400000
 8006070:	bf3c      	itt	cc
 8006072:	f501 1180 	addcc.w	r1, r1, #1048576	; 0x100000
 8006076:	bd30      	popcc	{r4, r5, pc}
 8006078:	f001 4500 	and.w	r5, r1, #2147483648	; 0x80000000
 800607c:	f045 41fe 	orr.w	r1, r5, #2130706432	; 0x7f000000
 8006080:	f441 0170 	orr.w	r1, r1, #15728640	; 0xf00000
 8006084:	f04f 0000 	mov.w	r0, #0
 8006088:	bd30      	pop	{r4, r5, pc}
 800608a:	ea7f 5c64 	mvns.w	ip, r4, asr #21
 800608e:	bf1a      	itte	ne
 8006090:	4619      	movne	r1, r3
 8006092:	4610      	movne	r0, r2
 8006094:	ea7f 5c65 	mvnseq.w	ip, r5, asr #21
 8006098:	bf1c      	itt	ne
 800609a:	460b      	movne	r3, r1
 800609c:	4602      	movne	r2, r0
 800609e:	ea50 3401 	orrs.w	r4, r0, r1, lsl #12
 80060a2:	bf06      	itte	eq
 80060a4:	ea52 3503 	orrseq.w	r5, r2, r3, lsl #12
 80060a8:	ea91 0f03 	teqeq	r1, r3
 80060ac:	f441 2100 	orrne.w	r1, r1, #524288	; 0x80000
 80060b0:	bd30      	pop	{r4, r5, pc}
 80060b2:	bf00      	nop

080060b4 <__aeabi_ui2d>:
 80060b4:	f090 0f00 	teq	r0, #0
 80060b8:	bf04      	itt	eq
 80060ba:	2100      	moveq	r1, #0
 80060bc:	4770      	bxeq	lr
 80060be:	b530      	push	{r4, r5, lr}
 80060c0:	f44f 6480 	mov.w	r4, #1024	; 0x400
 80060c4:	f104 0432 	add.w	r4, r4, #50	; 0x32
 80060c8:	f04f 0500 	mov.w	r5, #0
 80060cc:	f04f 0100 	mov.w	r1, #0
 80060d0:	e750      	b.n	8005f74 <__adddf3+0x138>
 80060d2:	bf00      	nop

080060d4 <__aeabi_i2d>:
 80060d4:	f090 0f00 	teq	r0, #0
 80060d8:	bf04      	itt	eq
 80060da:	2100      	moveq	r1, #0
 80060dc:	4770      	bxeq	lr
 80060de:	b530      	push	{r4, r5, lr}
 80060e0:	f44f 6480 	mov.w	r4, #1024	; 0x400
 80060e4:	f104 0432 	add.w	r4, r4, #50	; 0x32
 80060e8:	f010 4500 	ands.w	r5, r0, #2147483648	; 0x80000000
 80060ec:	bf48      	it	mi
 80060ee:	4240      	negmi	r0, r0
 80060f0:	f04f 0100 	mov.w	r1, #0
 80060f4:	e73e      	b.n	8005f74 <__adddf3+0x138>
 80060f6:	bf00      	nop

080060f8 <__aeabi_f2d>:
 80060f8:	0042      	lsls	r2, r0, #1
 80060fa:	ea4f 01e2 	mov.w	r1, r2, asr #3
 80060fe:	ea4f 0131 	mov.w	r1, r1, rrx
 8006102:	ea4f 7002 	mov.w	r0, r2, lsl #28
 8006106:	bf1f      	itttt	ne
 8006108:	f012 437f 	andsne.w	r3, r2, #4278190080	; 0xff000000
 800610c:	f093 4f7f 	teqne	r3, #4278190080	; 0xff000000
 8006110:	f081 5160 	eorne.w	r1, r1, #939524096	; 0x38000000
 8006114:	4770      	bxne	lr
 8006116:	f092 0f00 	teq	r2, #0
 800611a:	bf14      	ite	ne
 800611c:	f093 4f7f 	teqne	r3, #4278190080	; 0xff000000
 8006120:	4770      	bxeq	lr
 8006122:	b530      	push	{r4, r5, lr}
 8006124:	f44f 7460 	mov.w	r4, #896	; 0x380
 8006128:	f001 4500 	and.w	r5, r1, #2147483648	; 0x80000000
 800612c:	f021 4100 	bic.w	r1, r1, #2147483648	; 0x80000000
 8006130:	e720      	b.n	8005f74 <__adddf3+0x138>
 8006132:	bf00      	nop

08006134 <__aeabi_ul2d>:
 8006134:	ea50 0201 	orrs.w	r2, r0, r1
 8006138:	bf08      	it	eq
 800613a:	4770      	bxeq	lr
 800613c:	b530      	push	{r4, r5, lr}
 800613e:	f04f 0500 	mov.w	r5, #0
 8006142:	e00a      	b.n	800615a <__aeabi_l2d+0x16>

08006144 <__aeabi_l2d>:
 8006144:	ea50 0201 	orrs.w	r2, r0, r1
 8006148:	bf08      	it	eq
 800614a:	4770      	bxeq	lr
 800614c:	b530      	push	{r4, r5, lr}
 800614e:	f011 4500 	ands.w	r5, r1, #2147483648	; 0x80000000
 8006152:	d502      	bpl.n	800615a <__aeabi_l2d+0x16>
 8006154:	4240      	negs	r0, r0
 8006156:	eb61 0141 	sbc.w	r1, r1, r1, lsl #1
 800615a:	f44f 6480 	mov.w	r4, #1024	; 0x400
 800615e:	f104 0432 	add.w	r4, r4, #50	; 0x32
 8006162:	ea5f 5c91 	movs.w	ip, r1, lsr #22
 8006166:	f43f aedc 	beq.w	8005f22 <__adddf3+0xe6>
 800616a:	f04f 0203 	mov.w	r2, #3
 800616e:	ea5f 0cdc 	movs.w	ip, ip, lsr #3
 8006172:	bf18      	it	ne
 8006174:	3203      	addne	r2, #3
 8006176:	ea5f 0cdc 	movs.w	ip, ip, lsr #3
 800617a:	bf18      	it	ne
 800617c:	3203      	addne	r2, #3
 800617e:	eb02 02dc 	add.w	r2, r2, ip, lsr #3
 8006182:	f1c2 0320 	rsb	r3, r2, #32
 8006186:	fa00 fc03 	lsl.w	ip, r0, r3
 800618a:	fa20 f002 	lsr.w	r0, r0, r2
 800618e:	fa01 fe03 	lsl.w	lr, r1, r3
 8006192:	ea40 000e 	orr.w	r0, r0, lr
 8006196:	fa21 f102 	lsr.w	r1, r1, r2
 800619a:	4414      	add	r4, r2
 800619c:	e6c1      	b.n	8005f22 <__adddf3+0xe6>
 800619e:	bf00      	nop

080061a0 <__aeabi_dmul>:
 80061a0:	b570      	push	{r4, r5, r6, lr}
 80061a2:	f04f 0cff 	mov.w	ip, #255	; 0xff
 80061a6:	f44c 6ce0 	orr.w	ip, ip, #1792	; 0x700
 80061aa:	ea1c 5411 	ands.w	r4, ip, r1, lsr #20
 80061ae:	bf1d      	ittte	ne
 80061b0:	ea1c 5513 	andsne.w	r5, ip, r3, lsr #20
 80061b4:	ea94 0f0c 	teqne	r4, ip
 80061b8:	ea95 0f0c 	teqne	r5, ip
 80061bc:	f000 f8de 	bleq	800637c <__aeabi_dmul+0x1dc>
 80061c0:	442c      	add	r4, r5
 80061c2:	ea81 0603 	eor.w	r6, r1, r3
 80061c6:	ea21 514c 	bic.w	r1, r1, ip, lsl #21
 80061ca:	ea23 534c 	bic.w	r3, r3, ip, lsl #21
 80061ce:	ea50 3501 	orrs.w	r5, r0, r1, lsl #12
 80061d2:	bf18      	it	ne
 80061d4:	ea52 3503 	orrsne.w	r5, r2, r3, lsl #12
 80061d8:	f441 1180 	orr.w	r1, r1, #1048576	; 0x100000
 80061dc:	f443 1380 	orr.w	r3, r3, #1048576	; 0x100000
 80061e0:	d038      	beq.n	8006254 <__aeabi_dmul+0xb4>
 80061e2:	fba0 ce02 	umull	ip, lr, r0, r2
 80061e6:	f04f 0500 	mov.w	r5, #0
 80061ea:	fbe1 e502 	umlal	lr, r5, r1, r2
 80061ee:	f006 4200 	and.w	r2, r6, #2147483648	; 0x80000000
 80061f2:	fbe0 e503 	umlal	lr, r5, r0, r3
 80061f6:	f04f 0600 	mov.w	r6, #0
 80061fa:	fbe1 5603 	umlal	r5, r6, r1, r3
 80061fe:	f09c 0f00 	teq	ip, #0
 8006202:	bf18      	it	ne
 8006204:	f04e 0e01 	orrne.w	lr, lr, #1
 8006208:	f1a4 04ff 	sub.w	r4, r4, #255	; 0xff
 800620c:	f5b6 7f00 	cmp.w	r6, #512	; 0x200
 8006210:	f564 7440 	sbc.w	r4, r4, #768	; 0x300
 8006214:	d204      	bcs.n	8006220 <__aeabi_dmul+0x80>
 8006216:	ea5f 0e4e 	movs.w	lr, lr, lsl #1
 800621a:	416d      	adcs	r5, r5
 800621c:	eb46 0606 	adc.w	r6, r6, r6
 8006220:	ea42 21c6 	orr.w	r1, r2, r6, lsl #11
 8006224:	ea41 5155 	orr.w	r1, r1, r5, lsr #21
 8006228:	ea4f 20c5 	mov.w	r0, r5, lsl #11
 800622c:	ea40 505e 	orr.w	r0, r0, lr, lsr #21
 8006230:	ea4f 2ece 	mov.w	lr, lr, lsl #11
 8006234:	f1b4 0cfd 	subs.w	ip, r4, #253	; 0xfd
 8006238:	bf88      	it	hi
 800623a:	f5bc 6fe0 	cmphi.w	ip, #1792	; 0x700
 800623e:	d81e      	bhi.n	800627e <__aeabi_dmul+0xde>
 8006240:	f1be 4f00 	cmp.w	lr, #2147483648	; 0x80000000
 8006244:	bf08      	it	eq
 8006246:	ea5f 0e50 	movseq.w	lr, r0, lsr #1
 800624a:	f150 0000 	adcs.w	r0, r0, #0
 800624e:	eb41 5104 	adc.w	r1, r1, r4, lsl #20
 8006252:	bd70      	pop	{r4, r5, r6, pc}
 8006254:	f006 4600 	and.w	r6, r6, #2147483648	; 0x80000000
 8006258:	ea46 0101 	orr.w	r1, r6, r1
 800625c:	ea40 0002 	orr.w	r0, r0, r2
 8006260:	ea81 0103 	eor.w	r1, r1, r3
 8006264:	ebb4 045c 	subs.w	r4, r4, ip, lsr #1
 8006268:	bfc2      	ittt	gt
 800626a:	ebd4 050c 	rsbsgt	r5, r4, ip
 800626e:	ea41 5104 	orrgt.w	r1, r1, r4, lsl #20
 8006272:	bd70      	popgt	{r4, r5, r6, pc}
 8006274:	f441 1180 	orr.w	r1, r1, #1048576	; 0x100000
 8006278:	f04f 0e00 	mov.w	lr, #0
 800627c:	3c01      	subs	r4, #1
 800627e:	f300 80ab 	bgt.w	80063d8 <__aeabi_dmul+0x238>
 8006282:	f114 0f36 	cmn.w	r4, #54	; 0x36
 8006286:	bfde      	ittt	le
 8006288:	2000      	movle	r0, #0
 800628a:	f001 4100 	andle.w	r1, r1, #2147483648	; 0x80000000
 800628e:	bd70      	pople	{r4, r5, r6, pc}
 8006290:	f1c4 0400 	rsb	r4, r4, #0
 8006294:	3c20      	subs	r4, #32
 8006296:	da35      	bge.n	8006304 <__aeabi_dmul+0x164>
 8006298:	340c      	adds	r4, #12
 800629a:	dc1b      	bgt.n	80062d4 <__aeabi_dmul+0x134>
 800629c:	f104 0414 	add.w	r4, r4, #20
 80062a0:	f1c4 0520 	rsb	r5, r4, #32
 80062a4:	fa00 f305 	lsl.w	r3, r0, r5
 80062a8:	fa20 f004 	lsr.w	r0, r0, r4
 80062ac:	fa01 f205 	lsl.w	r2, r1, r5
 80062b0:	ea40 0002 	orr.w	r0, r0, r2
 80062b4:	f001 4200 	and.w	r2, r1, #2147483648	; 0x80000000
 80062b8:	f021 4100 	bic.w	r1, r1, #2147483648	; 0x80000000
 80062bc:	eb10 70d3 	adds.w	r0, r0, r3, lsr #31
 80062c0:	fa21 f604 	lsr.w	r6, r1, r4
 80062c4:	eb42 0106 	adc.w	r1, r2, r6
 80062c8:	ea5e 0e43 	orrs.w	lr, lr, r3, lsl #1
 80062cc:	bf08      	it	eq
 80062ce:	ea20 70d3 	biceq.w	r0, r0, r3, lsr #31
 80062d2:	bd70      	pop	{r4, r5, r6, pc}
 80062d4:	f1c4 040c 	rsb	r4, r4, #12
 80062d8:	f1c4 0520 	rsb	r5, r4, #32
 80062dc:	fa00 f304 	lsl.w	r3, r0, r4
 80062e0:	fa20 f005 	lsr.w	r0, r0, r5
 80062e4:	fa01 f204 	lsl.w	r2, r1, r4
 80062e8:	ea40 0002 	orr.w	r0, r0, r2
 80062ec:	f001 4100 	and.w	r1, r1, #2147483648	; 0x80000000
 80062f0:	eb10 70d3 	adds.w	r0, r0, r3, lsr #31
 80062f4:	f141 0100 	adc.w	r1, r1, #0
 80062f8:	ea5e 0e43 	orrs.w	lr, lr, r3, lsl #1
 80062fc:	bf08      	it	eq
 80062fe:	ea20 70d3 	biceq.w	r0, r0, r3, lsr #31
 8006302:	bd70      	pop	{r4, r5, r6, pc}
 8006304:	f1c4 0520 	rsb	r5, r4, #32
 8006308:	fa00 f205 	lsl.w	r2, r0, r5
 800630c:	ea4e 0e02 	orr.w	lr, lr, r2
 8006310:	fa20 f304 	lsr.w	r3, r0, r4
 8006314:	fa01 f205 	lsl.w	r2, r1, r5
 8006318:	ea43 0302 	orr.w	r3, r3, r2
 800631c:	fa21 f004 	lsr.w	r0, r1, r4
 8006320:	f001 4100 	and.w	r1, r1, #2147483648	; 0x80000000
 8006324:	fa21 f204 	lsr.w	r2, r1, r4
 8006328:	ea20 0002 	bic.w	r0, r0, r2
 800632c:	eb00 70d3 	add.w	r0, r0, r3, lsr #31
 8006330:	ea5e 0e43 	orrs.w	lr, lr, r3, lsl #1
 8006334:	bf08      	it	eq
 8006336:	ea20 70d3 	biceq.w	r0, r0, r3, lsr #31
 800633a:	bd70      	pop	{r4, r5, r6, pc}
 800633c:	f094 0f00 	teq	r4, #0
 8006340:	d10f      	bne.n	8006362 <__aeabi_dmul+0x1c2>
 8006342:	f001 4600 	and.w	r6, r1, #2147483648	; 0x80000000
 8006346:	0040      	lsls	r0, r0, #1
 8006348:	eb41 0101 	adc.w	r1, r1, r1
 800634c:	f411 1f80 	tst.w	r1, #1048576	; 0x100000
 8006350:	bf08      	it	eq
 8006352:	3c01      	subeq	r4, #1
 8006354:	d0f7      	beq.n	8006346 <__aeabi_dmul+0x1a6>
 8006356:	ea41 0106 	orr.w	r1, r1, r6
 800635a:	f095 0f00 	teq	r5, #0
 800635e:	bf18      	it	ne
 8006360:	4770      	bxne	lr
 8006362:	f003 4600 	and.w	r6, r3, #2147483648	; 0x80000000
 8006366:	0052      	lsls	r2, r2, #1
 8006368:	eb43 0303 	adc.w	r3, r3, r3
 800636c:	f413 1f80 	tst.w	r3, #1048576	; 0x100000
 8006370:	bf08      	it	eq
 8006372:	3d01      	subeq	r5, #1
 8006374:	d0f7      	beq.n	8006366 <__aeabi_dmul+0x1c6>
 8006376:	ea43 0306 	orr.w	r3, r3, r6
 800637a:	4770      	bx	lr
 800637c:	ea94 0f0c 	teq	r4, ip
 8006380:	ea0c 5513 	and.w	r5, ip, r3, lsr #20
 8006384:	bf18      	it	ne
 8006386:	ea95 0f0c 	teqne	r5, ip
 800638a:	d00c      	beq.n	80063a6 <__aeabi_dmul+0x206>
 800638c:	ea50 0641 	orrs.w	r6, r0, r1, lsl #1
 8006390:	bf18      	it	ne
 8006392:	ea52 0643 	orrsne.w	r6, r2, r3, lsl #1
 8006396:	d1d1      	bne.n	800633c <__aeabi_dmul+0x19c>
 8006398:	ea81 0103 	eor.w	r1, r1, r3
 800639c:	f001 4100 	and.w	r1, r1, #2147483648	; 0x80000000
 80063a0:	f04f 0000 	mov.w	r0, #0
 80063a4:	bd70      	pop	{r4, r5, r6, pc}
 80063a6:	ea50 0641 	orrs.w	r6, r0, r1, lsl #1
 80063aa:	bf06      	itte	eq
 80063ac:	4610      	moveq	r0, r2
 80063ae:	4619      	moveq	r1, r3
 80063b0:	ea52 0643 	orrsne.w	r6, r2, r3, lsl #1
 80063b4:	d019      	beq.n	80063ea <__aeabi_dmul+0x24a>
 80063b6:	ea94 0f0c 	teq	r4, ip
 80063ba:	d102      	bne.n	80063c2 <__aeabi_dmul+0x222>
 80063bc:	ea50 3601 	orrs.w	r6, r0, r1, lsl #12
 80063c0:	d113      	bne.n	80063ea <__aeabi_dmul+0x24a>
 80063c2:	ea95 0f0c 	teq	r5, ip
 80063c6:	d105      	bne.n	80063d4 <__aeabi_dmul+0x234>
 80063c8:	ea52 3603 	orrs.w	r6, r2, r3, lsl #12
 80063cc:	bf1c      	itt	ne
 80063ce:	4610      	movne	r0, r2
 80063d0:	4619      	movne	r1, r3
 80063d2:	d10a      	bne.n	80063ea <__aeabi_dmul+0x24a>
 80063d4:	ea81 0103 	eor.w	r1, r1, r3
 80063d8:	f001 4100 	and.w	r1, r1, #2147483648	; 0x80000000
 80063dc:	f041 41fe 	orr.w	r1, r1, #2130706432	; 0x7f000000
 80063e0:	f441 0170 	orr.w	r1, r1, #15728640	; 0xf00000
 80063e4:	f04f 0000 	mov.w	r0, #0
 80063e8:	bd70      	pop	{r4, r5, r6, pc}
 80063ea:	f041 41fe 	orr.w	r1, r1, #2130706432	; 0x7f000000
 80063ee:	f441 0178 	orr.w	r1, r1, #16252928	; 0xf80000
 80063f2:	bd70      	pop	{r4, r5, r6, pc}

080063f4 <__aeabi_ddiv>:
 80063f4:	b570      	push	{r4, r5, r6, lr}
 80063f6:	f04f 0cff 	mov.w	ip, #255	; 0xff
 80063fa:	f44c 6ce0 	orr.w	ip, ip, #1792	; 0x700
 80063fe:	ea1c 5411 	ands.w	r4, ip, r1, lsr #20
 8006402:	bf1d      	ittte	ne
 8006404:	ea1c 5513 	andsne.w	r5, ip, r3, lsr #20
 8006408:	ea94 0f0c 	teqne	r4, ip
 800640c:	ea95 0f0c 	teqne	r5, ip
 8006410:	f000 f8a7 	bleq	8006562 <__aeabi_ddiv+0x16e>
 8006414:	eba4 0405 	sub.w	r4, r4, r5
 8006418:	ea81 0e03 	eor.w	lr, r1, r3
 800641c:	ea52 3503 	orrs.w	r5, r2, r3, lsl #12
 8006420:	ea4f 3101 	mov.w	r1, r1, lsl #12
 8006424:	f000 8088 	beq.w	8006538 <__aeabi_ddiv+0x144>
 8006428:	ea4f 3303 	mov.w	r3, r3, lsl #12
 800642c:	f04f 5580 	mov.w	r5, #268435456	; 0x10000000
 8006430:	ea45 1313 	orr.w	r3, r5, r3, lsr #4
 8006434:	ea43 6312 	orr.w	r3, r3, r2, lsr #24
 8006438:	ea4f 2202 	mov.w	r2, r2, lsl #8
 800643c:	ea45 1511 	orr.w	r5, r5, r1, lsr #4
 8006440:	ea45 6510 	orr.w	r5, r5, r0, lsr #24
 8006444:	ea4f 2600 	mov.w	r6, r0, lsl #8
 8006448:	f00e 4100 	and.w	r1, lr, #2147483648	; 0x80000000
 800644c:	429d      	cmp	r5, r3
 800644e:	bf08      	it	eq
 8006450:	4296      	cmpeq	r6, r2
 8006452:	f144 04fd 	adc.w	r4, r4, #253	; 0xfd
 8006456:	f504 7440 	add.w	r4, r4, #768	; 0x300
 800645a:	d202      	bcs.n	8006462 <__aeabi_ddiv+0x6e>
 800645c:	085b      	lsrs	r3, r3, #1
 800645e:	ea4f 0232 	mov.w	r2, r2, rrx
 8006462:	1ab6      	subs	r6, r6, r2
 8006464:	eb65 0503 	sbc.w	r5, r5, r3
 8006468:	085b      	lsrs	r3, r3, #1
 800646a:	ea4f 0232 	mov.w	r2, r2, rrx
 800646e:	f44f 1080 	mov.w	r0, #1048576	; 0x100000
 8006472:	f44f 2c00 	mov.w	ip, #524288	; 0x80000
 8006476:	ebb6 0e02 	subs.w	lr, r6, r2
 800647a:	eb75 0e03 	sbcs.w	lr, r5, r3
 800647e:	bf22      	ittt	cs
 8006480:	1ab6      	subcs	r6, r6, r2
 8006482:	4675      	movcs	r5, lr
 8006484:	ea40 000c 	orrcs.w	r0, r0, ip
 8006488:	085b      	lsrs	r3, r3, #1
 800648a:	ea4f 0232 	mov.w	r2, r2, rrx
 800648e:	ebb6 0e02 	subs.w	lr, r6, r2
 8006492:	eb75 0e03 	sbcs.w	lr, r5, r3
 8006496:	bf22      	ittt	cs
 8006498:	1ab6      	subcs	r6, r6, r2
 800649a:	4675      	movcs	r5, lr
 800649c:	ea40 005c 	orrcs.w	r0, r0, ip, lsr #1
 80064a0:	085b      	lsrs	r3, r3, #1
 80064a2:	ea4f 0232 	mov.w	r2, r2, rrx
 80064a6:	ebb6 0e02 	subs.w	lr, r6, r2
 80064aa:	eb75 0e03 	sbcs.w	lr, r5, r3
 80064ae:	bf22      	ittt	cs
 80064b0:	1ab6      	subcs	r6, r6, r2
 80064b2:	4675      	movcs	r5, lr
 80064b4:	ea40 009c 	orrcs.w	r0, r0, ip, lsr #2
 80064b8:	085b      	lsrs	r3, r3, #1
 80064ba:	ea4f 0232 	mov.w	r2, r2, rrx
 80064be:	ebb6 0e02 	subs.w	lr, r6, r2
 80064c2:	eb75 0e03 	sbcs.w	lr, r5, r3
 80064c6:	bf22      	ittt	cs
 80064c8:	1ab6      	subcs	r6, r6, r2
 80064ca:	4675      	movcs	r5, lr
 80064cc:	ea40 00dc 	orrcs.w	r0, r0, ip, lsr #3
 80064d0:	ea55 0e06 	orrs.w	lr, r5, r6
 80064d4:	d018      	beq.n	8006508 <__aeabi_ddiv+0x114>
 80064d6:	ea4f 1505 	mov.w	r5, r5, lsl #4
 80064da:	ea45 7516 	orr.w	r5, r5, r6, lsr #28
 80064de:	ea4f 1606 	mov.w	r6, r6, lsl #4
 80064e2:	ea4f 03c3 	mov.w	r3, r3, lsl #3
 80064e6:	ea43 7352 	orr.w	r3, r3, r2, lsr #29
 80064ea:	ea4f 02c2 	mov.w	r2, r2, lsl #3
 80064ee:	ea5f 1c1c 	movs.w	ip, ip, lsr #4
 80064f2:	d1c0      	bne.n	8006476 <__aeabi_ddiv+0x82>
 80064f4:	f411 1f80 	tst.w	r1, #1048576	; 0x100000
 80064f8:	d10b      	bne.n	8006512 <__aeabi_ddiv+0x11e>
 80064fa:	ea41 0100 	orr.w	r1, r1, r0
 80064fe:	f04f 0000 	mov.w	r0, #0
 8006502:	f04f 4c00 	mov.w	ip, #2147483648	; 0x80000000
 8006506:	e7b6      	b.n	8006476 <__aeabi_ddiv+0x82>
 8006508:	f411 1f80 	tst.w	r1, #1048576	; 0x100000
 800650c:	bf04      	itt	eq
 800650e:	4301      	orreq	r1, r0
 8006510:	2000      	moveq	r0, #0
 8006512:	f1b4 0cfd 	subs.w	ip, r4, #253	; 0xfd
 8006516:	bf88      	it	hi
 8006518:	f5bc 6fe0 	cmphi.w	ip, #1792	; 0x700
 800651c:	f63f aeaf 	bhi.w	800627e <__aeabi_dmul+0xde>
 8006520:	ebb5 0c03 	subs.w	ip, r5, r3
 8006524:	bf04      	itt	eq
 8006526:	ebb6 0c02 	subseq.w	ip, r6, r2
 800652a:	ea5f 0c50 	movseq.w	ip, r0, lsr #1
 800652e:	f150 0000 	adcs.w	r0, r0, #0
 8006532:	eb41 5104 	adc.w	r1, r1, r4, lsl #20
 8006536:	bd70      	pop	{r4, r5, r6, pc}
 8006538:	f00e 4e00 	and.w	lr, lr, #2147483648	; 0x80000000
 800653c:	ea4e 3111 	orr.w	r1, lr, r1, lsr #12
 8006540:	eb14 045c 	adds.w	r4, r4, ip, lsr #1
 8006544:	bfc2      	ittt	gt
 8006546:	ebd4 050c 	rsbsgt	r5, r4, ip
 800654a:	ea41 5104 	orrgt.w	r1, r1, r4, lsl #20
 800654e:	bd70      	popgt	{r4, r5, r6, pc}
 8006550:	f441 1180 	orr.w	r1, r1, #1048576	; 0x100000
 8006554:	f04f 0e00 	mov.w	lr, #0
 8006558:	3c01      	subs	r4, #1
 800655a:	e690      	b.n	800627e <__aeabi_dmul+0xde>
 800655c:	ea45 0e06 	orr.w	lr, r5, r6
 8006560:	e68d      	b.n	800627e <__aeabi_dmul+0xde>
 8006562:	ea0c 5513 	and.w	r5, ip, r3, lsr #20
 8006566:	ea94 0f0c 	teq	r4, ip
 800656a:	bf08      	it	eq
 800656c:	ea95 0f0c 	teqeq	r5, ip
 8006570:	f43f af3b 	beq.w	80063ea <__aeabi_dmul+0x24a>
 8006574:	ea94 0f0c 	teq	r4, ip
 8006578:	d10a      	bne.n	8006590 <__aeabi_ddiv+0x19c>
 800657a:	ea50 3401 	orrs.w	r4, r0, r1, lsl #12
 800657e:	f47f af34 	bne.w	80063ea <__aeabi_dmul+0x24a>
 8006582:	ea95 0f0c 	teq	r5, ip
 8006586:	f47f af25 	bne.w	80063d4 <__aeabi_dmul+0x234>
 800658a:	4610      	mov	r0, r2
 800658c:	4619      	mov	r1, r3
 800658e:	e72c      	b.n	80063ea <__aeabi_dmul+0x24a>
 8006590:	ea95 0f0c 	teq	r5, ip
 8006594:	d106      	bne.n	80065a4 <__aeabi_ddiv+0x1b0>
 8006596:	ea52 3503 	orrs.w	r5, r2, r3, lsl #12
 800659a:	f43f aefd 	beq.w	8006398 <__aeabi_dmul+0x1f8>
 800659e:	4610      	mov	r0, r2
 80065a0:	4619      	mov	r1, r3
 80065a2:	e722      	b.n	80063ea <__aeabi_dmul+0x24a>
 80065a4:	ea50 0641 	orrs.w	r6, r0, r1, lsl #1
 80065a8:	bf18      	it	ne
 80065aa:	ea52 0643 	orrsne.w	r6, r2, r3, lsl #1
 80065ae:	f47f aec5 	bne.w	800633c <__aeabi_dmul+0x19c>
 80065b2:	ea50 0441 	orrs.w	r4, r0, r1, lsl #1
 80065b6:	f47f af0d 	bne.w	80063d4 <__aeabi_dmul+0x234>
 80065ba:	ea52 0543 	orrs.w	r5, r2, r3, lsl #1
 80065be:	f47f aeeb 	bne.w	8006398 <__aeabi_dmul+0x1f8>
 80065c2:	e712      	b.n	80063ea <__aeabi_dmul+0x24a>

080065c4 <__gedf2>:
 80065c4:	f04f 3cff 	mov.w	ip, #4294967295
 80065c8:	e006      	b.n	80065d8 <__cmpdf2+0x4>
 80065ca:	bf00      	nop

080065cc <__ledf2>:
 80065cc:	f04f 0c01 	mov.w	ip, #1
 80065d0:	e002      	b.n	80065d8 <__cmpdf2+0x4>
 80065d2:	bf00      	nop

080065d4 <__cmpdf2>:
 80065d4:	f04f 0c01 	mov.w	ip, #1
 80065d8:	f84d cd04 	str.w	ip, [sp, #-4]!
 80065dc:	ea4f 0c41 	mov.w	ip, r1, lsl #1
 80065e0:	ea7f 5c6c 	mvns.w	ip, ip, asr #21
 80065e4:	ea4f 0c43 	mov.w	ip, r3, lsl #1
 80065e8:	bf18      	it	ne
 80065ea:	ea7f 5c6c 	mvnsne.w	ip, ip, asr #21
 80065ee:	d01b      	beq.n	8006628 <__cmpdf2+0x54>
 80065f0:	b001      	add	sp, #4
 80065f2:	ea50 0c41 	orrs.w	ip, r0, r1, lsl #1
 80065f6:	bf0c      	ite	eq
 80065f8:	ea52 0c43 	orrseq.w	ip, r2, r3, lsl #1
 80065fc:	ea91 0f03 	teqne	r1, r3
 8006600:	bf02      	ittt	eq
 8006602:	ea90 0f02 	teqeq	r0, r2
 8006606:	2000      	moveq	r0, #0
 8006608:	4770      	bxeq	lr
 800660a:	f110 0f00 	cmn.w	r0, #0
 800660e:	ea91 0f03 	teq	r1, r3
 8006612:	bf58      	it	pl
 8006614:	4299      	cmppl	r1, r3
 8006616:	bf08      	it	eq
 8006618:	4290      	cmpeq	r0, r2
 800661a:	bf2c      	ite	cs
 800661c:	17d8      	asrcs	r0, r3, #31
 800661e:	ea6f 70e3 	mvncc.w	r0, r3, asr #31
 8006622:	f040 0001 	orr.w	r0, r0, #1
 8006626:	4770      	bx	lr
 8006628:	ea4f 0c41 	mov.w	ip, r1, lsl #1
 800662c:	ea7f 5c6c 	mvns.w	ip, ip, asr #21
 8006630:	d102      	bne.n	8006638 <__cmpdf2+0x64>
 8006632:	ea50 3c01 	orrs.w	ip, r0, r1, lsl #12
 8006636:	d107      	bne.n	8006648 <__cmpdf2+0x74>
 8006638:	ea4f 0c43 	mov.w	ip, r3, lsl #1
 800663c:	ea7f 5c6c 	mvns.w	ip, ip, asr #21
 8006640:	d1d6      	bne.n	80065f0 <__cmpdf2+0x1c>
 8006642:	ea52 3c03 	orrs.w	ip, r2, r3, lsl #12
 8006646:	d0d3      	beq.n	80065f0 <__cmpdf2+0x1c>
 8006648:	f85d 0b04 	ldr.w	r0, [sp], #4
 800664c:	4770      	bx	lr
 800664e:	bf00      	nop

08006650 <__aeabi_cdrcmple>:
 8006650:	4684      	mov	ip, r0
 8006652:	4610      	mov	r0, r2
 8006654:	4662      	mov	r2, ip
 8006656:	468c      	mov	ip, r1
 8006658:	4619      	mov	r1, r3
 800665a:	4663      	mov	r3, ip
 800665c:	e000      	b.n	8006660 <__aeabi_cdcmpeq>
 800665e:	bf00      	nop

08006660 <__aeabi_cdcmpeq>:
 8006660:	b501      	push	{r0, lr}
 8006662:	f7ff ffb7 	bl	80065d4 <__cmpdf2>
 8006666:	2800      	cmp	r0, #0
 8006668:	bf48      	it	mi
 800666a:	f110 0f00 	cmnmi.w	r0, #0
 800666e:	bd01      	pop	{r0, pc}

08006670 <__aeabi_dcmpeq>:
 8006670:	f84d ed08 	str.w	lr, [sp, #-8]!
 8006674:	f7ff fff4 	bl	8006660 <__aeabi_cdcmpeq>
 8006678:	bf0c      	ite	eq
 800667a:	2001      	moveq	r0, #1
 800667c:	2000      	movne	r0, #0
 800667e:	f85d fb08 	ldr.w	pc, [sp], #8
 8006682:	bf00      	nop

08006684 <__aeabi_dcmplt>:
 8006684:	f84d ed08 	str.w	lr, [sp, #-8]!
 8006688:	f7ff ffea 	bl	8006660 <__aeabi_cdcmpeq>
 800668c:	bf34      	ite	cc
 800668e:	2001      	movcc	r0, #1
 8006690:	2000      	movcs	r0, #0
 8006692:	f85d fb08 	ldr.w	pc, [sp], #8
 8006696:	bf00      	nop

08006698 <__aeabi_dcmple>:
 8006698:	f84d ed08 	str.w	lr, [sp, #-8]!
 800669c:	f7ff ffe0 	bl	8006660 <__aeabi_cdcmpeq>
 80066a0:	bf94      	ite	ls
 80066a2:	2001      	movls	r0, #1
 80066a4:	2000      	movhi	r0, #0
 80066a6:	f85d fb08 	ldr.w	pc, [sp], #8
 80066aa:	bf00      	nop

080066ac <__aeabi_dcmpge>:
 80066ac:	f84d ed08 	str.w	lr, [sp, #-8]!
 80066b0:	f7ff ffce 	bl	8006650 <__aeabi_cdrcmple>
 80066b4:	bf94      	ite	ls
 80066b6:	2001      	movls	r0, #1
 80066b8:	2000      	movhi	r0, #0
 80066ba:	f85d fb08 	ldr.w	pc, [sp], #8
 80066be:	bf00      	nop

080066c0 <__aeabi_dcmpgt>:
 80066c0:	f84d ed08 	str.w	lr, [sp, #-8]!
 80066c4:	f7ff ffc4 	bl	8006650 <__aeabi_cdrcmple>
 80066c8:	bf34      	ite	cc
 80066ca:	2001      	movcc	r0, #1
 80066cc:	2000      	movcs	r0, #0
 80066ce:	f85d fb08 	ldr.w	pc, [sp], #8
 80066d2:	bf00      	nop

080066d4 <__aeabi_d2uiz>:
 80066d4:	004a      	lsls	r2, r1, #1
 80066d6:	d211      	bcs.n	80066fc <__aeabi_d2uiz+0x28>
 80066d8:	f512 1200 	adds.w	r2, r2, #2097152	; 0x200000
 80066dc:	d211      	bcs.n	8006702 <__aeabi_d2uiz+0x2e>
 80066de:	d50d      	bpl.n	80066fc <__aeabi_d2uiz+0x28>
 80066e0:	f46f 7378 	mvn.w	r3, #992	; 0x3e0
 80066e4:	ebb3 5262 	subs.w	r2, r3, r2, asr #21
 80066e8:	d40e      	bmi.n	8006708 <__aeabi_d2uiz+0x34>
 80066ea:	ea4f 23c1 	mov.w	r3, r1, lsl #11
 80066ee:	f043 4300 	orr.w	r3, r3, #2147483648	; 0x80000000
 80066f2:	ea43 5350 	orr.w	r3, r3, r0, lsr #21
 80066f6:	fa23 f002 	lsr.w	r0, r3, r2
 80066fa:	4770      	bx	lr
 80066fc:	f04f 0000 	mov.w	r0, #0
 8006700:	4770      	bx	lr
 8006702:	ea50 3001 	orrs.w	r0, r0, r1, lsl #12
 8006706:	d102      	bne.n	800670e <__aeabi_d2uiz+0x3a>
 8006708:	f04f 30ff 	mov.w	r0, #4294967295
 800670c:	4770      	bx	lr
 800670e:	f04f 0000 	mov.w	r0, #0
 8006712:	4770      	bx	lr

08006714 <memcpy>:
 8006714:	2a0f      	cmp	r2, #15
 8006716:	e92d 03f0 	stmdb	sp!, {r4, r5, r6, r7, r8, r9}
 800671a:	f240 8095 	bls.w	8006848 <memcpy+0x134>
 800671e:	ea41 0300 	orr.w	r3, r1, r0
 8006722:	079b      	lsls	r3, r3, #30
 8006724:	f040 8092 	bne.w	800684c <memcpy+0x138>
 8006728:	680c      	ldr	r4, [r1, #0]
 800672a:	6004      	str	r4, [r0, #0]
 800672c:	684d      	ldr	r5, [r1, #4]
 800672e:	6045      	str	r5, [r0, #4]
 8006730:	688e      	ldr	r6, [r1, #8]
 8006732:	f1a2 0310 	sub.w	r3, r2, #16
 8006736:	6086      	str	r6, [r0, #8]
 8006738:	68cc      	ldr	r4, [r1, #12]
 800673a:	461d      	mov	r5, r3
 800673c:	2d0f      	cmp	r5, #15
 800673e:	60c4      	str	r4, [r0, #12]
 8006740:	f3c3 1600 	ubfx	r6, r3, #4, #1
 8006744:	f101 0410 	add.w	r4, r1, #16
 8006748:	f100 0310 	add.w	r3, r0, #16
 800674c:	d922      	bls.n	8006794 <memcpy+0x80>
 800674e:	b166      	cbz	r6, 800676a <memcpy+0x56>
 8006750:	6826      	ldr	r6, [r4, #0]
 8006752:	601e      	str	r6, [r3, #0]
 8006754:	6866      	ldr	r6, [r4, #4]
 8006756:	605e      	str	r6, [r3, #4]
 8006758:	68a6      	ldr	r6, [r4, #8]
 800675a:	609e      	str	r6, [r3, #8]
 800675c:	68e6      	ldr	r6, [r4, #12]
 800675e:	3d10      	subs	r5, #16
 8006760:	60de      	str	r6, [r3, #12]
 8006762:	3410      	adds	r4, #16
 8006764:	3310      	adds	r3, #16
 8006766:	2d0f      	cmp	r5, #15
 8006768:	d914      	bls.n	8006794 <memcpy+0x80>
 800676a:	6826      	ldr	r6, [r4, #0]
 800676c:	601e      	str	r6, [r3, #0]
 800676e:	6866      	ldr	r6, [r4, #4]
 8006770:	605e      	str	r6, [r3, #4]
 8006772:	68a6      	ldr	r6, [r4, #8]
 8006774:	609e      	str	r6, [r3, #8]
 8006776:	68e6      	ldr	r6, [r4, #12]
 8006778:	60de      	str	r6, [r3, #12]
 800677a:	6926      	ldr	r6, [r4, #16]
 800677c:	611e      	str	r6, [r3, #16]
 800677e:	6966      	ldr	r6, [r4, #20]
 8006780:	615e      	str	r6, [r3, #20]
 8006782:	69a6      	ldr	r6, [r4, #24]
 8006784:	619e      	str	r6, [r3, #24]
 8006786:	69e6      	ldr	r6, [r4, #28]
 8006788:	3d20      	subs	r5, #32
 800678a:	61de      	str	r6, [r3, #28]
 800678c:	3420      	adds	r4, #32
 800678e:	3320      	adds	r3, #32
 8006790:	2d0f      	cmp	r5, #15
 8006792:	d8ea      	bhi.n	800676a <memcpy+0x56>
 8006794:	f1a2 0310 	sub.w	r3, r2, #16
 8006798:	f023 040f 	bic.w	r4, r3, #15
 800679c:	f002 030f 	and.w	r3, r2, #15
 80067a0:	3410      	adds	r4, #16
 80067a2:	2b03      	cmp	r3, #3
 80067a4:	eb00 0804 	add.w	r8, r0, r4
 80067a8:	4421      	add	r1, r4
 80067aa:	d951      	bls.n	8006850 <memcpy+0x13c>
 80067ac:	f1a3 0904 	sub.w	r9, r3, #4
 80067b0:	460b      	mov	r3, r1
 80067b2:	ea4f 0999 	mov.w	r9, r9, lsr #2
 80067b6:	eb01 0c89 	add.w	ip, r1, r9, lsl #2
 80067ba:	f853 6b04 	ldr.w	r6, [r3], #4
 80067be:	ebc1 050c 	rsb	r5, r1, ip
 80067c2:	4644      	mov	r4, r8
 80067c4:	f10c 0c04 	add.w	ip, ip, #4
 80067c8:	4563      	cmp	r3, ip
 80067ca:	f844 6b04 	str.w	r6, [r4], #4
 80067ce:	f3c5 0580 	ubfx	r5, r5, #2, #1
 80067d2:	d012      	beq.n	80067fa <memcpy+0xe6>
 80067d4:	b12d      	cbz	r5, 80067e2 <memcpy+0xce>
 80067d6:	f853 5b04 	ldr.w	r5, [r3], #4
 80067da:	4563      	cmp	r3, ip
 80067dc:	f844 5b04 	str.w	r5, [r4], #4
 80067e0:	d00b      	beq.n	80067fa <memcpy+0xe6>
 80067e2:	461e      	mov	r6, r3
 80067e4:	4625      	mov	r5, r4
 80067e6:	f856 7b04 	ldr.w	r7, [r6], #4
 80067ea:	f845 7b04 	str.w	r7, [r5], #4
 80067ee:	685f      	ldr	r7, [r3, #4]
 80067f0:	1d33      	adds	r3, r6, #4
 80067f2:	6067      	str	r7, [r4, #4]
 80067f4:	1d2c      	adds	r4, r5, #4
 80067f6:	4563      	cmp	r3, ip
 80067f8:	d1f3      	bne.n	80067e2 <memcpy+0xce>
 80067fa:	f109 0301 	add.w	r3, r9, #1
 80067fe:	009c      	lsls	r4, r3, #2
 8006800:	1909      	adds	r1, r1, r4
 8006802:	f002 0203 	and.w	r2, r2, #3
 8006806:	4444      	add	r4, r8
 8006808:	b1da      	cbz	r2, 8006842 <memcpy+0x12e>
 800680a:	4623      	mov	r3, r4
 800680c:	780d      	ldrb	r5, [r1, #0]
 800680e:	f803 5b01 	strb.w	r5, [r3], #1
 8006812:	18a2      	adds	r2, r4, r2
 8006814:	43e4      	mvns	r4, r4
 8006816:	1914      	adds	r4, r2, r4
 8006818:	4293      	cmp	r3, r2
 800681a:	f004 0401 	and.w	r4, r4, #1
 800681e:	d010      	beq.n	8006842 <memcpy+0x12e>
 8006820:	b12c      	cbz	r4, 800682e <memcpy+0x11a>
 8006822:	f811 4f01 	ldrb.w	r4, [r1, #1]!
 8006826:	f803 4b01 	strb.w	r4, [r3], #1
 800682a:	4293      	cmp	r3, r2
 800682c:	d009      	beq.n	8006842 <memcpy+0x12e>
 800682e:	784d      	ldrb	r5, [r1, #1]
 8006830:	461c      	mov	r4, r3
 8006832:	f804 5b01 	strb.w	r5, [r4], #1
 8006836:	788d      	ldrb	r5, [r1, #2]
 8006838:	705d      	strb	r5, [r3, #1]
 800683a:	1c63      	adds	r3, r4, #1
 800683c:	3102      	adds	r1, #2
 800683e:	4293      	cmp	r3, r2
 8006840:	d1f5      	bne.n	800682e <memcpy+0x11a>
 8006842:	e8bd 03f0 	ldmia.w	sp!, {r4, r5, r6, r7, r8, r9}
 8006846:	4770      	bx	lr
 8006848:	4604      	mov	r4, r0
 800684a:	e7dd      	b.n	8006808 <memcpy+0xf4>
 800684c:	4604      	mov	r4, r0
 800684e:	e7dc      	b.n	800680a <memcpy+0xf6>
 8006850:	4644      	mov	r4, r8
 8006852:	461a      	mov	r2, r3
 8006854:	e7d8      	b.n	8006808 <memcpy+0xf4>
 8006856:	bf00      	nop

08006858 <cleanup_glue>:
 8006858:	b538      	push	{r3, r4, r5, lr}
 800685a:	460c      	mov	r4, r1
 800685c:	6809      	ldr	r1, [r1, #0]
 800685e:	4605      	mov	r5, r0
 8006860:	b109      	cbz	r1, 8006866 <cleanup_glue+0xe>
 8006862:	f7ff fff9 	bl	8006858 <cleanup_glue>
 8006866:	4628      	mov	r0, r5
 8006868:	4621      	mov	r1, r4
 800686a:	e8bd 4038 	ldmia.w	sp!, {r3, r4, r5, lr}
 800686e:	f000 b8cd 	b.w	8006a0c <_free_r>
 8006872:	bf00      	nop

08006874 <_reclaim_reent>:
 8006874:	4b21      	ldr	r3, [pc, #132]	; (80068fc <_reclaim_reent+0x88>)
 8006876:	6819      	ldr	r1, [r3, #0]
 8006878:	4288      	cmp	r0, r1
 800687a:	b570      	push	{r4, r5, r6, lr}
 800687c:	4605      	mov	r5, r0
 800687e:	d030      	beq.n	80068e2 <_reclaim_reent+0x6e>
 8006880:	6cc2      	ldr	r2, [r0, #76]	; 0x4c
 8006882:	b1a2      	cbz	r2, 80068ae <_reclaim_reent+0x3a>
 8006884:	2000      	movs	r0, #0
 8006886:	4606      	mov	r6, r0
 8006888:	f852 1020 	ldr.w	r1, [r2, r0, lsl #2]
 800688c:	b139      	cbz	r1, 800689e <_reclaim_reent+0x2a>
 800688e:	680c      	ldr	r4, [r1, #0]
 8006890:	4628      	mov	r0, r5
 8006892:	f000 f8bb 	bl	8006a0c <_free_r>
 8006896:	4621      	mov	r1, r4
 8006898:	2c00      	cmp	r4, #0
 800689a:	d1f8      	bne.n	800688e <_reclaim_reent+0x1a>
 800689c:	6cea      	ldr	r2, [r5, #76]	; 0x4c
 800689e:	3601      	adds	r6, #1
 80068a0:	2e20      	cmp	r6, #32
 80068a2:	4630      	mov	r0, r6
 80068a4:	d1f0      	bne.n	8006888 <_reclaim_reent+0x14>
 80068a6:	4628      	mov	r0, r5
 80068a8:	4611      	mov	r1, r2
 80068aa:	f000 f8af 	bl	8006a0c <_free_r>
 80068ae:	6c29      	ldr	r1, [r5, #64]	; 0x40
 80068b0:	b111      	cbz	r1, 80068b8 <_reclaim_reent+0x44>
 80068b2:	4628      	mov	r0, r5
 80068b4:	f000 f8aa 	bl	8006a0c <_free_r>
 80068b8:	f8d5 1148 	ldr.w	r1, [r5, #328]	; 0x148
 80068bc:	b151      	cbz	r1, 80068d4 <_reclaim_reent+0x60>
 80068be:	f505 76a6 	add.w	r6, r5, #332	; 0x14c
 80068c2:	42b1      	cmp	r1, r6
 80068c4:	d006      	beq.n	80068d4 <_reclaim_reent+0x60>
 80068c6:	680c      	ldr	r4, [r1, #0]
 80068c8:	4628      	mov	r0, r5
 80068ca:	f000 f89f 	bl	8006a0c <_free_r>
 80068ce:	42a6      	cmp	r6, r4
 80068d0:	4621      	mov	r1, r4
 80068d2:	d1f8      	bne.n	80068c6 <_reclaim_reent+0x52>
 80068d4:	6d69      	ldr	r1, [r5, #84]	; 0x54
 80068d6:	b111      	cbz	r1, 80068de <_reclaim_reent+0x6a>
 80068d8:	4628      	mov	r0, r5
 80068da:	f000 f897 	bl	8006a0c <_free_r>
 80068de:	6bab      	ldr	r3, [r5, #56]	; 0x38
 80068e0:	b903      	cbnz	r3, 80068e4 <_reclaim_reent+0x70>
 80068e2:	bd70      	pop	{r4, r5, r6, pc}
 80068e4:	6be9      	ldr	r1, [r5, #60]	; 0x3c
 80068e6:	4628      	mov	r0, r5
 80068e8:	4788      	blx	r1
 80068ea:	f8d5 12e0 	ldr.w	r1, [r5, #736]	; 0x2e0
 80068ee:	2900      	cmp	r1, #0
 80068f0:	d0f7      	beq.n	80068e2 <_reclaim_reent+0x6e>
 80068f2:	4628      	mov	r0, r5
 80068f4:	e8bd 4070 	ldmia.w	sp!, {r4, r5, r6, lr}
 80068f8:	f7ff bfae 	b.w	8006858 <cleanup_glue>
 80068fc:	20000ae8 	.word	0x20000ae8

08006900 <_wrapup_reent>:
 8006900:	e92d 43f8 	stmdb	sp!, {r3, r4, r5, r6, r7, r8, r9, lr}
 8006904:	4680      	mov	r8, r0
 8006906:	2800      	cmp	r0, #0
 8006908:	d02e      	beq.n	8006968 <_wrapup_reent+0x68>
 800690a:	f8d8 7148 	ldr.w	r7, [r8, #328]	; 0x148
 800690e:	b317      	cbz	r7, 8006956 <_wrapup_reent+0x56>
 8006910:	687c      	ldr	r4, [r7, #4]
 8006912:	1e65      	subs	r5, r4, #1
 8006914:	d41c      	bmi.n	8006950 <_wrapup_reent+0x50>
 8006916:	3402      	adds	r4, #2
 8006918:	eb07 0484 	add.w	r4, r7, r4, lsl #2
 800691c:	f005 0901 	and.w	r9, r5, #1
 8006920:	f854 0d04 	ldr.w	r0, [r4, #-4]!
 8006924:	4780      	blx	r0
 8006926:	1e6e      	subs	r6, r5, #1
 8006928:	b195      	cbz	r5, 8006950 <_wrapup_reent+0x50>
 800692a:	f1b9 0f00 	cmp.w	r9, #0
 800692e:	d005      	beq.n	800693c <_wrapup_reent+0x3c>
 8006930:	f854 1d04 	ldr.w	r1, [r4, #-4]!
 8006934:	3e01      	subs	r6, #1
 8006936:	4788      	blx	r1
 8006938:	1c73      	adds	r3, r6, #1
 800693a:	d009      	beq.n	8006950 <_wrapup_reent+0x50>
 800693c:	f854 2d04 	ldr.w	r2, [r4, #-4]!
 8006940:	4790      	blx	r2
 8006942:	1e75      	subs	r5, r6, #1
 8006944:	f854 3d04 	ldr.w	r3, [r4, #-4]!
 8006948:	4798      	blx	r3
 800694a:	3e02      	subs	r6, #2
 800694c:	2d00      	cmp	r5, #0
 800694e:	d1f5      	bne.n	800693c <_wrapup_reent+0x3c>
 8006950:	683f      	ldr	r7, [r7, #0]
 8006952:	2f00      	cmp	r7, #0
 8006954:	d1dc      	bne.n	8006910 <_wrapup_reent+0x10>
 8006956:	f8d8 103c 	ldr.w	r1, [r8, #60]	; 0x3c
 800695a:	b119      	cbz	r1, 8006964 <_wrapup_reent+0x64>
 800695c:	4640      	mov	r0, r8
 800695e:	4788      	blx	r1
 8006960:	e8bd 83f8 	ldmia.w	sp!, {r3, r4, r5, r6, r7, r8, r9, pc}
 8006964:	e8bd 83f8 	ldmia.w	sp!, {r3, r4, r5, r6, r7, r8, r9, pc}
 8006968:	4b01      	ldr	r3, [pc, #4]	; (8006970 <_wrapup_reent+0x70>)
 800696a:	f8d3 8000 	ldr.w	r8, [r3]
 800696e:	e7cc      	b.n	800690a <_wrapup_reent+0xa>
 8006970:	20000ae8 	.word	0x20000ae8

08006974 <_malloc_trim_r>:
 8006974:	b5f8      	push	{r3, r4, r5, r6, r7, lr}
 8006976:	4d22      	ldr	r5, [pc, #136]	; (8006a00 <_malloc_trim_r+0x8c>)
 8006978:	460f      	mov	r7, r1
 800697a:	4604      	mov	r4, r0
 800697c:	f000 fbbe 	bl	80070fc <__malloc_lock>
 8006980:	68ab      	ldr	r3, [r5, #8]
 8006982:	685e      	ldr	r6, [r3, #4]
 8006984:	f026 0603 	bic.w	r6, r6, #3
 8006988:	f606 70ef 	addw	r0, r6, #4079	; 0xfef
 800698c:	1bc1      	subs	r1, r0, r7
 800698e:	0b0a      	lsrs	r2, r1, #12
 8006990:	1e57      	subs	r7, r2, #1
 8006992:	033f      	lsls	r7, r7, #12
 8006994:	f5b7 5f80 	cmp.w	r7, #4096	; 0x1000
 8006998:	db07      	blt.n	80069aa <_malloc_trim_r+0x36>
 800699a:	2100      	movs	r1, #0
 800699c:	4620      	mov	r0, r4
 800699e:	f000 fbb1 	bl	8007104 <_sbrk_r>
 80069a2:	68ab      	ldr	r3, [r5, #8]
 80069a4:	1999      	adds	r1, r3, r6
 80069a6:	4288      	cmp	r0, r1
 80069a8:	d004      	beq.n	80069b4 <_malloc_trim_r+0x40>
 80069aa:	4620      	mov	r0, r4
 80069ac:	f000 fba8 	bl	8007100 <__malloc_unlock>
 80069b0:	2000      	movs	r0, #0
 80069b2:	bdf8      	pop	{r3, r4, r5, r6, r7, pc}
 80069b4:	4279      	negs	r1, r7
 80069b6:	4620      	mov	r0, r4
 80069b8:	f000 fba4 	bl	8007104 <_sbrk_r>
 80069bc:	3001      	adds	r0, #1
 80069be:	d00d      	beq.n	80069dc <_malloc_trim_r+0x68>
 80069c0:	4b10      	ldr	r3, [pc, #64]	; (8006a04 <_malloc_trim_r+0x90>)
 80069c2:	68a8      	ldr	r0, [r5, #8]
 80069c4:	681a      	ldr	r2, [r3, #0]
 80069c6:	1bf6      	subs	r6, r6, r7
 80069c8:	f046 0601 	orr.w	r6, r6, #1
 80069cc:	1bd7      	subs	r7, r2, r7
 80069ce:	6046      	str	r6, [r0, #4]
 80069d0:	4620      	mov	r0, r4
 80069d2:	601f      	str	r7, [r3, #0]
 80069d4:	f000 fb94 	bl	8007100 <__malloc_unlock>
 80069d8:	2001      	movs	r0, #1
 80069da:	bdf8      	pop	{r3, r4, r5, r6, r7, pc}
 80069dc:	2100      	movs	r1, #0
 80069de:	4620      	mov	r0, r4
 80069e0:	f000 fb90 	bl	8007104 <_sbrk_r>
 80069e4:	68ab      	ldr	r3, [r5, #8]
 80069e6:	1ac2      	subs	r2, r0, r3
 80069e8:	2a0f      	cmp	r2, #15
 80069ea:	ddde      	ble.n	80069aa <_malloc_trim_r+0x36>
 80069ec:	4906      	ldr	r1, [pc, #24]	; (8006a08 <_malloc_trim_r+0x94>)
 80069ee:	6809      	ldr	r1, [r1, #0]
 80069f0:	1a40      	subs	r0, r0, r1
 80069f2:	4904      	ldr	r1, [pc, #16]	; (8006a04 <_malloc_trim_r+0x90>)
 80069f4:	f042 0201 	orr.w	r2, r2, #1
 80069f8:	6008      	str	r0, [r1, #0]
 80069fa:	605a      	str	r2, [r3, #4]
 80069fc:	e7d5      	b.n	80069aa <_malloc_trim_r+0x36>
 80069fe:	bf00      	nop
 8006a00:	20000aec 	.word	0x20000aec
 8006a04:	20000f18 	.word	0x20000f18
 8006a08:	20000ef8 	.word	0x20000ef8

08006a0c <_free_r>:
 8006a0c:	e92d 41f0 	stmdb	sp!, {r4, r5, r6, r7, r8, lr}
 8006a10:	460d      	mov	r5, r1
 8006a12:	4606      	mov	r6, r0
 8006a14:	2900      	cmp	r1, #0
 8006a16:	d055      	beq.n	8006ac4 <_free_r+0xb8>
 8006a18:	f000 fb70 	bl	80070fc <__malloc_lock>
 8006a1c:	f855 1c04 	ldr.w	r1, [r5, #-4]
 8006a20:	f8df c16c 	ldr.w	ip, [pc, #364]	; 8006b90 <_free_r+0x184>
 8006a24:	f1a5 0408 	sub.w	r4, r5, #8
 8006a28:	f021 0301 	bic.w	r3, r1, #1
 8006a2c:	18e2      	adds	r2, r4, r3
 8006a2e:	f8dc 0008 	ldr.w	r0, [ip, #8]
 8006a32:	6857      	ldr	r7, [r2, #4]
 8006a34:	4290      	cmp	r0, r2
 8006a36:	f027 0703 	bic.w	r7, r7, #3
 8006a3a:	d065      	beq.n	8006b08 <_free_r+0xfc>
 8006a3c:	f011 0101 	ands.w	r1, r1, #1
 8006a40:	6057      	str	r7, [r2, #4]
 8006a42:	d032      	beq.n	8006aaa <_free_r+0x9e>
 8006a44:	2100      	movs	r1, #0
 8006a46:	19d0      	adds	r0, r2, r7
 8006a48:	6840      	ldr	r0, [r0, #4]
 8006a4a:	07c0      	lsls	r0, r0, #31
 8006a4c:	d406      	bmi.n	8006a5c <_free_r+0x50>
 8006a4e:	19db      	adds	r3, r3, r7
 8006a50:	6890      	ldr	r0, [r2, #8]
 8006a52:	2900      	cmp	r1, #0
 8006a54:	d04a      	beq.n	8006aec <_free_r+0xe0>
 8006a56:	68d2      	ldr	r2, [r2, #12]
 8006a58:	60c2      	str	r2, [r0, #12]
 8006a5a:	6090      	str	r0, [r2, #8]
 8006a5c:	f043 0001 	orr.w	r0, r3, #1
 8006a60:	6060      	str	r0, [r4, #4]
 8006a62:	50e3      	str	r3, [r4, r3]
 8006a64:	b9e1      	cbnz	r1, 8006aa0 <_free_r+0x94>
 8006a66:	f5b3 7f00 	cmp.w	r3, #512	; 0x200
 8006a6a:	d32d      	bcc.n	8006ac8 <_free_r+0xbc>
 8006a6c:	0a5a      	lsrs	r2, r3, #9
 8006a6e:	2a04      	cmp	r2, #4
 8006a70:	d866      	bhi.n	8006b40 <_free_r+0x134>
 8006a72:	0998      	lsrs	r0, r3, #6
 8006a74:	3038      	adds	r0, #56	; 0x38
 8006a76:	0042      	lsls	r2, r0, #1
 8006a78:	eb0c 0e82 	add.w	lr, ip, r2, lsl #2
 8006a7c:	4944      	ldr	r1, [pc, #272]	; (8006b90 <_free_r+0x184>)
 8006a7e:	f8de 2008 	ldr.w	r2, [lr, #8]
 8006a82:	4572      	cmp	r2, lr
 8006a84:	d062      	beq.n	8006b4c <_free_r+0x140>
 8006a86:	6850      	ldr	r0, [r2, #4]
 8006a88:	f020 0103 	bic.w	r1, r0, #3
 8006a8c:	428b      	cmp	r3, r1
 8006a8e:	d202      	bcs.n	8006a96 <_free_r+0x8a>
 8006a90:	6892      	ldr	r2, [r2, #8]
 8006a92:	4596      	cmp	lr, r2
 8006a94:	d1f7      	bne.n	8006a86 <_free_r+0x7a>
 8006a96:	68d0      	ldr	r0, [r2, #12]
 8006a98:	60e0      	str	r0, [r4, #12]
 8006a9a:	60a2      	str	r2, [r4, #8]
 8006a9c:	60d4      	str	r4, [r2, #12]
 8006a9e:	6084      	str	r4, [r0, #8]
 8006aa0:	4630      	mov	r0, r6
 8006aa2:	e8bd 41f0 	ldmia.w	sp!, {r4, r5, r6, r7, r8, lr}
 8006aa6:	f000 bb2b 	b.w	8007100 <__malloc_unlock>
 8006aaa:	f855 5c08 	ldr.w	r5, [r5, #-8]
 8006aae:	1b64      	subs	r4, r4, r5
 8006ab0:	f10c 0808 	add.w	r8, ip, #8
 8006ab4:	68a0      	ldr	r0, [r4, #8]
 8006ab6:	4540      	cmp	r0, r8
 8006ab8:	442b      	add	r3, r5
 8006aba:	d03f      	beq.n	8006b3c <_free_r+0x130>
 8006abc:	68e5      	ldr	r5, [r4, #12]
 8006abe:	60c5      	str	r5, [r0, #12]
 8006ac0:	60a8      	str	r0, [r5, #8]
 8006ac2:	e7c0      	b.n	8006a46 <_free_r+0x3a>
 8006ac4:	e8bd 81f0 	ldmia.w	sp!, {r4, r5, r6, r7, r8, pc}
 8006ac8:	08dd      	lsrs	r5, r3, #3
 8006aca:	eb0c 02c5 	add.w	r2, ip, r5, lsl #3
 8006ace:	f8dc 0004 	ldr.w	r0, [ip, #4]
 8006ad2:	6891      	ldr	r1, [r2, #8]
 8006ad4:	60e2      	str	r2, [r4, #12]
 8006ad6:	10ab      	asrs	r3, r5, #2
 8006ad8:	2501      	movs	r5, #1
 8006ada:	fa05 f303 	lsl.w	r3, r5, r3
 8006ade:	4318      	orrs	r0, r3
 8006ae0:	60a1      	str	r1, [r4, #8]
 8006ae2:	f8cc 0004 	str.w	r0, [ip, #4]
 8006ae6:	6094      	str	r4, [r2, #8]
 8006ae8:	60cc      	str	r4, [r1, #12]
 8006aea:	e7d9      	b.n	8006aa0 <_free_r+0x94>
 8006aec:	4d29      	ldr	r5, [pc, #164]	; (8006b94 <_free_r+0x188>)
 8006aee:	42a8      	cmp	r0, r5
 8006af0:	d1b1      	bne.n	8006a56 <_free_r+0x4a>
 8006af2:	f043 0201 	orr.w	r2, r3, #1
 8006af6:	f8cc 4014 	str.w	r4, [ip, #20]
 8006afa:	f8cc 4010 	str.w	r4, [ip, #16]
 8006afe:	60e0      	str	r0, [r4, #12]
 8006b00:	60a0      	str	r0, [r4, #8]
 8006b02:	6062      	str	r2, [r4, #4]
 8006b04:	50e3      	str	r3, [r4, r3]
 8006b06:	e7cb      	b.n	8006aa0 <_free_r+0x94>
 8006b08:	18ff      	adds	r7, r7, r3
 8006b0a:	07cb      	lsls	r3, r1, #31
 8006b0c:	d407      	bmi.n	8006b1e <_free_r+0x112>
 8006b0e:	f855 1c08 	ldr.w	r1, [r5, #-8]
 8006b12:	1a64      	subs	r4, r4, r1
 8006b14:	187f      	adds	r7, r7, r1
 8006b16:	68e3      	ldr	r3, [r4, #12]
 8006b18:	68a0      	ldr	r0, [r4, #8]
 8006b1a:	60c3      	str	r3, [r0, #12]
 8006b1c:	6098      	str	r0, [r3, #8]
 8006b1e:	4a1e      	ldr	r2, [pc, #120]	; (8006b98 <_free_r+0x18c>)
 8006b20:	f8cc 4008 	str.w	r4, [ip, #8]
 8006b24:	6811      	ldr	r1, [r2, #0]
 8006b26:	f047 0301 	orr.w	r3, r7, #1
 8006b2a:	428f      	cmp	r7, r1
 8006b2c:	6063      	str	r3, [r4, #4]
 8006b2e:	d3b7      	bcc.n	8006aa0 <_free_r+0x94>
 8006b30:	4a1a      	ldr	r2, [pc, #104]	; (8006b9c <_free_r+0x190>)
 8006b32:	4630      	mov	r0, r6
 8006b34:	6811      	ldr	r1, [r2, #0]
 8006b36:	f7ff ff1d 	bl	8006974 <_malloc_trim_r>
 8006b3a:	e7b1      	b.n	8006aa0 <_free_r+0x94>
 8006b3c:	2101      	movs	r1, #1
 8006b3e:	e782      	b.n	8006a46 <_free_r+0x3a>
 8006b40:	2a14      	cmp	r2, #20
 8006b42:	d80c      	bhi.n	8006b5e <_free_r+0x152>
 8006b44:	f102 005b 	add.w	r0, r2, #91	; 0x5b
 8006b48:	0042      	lsls	r2, r0, #1
 8006b4a:	e795      	b.n	8006a78 <_free_r+0x6c>
 8006b4c:	684b      	ldr	r3, [r1, #4]
 8006b4e:	1080      	asrs	r0, r0, #2
 8006b50:	2501      	movs	r5, #1
 8006b52:	fa05 f000 	lsl.w	r0, r5, r0
 8006b56:	4303      	orrs	r3, r0
 8006b58:	604b      	str	r3, [r1, #4]
 8006b5a:	4610      	mov	r0, r2
 8006b5c:	e79c      	b.n	8006a98 <_free_r+0x8c>
 8006b5e:	2a54      	cmp	r2, #84	; 0x54
 8006b60:	d803      	bhi.n	8006b6a <_free_r+0x15e>
 8006b62:	0b18      	lsrs	r0, r3, #12
 8006b64:	306e      	adds	r0, #110	; 0x6e
 8006b66:	0042      	lsls	r2, r0, #1
 8006b68:	e786      	b.n	8006a78 <_free_r+0x6c>
 8006b6a:	f5b2 7faa 	cmp.w	r2, #340	; 0x154
 8006b6e:	d803      	bhi.n	8006b78 <_free_r+0x16c>
 8006b70:	0bd8      	lsrs	r0, r3, #15
 8006b72:	3077      	adds	r0, #119	; 0x77
 8006b74:	0042      	lsls	r2, r0, #1
 8006b76:	e77f      	b.n	8006a78 <_free_r+0x6c>
 8006b78:	f240 5154 	movw	r1, #1364	; 0x554
 8006b7c:	428a      	cmp	r2, r1
 8006b7e:	d803      	bhi.n	8006b88 <_free_r+0x17c>
 8006b80:	0c98      	lsrs	r0, r3, #18
 8006b82:	307c      	adds	r0, #124	; 0x7c
 8006b84:	0042      	lsls	r2, r0, #1
 8006b86:	e777      	b.n	8006a78 <_free_r+0x6c>
 8006b88:	22fc      	movs	r2, #252	; 0xfc
 8006b8a:	207e      	movs	r0, #126	; 0x7e
 8006b8c:	e774      	b.n	8006a78 <_free_r+0x6c>
 8006b8e:	bf00      	nop
 8006b90:	20000aec 	.word	0x20000aec
 8006b94:	20000af4 	.word	0x20000af4
 8006b98:	20000ef4 	.word	0x20000ef4
 8006b9c:	20000f14 	.word	0x20000f14

08006ba0 <_malloc_r>:
 8006ba0:	e92d 4ff0 	stmdb	sp!, {r4, r5, r6, r7, r8, r9, sl, fp, lr}
 8006ba4:	f101 050b 	add.w	r5, r1, #11
 8006ba8:	2d16      	cmp	r5, #22
 8006baa:	b083      	sub	sp, #12
 8006bac:	4606      	mov	r6, r0
 8006bae:	d927      	bls.n	8006c00 <_malloc_r+0x60>
 8006bb0:	f035 0507 	bics.w	r5, r5, #7
 8006bb4:	d427      	bmi.n	8006c06 <_malloc_r+0x66>
 8006bb6:	42a9      	cmp	r1, r5
 8006bb8:	d825      	bhi.n	8006c06 <_malloc_r+0x66>
 8006bba:	4630      	mov	r0, r6
 8006bbc:	f000 fa9e 	bl	80070fc <__malloc_lock>
 8006bc0:	f5b5 7ffc 	cmp.w	r5, #504	; 0x1f8
 8006bc4:	d223      	bcs.n	8006c0e <_malloc_r+0x6e>
 8006bc6:	4fba      	ldr	r7, [pc, #744]	; (8006eb0 <_malloc_r+0x310>)
 8006bc8:	ea4f 0cd5 	mov.w	ip, r5, lsr #3
 8006bcc:	eb07 02cc 	add.w	r2, r7, ip, lsl #3
 8006bd0:	68d4      	ldr	r4, [r2, #12]
 8006bd2:	4294      	cmp	r4, r2
 8006bd4:	f000 81de 	beq.w	8006f94 <_malloc_r+0x3f4>
 8006bd8:	6863      	ldr	r3, [r4, #4]
 8006bda:	68e2      	ldr	r2, [r4, #12]
 8006bdc:	68a1      	ldr	r1, [r4, #8]
 8006bde:	f023 0003 	bic.w	r0, r3, #3
 8006be2:	1823      	adds	r3, r4, r0
 8006be4:	60ca      	str	r2, [r1, #12]
 8006be6:	6858      	ldr	r0, [r3, #4]
 8006be8:	6091      	str	r1, [r2, #8]
 8006bea:	f040 0201 	orr.w	r2, r0, #1
 8006bee:	605a      	str	r2, [r3, #4]
 8006bf0:	4630      	mov	r0, r6
 8006bf2:	f000 fa85 	bl	8007100 <__malloc_unlock>
 8006bf6:	3408      	adds	r4, #8
 8006bf8:	4620      	mov	r0, r4
 8006bfa:	b003      	add	sp, #12
 8006bfc:	e8bd 8ff0 	ldmia.w	sp!, {r4, r5, r6, r7, r8, r9, sl, fp, pc}
 8006c00:	2510      	movs	r5, #16
 8006c02:	42a9      	cmp	r1, r5
 8006c04:	d9d9      	bls.n	8006bba <_malloc_r+0x1a>
 8006c06:	240c      	movs	r4, #12
 8006c08:	6034      	str	r4, [r6, #0]
 8006c0a:	2400      	movs	r4, #0
 8006c0c:	e7f4      	b.n	8006bf8 <_malloc_r+0x58>
 8006c0e:	ea5f 2c55 	movs.w	ip, r5, lsr #9
 8006c12:	f000 808b 	beq.w	8006d2c <_malloc_r+0x18c>
 8006c16:	f1bc 0f04 	cmp.w	ip, #4
 8006c1a:	f200 8155 	bhi.w	8006ec8 <_malloc_r+0x328>
 8006c1e:	ea4f 1795 	mov.w	r7, r5, lsr #6
 8006c22:	f107 0e38 	add.w	lr, r7, #56	; 0x38
 8006c26:	ea4f 014e 	mov.w	r1, lr, lsl #1
 8006c2a:	4fa1      	ldr	r7, [pc, #644]	; (8006eb0 <_malloc_r+0x310>)
 8006c2c:	eb07 0181 	add.w	r1, r7, r1, lsl #2
 8006c30:	68cc      	ldr	r4, [r1, #12]
 8006c32:	42a1      	cmp	r1, r4
 8006c34:	d105      	bne.n	8006c42 <_malloc_r+0xa2>
 8006c36:	e00c      	b.n	8006c52 <_malloc_r+0xb2>
 8006c38:	2a00      	cmp	r2, #0
 8006c3a:	da7c      	bge.n	8006d36 <_malloc_r+0x196>
 8006c3c:	68e4      	ldr	r4, [r4, #12]
 8006c3e:	42a1      	cmp	r1, r4
 8006c40:	d007      	beq.n	8006c52 <_malloc_r+0xb2>
 8006c42:	6863      	ldr	r3, [r4, #4]
 8006c44:	f023 0003 	bic.w	r0, r3, #3
 8006c48:	1b42      	subs	r2, r0, r5
 8006c4a:	2a0f      	cmp	r2, #15
 8006c4c:	ddf4      	ble.n	8006c38 <_malloc_r+0x98>
 8006c4e:	f10e 3eff 	add.w	lr, lr, #4294967295
 8006c52:	f10e 0c01 	add.w	ip, lr, #1
 8006c56:	4b96      	ldr	r3, [pc, #600]	; (8006eb0 <_malloc_r+0x310>)
 8006c58:	693c      	ldr	r4, [r7, #16]
 8006c5a:	f103 0e08 	add.w	lr, r3, #8
 8006c5e:	4574      	cmp	r4, lr
 8006c60:	f000 8175 	beq.w	8006f4e <_malloc_r+0x3ae>
 8006c64:	6861      	ldr	r1, [r4, #4]
 8006c66:	f021 0103 	bic.w	r1, r1, #3
 8006c6a:	1b4a      	subs	r2, r1, r5
 8006c6c:	2a0f      	cmp	r2, #15
 8006c6e:	f300 815b 	bgt.w	8006f28 <_malloc_r+0x388>
 8006c72:	2a00      	cmp	r2, #0
 8006c74:	f8c3 e014 	str.w	lr, [r3, #20]
 8006c78:	f8c3 e010 	str.w	lr, [r3, #16]
 8006c7c:	da69      	bge.n	8006d52 <_malloc_r+0x1b2>
 8006c7e:	f5b1 7f00 	cmp.w	r1, #512	; 0x200
 8006c82:	f080 812f 	bcs.w	8006ee4 <_malloc_r+0x344>
 8006c86:	08ca      	lsrs	r2, r1, #3
 8006c88:	eb03 01c2 	add.w	r1, r3, r2, lsl #3
 8006c8c:	f04f 0901 	mov.w	r9, #1
 8006c90:	1092      	asrs	r2, r2, #2
 8006c92:	fa09 f902 	lsl.w	r9, r9, r2
 8006c96:	685a      	ldr	r2, [r3, #4]
 8006c98:	6888      	ldr	r0, [r1, #8]
 8006c9a:	60e1      	str	r1, [r4, #12]
 8006c9c:	ea49 0902 	orr.w	r9, r9, r2
 8006ca0:	60a0      	str	r0, [r4, #8]
 8006ca2:	f8c3 9004 	str.w	r9, [r3, #4]
 8006ca6:	608c      	str	r4, [r1, #8]
 8006ca8:	60c4      	str	r4, [r0, #12]
 8006caa:	2001      	movs	r0, #1
 8006cac:	ea4f 04ac 	mov.w	r4, ip, asr #2
 8006cb0:	fa00 f004 	lsl.w	r0, r0, r4
 8006cb4:	4548      	cmp	r0, r9
 8006cb6:	d856      	bhi.n	8006d66 <_malloc_r+0x1c6>
 8006cb8:	ea19 0f00 	tst.w	r9, r0
 8006cbc:	d107      	bne.n	8006cce <_malloc_r+0x12e>
 8006cbe:	f02c 0c03 	bic.w	ip, ip, #3
 8006cc2:	0040      	lsls	r0, r0, #1
 8006cc4:	ea19 0f00 	tst.w	r9, r0
 8006cc8:	f10c 0c04 	add.w	ip, ip, #4
 8006ccc:	d0f9      	beq.n	8006cc2 <_malloc_r+0x122>
 8006cce:	eb07 09cc 	add.w	r9, r7, ip, lsl #3
 8006cd2:	464c      	mov	r4, r9
 8006cd4:	46e0      	mov	r8, ip
 8006cd6:	68e3      	ldr	r3, [r4, #12]
 8006cd8:	429c      	cmp	r4, r3
 8006cda:	d107      	bne.n	8006cec <_malloc_r+0x14c>
 8006cdc:	e13a      	b.n	8006f54 <_malloc_r+0x3b4>
 8006cde:	2a00      	cmp	r2, #0
 8006ce0:	f280 8162 	bge.w	8006fa8 <_malloc_r+0x408>
 8006ce4:	68db      	ldr	r3, [r3, #12]
 8006ce6:	429c      	cmp	r4, r3
 8006ce8:	f000 8134 	beq.w	8006f54 <_malloc_r+0x3b4>
 8006cec:	6859      	ldr	r1, [r3, #4]
 8006cee:	f021 0103 	bic.w	r1, r1, #3
 8006cf2:	1b4a      	subs	r2, r1, r5
 8006cf4:	2a0f      	cmp	r2, #15
 8006cf6:	ddf2      	ble.n	8006cde <_malloc_r+0x13e>
 8006cf8:	461c      	mov	r4, r3
 8006cfa:	1959      	adds	r1, r3, r5
 8006cfc:	68d8      	ldr	r0, [r3, #12]
 8006cfe:	f854 cf08 	ldr.w	ip, [r4, #8]!
 8006d02:	508a      	str	r2, [r1, r2]
 8006d04:	f045 0501 	orr.w	r5, r5, #1
 8006d08:	f042 0201 	orr.w	r2, r2, #1
 8006d0c:	f8cc 000c 	str.w	r0, [ip, #12]
 8006d10:	f8c0 c008 	str.w	ip, [r0, #8]
 8006d14:	605d      	str	r5, [r3, #4]
 8006d16:	6179      	str	r1, [r7, #20]
 8006d18:	6139      	str	r1, [r7, #16]
 8006d1a:	f8c1 e00c 	str.w	lr, [r1, #12]
 8006d1e:	f8c1 e008 	str.w	lr, [r1, #8]
 8006d22:	604a      	str	r2, [r1, #4]
 8006d24:	4630      	mov	r0, r6
 8006d26:	f000 f9eb 	bl	8007100 <__malloc_unlock>
 8006d2a:	e765      	b.n	8006bf8 <_malloc_r+0x58>
 8006d2c:	ea4f 0ed5 	mov.w	lr, r5, lsr #3
 8006d30:	ea4f 014e 	mov.w	r1, lr, lsl #1
 8006d34:	e779      	b.n	8006c2a <_malloc_r+0x8a>
 8006d36:	1822      	adds	r2, r4, r0
 8006d38:	68e3      	ldr	r3, [r4, #12]
 8006d3a:	6850      	ldr	r0, [r2, #4]
 8006d3c:	68a1      	ldr	r1, [r4, #8]
 8006d3e:	f040 0001 	orr.w	r0, r0, #1
 8006d42:	6050      	str	r0, [r2, #4]
 8006d44:	60cb      	str	r3, [r1, #12]
 8006d46:	6099      	str	r1, [r3, #8]
 8006d48:	4630      	mov	r0, r6
 8006d4a:	f000 f9d9 	bl	8007100 <__malloc_unlock>
 8006d4e:	3408      	adds	r4, #8
 8006d50:	e752      	b.n	8006bf8 <_malloc_r+0x58>
 8006d52:	1861      	adds	r1, r4, r1
 8006d54:	4630      	mov	r0, r6
 8006d56:	684b      	ldr	r3, [r1, #4]
 8006d58:	f043 0201 	orr.w	r2, r3, #1
 8006d5c:	604a      	str	r2, [r1, #4]
 8006d5e:	f000 f9cf 	bl	8007100 <__malloc_unlock>
 8006d62:	3408      	adds	r4, #8
 8006d64:	e748      	b.n	8006bf8 <_malloc_r+0x58>
 8006d66:	68bc      	ldr	r4, [r7, #8]
 8006d68:	6860      	ldr	r0, [r4, #4]
 8006d6a:	f020 0903 	bic.w	r9, r0, #3
 8006d6e:	45a9      	cmp	r9, r5
 8006d70:	d304      	bcc.n	8006d7c <_malloc_r+0x1dc>
 8006d72:	ebc5 0309 	rsb	r3, r5, r9
 8006d76:	2b0f      	cmp	r3, #15
 8006d78:	f300 808d 	bgt.w	8006e96 <_malloc_r+0x2f6>
 8006d7c:	4a4d      	ldr	r2, [pc, #308]	; (8006eb4 <_malloc_r+0x314>)
 8006d7e:	4b4e      	ldr	r3, [pc, #312]	; (8006eb8 <_malloc_r+0x318>)
 8006d80:	6811      	ldr	r1, [r2, #0]
 8006d82:	6818      	ldr	r0, [r3, #0]
 8006d84:	3101      	adds	r1, #1
 8006d86:	eb04 0b09 	add.w	fp, r4, r9
 8006d8a:	eb05 0300 	add.w	r3, r5, r0
 8006d8e:	f000 815a 	beq.w	8007046 <_malloc_r+0x4a6>
 8006d92:	f503 5080 	add.w	r0, r3, #4096	; 0x1000
 8006d96:	300f      	adds	r0, #15
 8006d98:	f420 617f 	bic.w	r1, r0, #4080	; 0xff0
 8006d9c:	f021 0c0f 	bic.w	ip, r1, #15
 8006da0:	4661      	mov	r1, ip
 8006da2:	4630      	mov	r0, r6
 8006da4:	e88d 1004 	stmia.w	sp, {r2, ip}
 8006da8:	f000 f9ac 	bl	8007104 <_sbrk_r>
 8006dac:	f1b0 3fff 	cmp.w	r0, #4294967295
 8006db0:	4680      	mov	r8, r0
 8006db2:	e89d 1004 	ldmia.w	sp, {r2, ip}
 8006db6:	f000 8152 	beq.w	800705e <_malloc_r+0x4be>
 8006dba:	4583      	cmp	fp, r0
 8006dbc:	f200 810f 	bhi.w	8006fde <_malloc_r+0x43e>
 8006dc0:	f8df a100 	ldr.w	sl, [pc, #256]	; 8006ec4 <_malloc_r+0x324>
 8006dc4:	f8da 3000 	ldr.w	r3, [sl]
 8006dc8:	45c3      	cmp	fp, r8
 8006dca:	4463      	add	r3, ip
 8006dcc:	f8ca 3000 	str.w	r3, [sl]
 8006dd0:	f000 814a 	beq.w	8007068 <_malloc_r+0x4c8>
 8006dd4:	6812      	ldr	r2, [r2, #0]
 8006dd6:	3201      	adds	r2, #1
 8006dd8:	f000 8157 	beq.w	800708a <_malloc_r+0x4ea>
 8006ddc:	ebcb 0b08 	rsb	fp, fp, r8
 8006de0:	445b      	add	r3, fp
 8006de2:	f8ca 3000 	str.w	r3, [sl]
 8006de6:	f018 0107 	ands.w	r1, r8, #7
 8006dea:	f000 810b 	beq.w	8007004 <_malloc_r+0x464>
 8006dee:	f1c1 0008 	rsb	r0, r1, #8
 8006df2:	f5c1 5380 	rsb	r3, r1, #4096	; 0x1000
 8006df6:	4480      	add	r8, r0
 8006df8:	f103 0208 	add.w	r2, r3, #8
 8006dfc:	eb08 010c 	add.w	r1, r8, ip
 8006e00:	0508      	lsls	r0, r1, #20
 8006e02:	0d03      	lsrs	r3, r0, #20
 8006e04:	ebc3 0b02 	rsb	fp, r3, r2
 8006e08:	4630      	mov	r0, r6
 8006e0a:	4659      	mov	r1, fp
 8006e0c:	f000 f97a 	bl	8007104 <_sbrk_r>
 8006e10:	1c43      	adds	r3, r0, #1
 8006e12:	f000 8146 	beq.w	80070a2 <_malloc_r+0x502>
 8006e16:	ebc8 0200 	rsb	r2, r8, r0
 8006e1a:	eb0b 0102 	add.w	r1, fp, r2
 8006e1e:	f041 0001 	orr.w	r0, r1, #1
 8006e22:	f8da 3000 	ldr.w	r3, [sl]
 8006e26:	f8c7 8008 	str.w	r8, [r7, #8]
 8006e2a:	445b      	add	r3, fp
 8006e2c:	42bc      	cmp	r4, r7
 8006e2e:	f8ca 3000 	str.w	r3, [sl]
 8006e32:	f8c8 0004 	str.w	r0, [r8, #4]
 8006e36:	d015      	beq.n	8006e64 <_malloc_r+0x2c4>
 8006e38:	f1b9 0f0f 	cmp.w	r9, #15
 8006e3c:	f240 80f2 	bls.w	8007024 <_malloc_r+0x484>
 8006e40:	6861      	ldr	r1, [r4, #4]
 8006e42:	f1a9 020c 	sub.w	r2, r9, #12
 8006e46:	f022 0207 	bic.w	r2, r2, #7
 8006e4a:	18a0      	adds	r0, r4, r2
 8006e4c:	f001 0c01 	and.w	ip, r1, #1
 8006e50:	ea42 0e0c 	orr.w	lr, r2, ip
 8006e54:	2105      	movs	r1, #5
 8006e56:	2a0f      	cmp	r2, #15
 8006e58:	f8c4 e004 	str.w	lr, [r4, #4]
 8006e5c:	6041      	str	r1, [r0, #4]
 8006e5e:	6081      	str	r1, [r0, #8]
 8006e60:	f200 8117 	bhi.w	8007092 <_malloc_r+0x4f2>
 8006e64:	4a15      	ldr	r2, [pc, #84]	; (8006ebc <_malloc_r+0x31c>)
 8006e66:	68bc      	ldr	r4, [r7, #8]
 8006e68:	6810      	ldr	r0, [r2, #0]
 8006e6a:	4283      	cmp	r3, r0
 8006e6c:	bf88      	it	hi
 8006e6e:	6013      	strhi	r3, [r2, #0]
 8006e70:	4a13      	ldr	r2, [pc, #76]	; (8006ec0 <_malloc_r+0x320>)
 8006e72:	6811      	ldr	r1, [r2, #0]
 8006e74:	428b      	cmp	r3, r1
 8006e76:	bf88      	it	hi
 8006e78:	6013      	strhi	r3, [r2, #0]
 8006e7a:	6863      	ldr	r3, [r4, #4]
 8006e7c:	f023 0003 	bic.w	r0, r3, #3
 8006e80:	42a8      	cmp	r0, r5
 8006e82:	ebc5 0300 	rsb	r3, r5, r0
 8006e86:	d301      	bcc.n	8006e8c <_malloc_r+0x2ec>
 8006e88:	2b0f      	cmp	r3, #15
 8006e8a:	dc04      	bgt.n	8006e96 <_malloc_r+0x2f6>
 8006e8c:	4630      	mov	r0, r6
 8006e8e:	f000 f937 	bl	8007100 <__malloc_unlock>
 8006e92:	2400      	movs	r4, #0
 8006e94:	e6b0      	b.n	8006bf8 <_malloc_r+0x58>
 8006e96:	1962      	adds	r2, r4, r5
 8006e98:	f043 0101 	orr.w	r1, r3, #1
 8006e9c:	f045 0501 	orr.w	r5, r5, #1
 8006ea0:	6065      	str	r5, [r4, #4]
 8006ea2:	4630      	mov	r0, r6
 8006ea4:	6051      	str	r1, [r2, #4]
 8006ea6:	60ba      	str	r2, [r7, #8]
 8006ea8:	f000 f92a 	bl	8007100 <__malloc_unlock>
 8006eac:	3408      	adds	r4, #8
 8006eae:	e6a3      	b.n	8006bf8 <_malloc_r+0x58>
 8006eb0:	20000aec 	.word	0x20000aec
 8006eb4:	20000ef8 	.word	0x20000ef8
 8006eb8:	20000f14 	.word	0x20000f14
 8006ebc:	20000f10 	.word	0x20000f10
 8006ec0:	20000f0c 	.word	0x20000f0c
 8006ec4:	20000f18 	.word	0x20000f18
 8006ec8:	f1bc 0f14 	cmp.w	ip, #20
 8006ecc:	d97b      	bls.n	8006fc6 <_malloc_r+0x426>
 8006ece:	f1bc 0f54 	cmp.w	ip, #84	; 0x54
 8006ed2:	f200 808d 	bhi.w	8006ff0 <_malloc_r+0x450>
 8006ed6:	ea4f 3415 	mov.w	r4, r5, lsr #12
 8006eda:	f104 0e6e 	add.w	lr, r4, #110	; 0x6e
 8006ede:	ea4f 014e 	mov.w	r1, lr, lsl #1
 8006ee2:	e6a2      	b.n	8006c2a <_malloc_r+0x8a>
 8006ee4:	0a48      	lsrs	r0, r1, #9
 8006ee6:	2804      	cmp	r0, #4
 8006ee8:	d972      	bls.n	8006fd0 <_malloc_r+0x430>
 8006eea:	2814      	cmp	r0, #20
 8006eec:	f200 80ae 	bhi.w	800704c <_malloc_r+0x4ac>
 8006ef0:	f100 095b 	add.w	r9, r0, #91	; 0x5b
 8006ef4:	ea4f 0249 	mov.w	r2, r9, lsl #1
 8006ef8:	eb07 0082 	add.w	r0, r7, r2, lsl #2
 8006efc:	f8df 81f0 	ldr.w	r8, [pc, #496]	; 80070f0 <_malloc_r+0x550>
 8006f00:	6883      	ldr	r3, [r0, #8]
 8006f02:	4283      	cmp	r3, r0
 8006f04:	f000 8081 	beq.w	800700a <_malloc_r+0x46a>
 8006f08:	685a      	ldr	r2, [r3, #4]
 8006f0a:	f022 0203 	bic.w	r2, r2, #3
 8006f0e:	4291      	cmp	r1, r2
 8006f10:	d202      	bcs.n	8006f18 <_malloc_r+0x378>
 8006f12:	689b      	ldr	r3, [r3, #8]
 8006f14:	4298      	cmp	r0, r3
 8006f16:	d1f7      	bne.n	8006f08 <_malloc_r+0x368>
 8006f18:	68da      	ldr	r2, [r3, #12]
 8006f1a:	f8d7 9004 	ldr.w	r9, [r7, #4]
 8006f1e:	60e2      	str	r2, [r4, #12]
 8006f20:	60a3      	str	r3, [r4, #8]
 8006f22:	60dc      	str	r4, [r3, #12]
 8006f24:	6094      	str	r4, [r2, #8]
 8006f26:	e6c0      	b.n	8006caa <_malloc_r+0x10a>
 8006f28:	1961      	adds	r1, r4, r5
 8006f2a:	f042 0001 	orr.w	r0, r2, #1
 8006f2e:	f045 0501 	orr.w	r5, r5, #1
 8006f32:	6065      	str	r5, [r4, #4]
 8006f34:	6159      	str	r1, [r3, #20]
 8006f36:	6119      	str	r1, [r3, #16]
 8006f38:	6048      	str	r0, [r1, #4]
 8006f3a:	f8c1 e00c 	str.w	lr, [r1, #12]
 8006f3e:	f8c1 e008 	str.w	lr, [r1, #8]
 8006f42:	508a      	str	r2, [r1, r2]
 8006f44:	4630      	mov	r0, r6
 8006f46:	f000 f8db 	bl	8007100 <__malloc_unlock>
 8006f4a:	3408      	adds	r4, #8
 8006f4c:	e654      	b.n	8006bf8 <_malloc_r+0x58>
 8006f4e:	f8d3 9004 	ldr.w	r9, [r3, #4]
 8006f52:	e6aa      	b.n	8006caa <_malloc_r+0x10a>
 8006f54:	f108 0801 	add.w	r8, r8, #1
 8006f58:	3408      	adds	r4, #8
 8006f5a:	f018 0f03 	tst.w	r8, #3
 8006f5e:	f47f aeba 	bne.w	8006cd6 <_malloc_r+0x136>
 8006f62:	4649      	mov	r1, r9
 8006f64:	f01c 0f03 	tst.w	ip, #3
 8006f68:	f1a1 0408 	sub.w	r4, r1, #8
 8006f6c:	f10c 3cff 	add.w	ip, ip, #4294967295
 8006f70:	f000 80b0 	beq.w	80070d4 <_malloc_r+0x534>
 8006f74:	6809      	ldr	r1, [r1, #0]
 8006f76:	42a1      	cmp	r1, r4
 8006f78:	d0f4      	beq.n	8006f64 <_malloc_r+0x3c4>
 8006f7a:	687c      	ldr	r4, [r7, #4]
 8006f7c:	0040      	lsls	r0, r0, #1
 8006f7e:	42a0      	cmp	r0, r4
 8006f80:	f63f aef1 	bhi.w	8006d66 <_malloc_r+0x1c6>
 8006f84:	2800      	cmp	r0, #0
 8006f86:	f43f aeee 	beq.w	8006d66 <_malloc_r+0x1c6>
 8006f8a:	4204      	tst	r4, r0
 8006f8c:	f000 80a7 	beq.w	80070de <_malloc_r+0x53e>
 8006f90:	46c4      	mov	ip, r8
 8006f92:	e69c      	b.n	8006cce <_malloc_r+0x12e>
 8006f94:	f104 0308 	add.w	r3, r4, #8
 8006f98:	6964      	ldr	r4, [r4, #20]
 8006f9a:	42a3      	cmp	r3, r4
 8006f9c:	bf08      	it	eq
 8006f9e:	f10c 0c02 	addeq.w	ip, ip, #2
 8006fa2:	f43f ae58 	beq.w	8006c56 <_malloc_r+0xb6>
 8006fa6:	e617      	b.n	8006bd8 <_malloc_r+0x38>
 8006fa8:	1859      	adds	r1, r3, r1
 8006faa:	461c      	mov	r4, r3
 8006fac:	6848      	ldr	r0, [r1, #4]
 8006fae:	68db      	ldr	r3, [r3, #12]
 8006fb0:	f854 2f08 	ldr.w	r2, [r4, #8]!
 8006fb4:	f040 0001 	orr.w	r0, r0, #1
 8006fb8:	6048      	str	r0, [r1, #4]
 8006fba:	60d3      	str	r3, [r2, #12]
 8006fbc:	609a      	str	r2, [r3, #8]
 8006fbe:	4630      	mov	r0, r6
 8006fc0:	f000 f89e 	bl	8007100 <__malloc_unlock>
 8006fc4:	e618      	b.n	8006bf8 <_malloc_r+0x58>
 8006fc6:	f10c 0e5b 	add.w	lr, ip, #91	; 0x5b
 8006fca:	ea4f 014e 	mov.w	r1, lr, lsl #1
 8006fce:	e62c      	b.n	8006c2a <_malloc_r+0x8a>
 8006fd0:	ea4f 1891 	mov.w	r8, r1, lsr #6
 8006fd4:	f108 0938 	add.w	r9, r8, #56	; 0x38
 8006fd8:	ea4f 0249 	mov.w	r2, r9, lsl #1
 8006fdc:	e78c      	b.n	8006ef8 <_malloc_r+0x358>
 8006fde:	42bc      	cmp	r4, r7
 8006fe0:	f43f aeee 	beq.w	8006dc0 <_malloc_r+0x220>
 8006fe4:	4c42      	ldr	r4, [pc, #264]	; (80070f0 <_malloc_r+0x550>)
 8006fe6:	68a4      	ldr	r4, [r4, #8]
 8006fe8:	6862      	ldr	r2, [r4, #4]
 8006fea:	f022 0003 	bic.w	r0, r2, #3
 8006fee:	e747      	b.n	8006e80 <_malloc_r+0x2e0>
 8006ff0:	f5bc 7faa 	cmp.w	ip, #340	; 0x154
 8006ff4:	d81c      	bhi.n	8007030 <_malloc_r+0x490>
 8006ff6:	ea4f 32d5 	mov.w	r2, r5, lsr #15
 8006ffa:	f102 0e77 	add.w	lr, r2, #119	; 0x77
 8006ffe:	ea4f 014e 	mov.w	r1, lr, lsl #1
 8007002:	e612      	b.n	8006c2a <_malloc_r+0x8a>
 8007004:	f44f 5280 	mov.w	r2, #4096	; 0x1000
 8007008:	e6f8      	b.n	8006dfc <_malloc_r+0x25c>
 800700a:	f8d8 0004 	ldr.w	r0, [r8, #4]
 800700e:	ea4f 02a9 	mov.w	r2, r9, asr #2
 8007012:	2101      	movs	r1, #1
 8007014:	fa01 f202 	lsl.w	r2, r1, r2
 8007018:	ea42 0900 	orr.w	r9, r2, r0
 800701c:	f8c8 9004 	str.w	r9, [r8, #4]
 8007020:	461a      	mov	r2, r3
 8007022:	e77c      	b.n	8006f1e <_malloc_r+0x37e>
 8007024:	2201      	movs	r2, #1
 8007026:	f8c8 2004 	str.w	r2, [r8, #4]
 800702a:	4644      	mov	r4, r8
 800702c:	2000      	movs	r0, #0
 800702e:	e727      	b.n	8006e80 <_malloc_r+0x2e0>
 8007030:	f240 5354 	movw	r3, #1364	; 0x554
 8007034:	459c      	cmp	ip, r3
 8007036:	d824      	bhi.n	8007082 <_malloc_r+0x4e2>
 8007038:	ea4f 4095 	mov.w	r0, r5, lsr #18
 800703c:	f100 0e7c 	add.w	lr, r0, #124	; 0x7c
 8007040:	ea4f 014e 	mov.w	r1, lr, lsl #1
 8007044:	e5f1      	b.n	8006c2a <_malloc_r+0x8a>
 8007046:	f103 0c10 	add.w	ip, r3, #16
 800704a:	e6a9      	b.n	8006da0 <_malloc_r+0x200>
 800704c:	2854      	cmp	r0, #84	; 0x54
 800704e:	d82c      	bhi.n	80070aa <_malloc_r+0x50a>
 8007050:	ea4f 3211 	mov.w	r2, r1, lsr #12
 8007054:	f102 096e 	add.w	r9, r2, #110	; 0x6e
 8007058:	ea4f 0249 	mov.w	r2, r9, lsl #1
 800705c:	e74c      	b.n	8006ef8 <_malloc_r+0x358>
 800705e:	68bc      	ldr	r4, [r7, #8]
 8007060:	6861      	ldr	r1, [r4, #4]
 8007062:	f021 0003 	bic.w	r0, r1, #3
 8007066:	e70b      	b.n	8006e80 <_malloc_r+0x2e0>
 8007068:	ea4f 500b 	mov.w	r0, fp, lsl #20
 800706c:	0d01      	lsrs	r1, r0, #20
 800706e:	2900      	cmp	r1, #0
 8007070:	f47f aeb0 	bne.w	8006dd4 <_malloc_r+0x234>
 8007074:	68b8      	ldr	r0, [r7, #8]
 8007076:	eb0c 0109 	add.w	r1, ip, r9
 800707a:	f041 0401 	orr.w	r4, r1, #1
 800707e:	6044      	str	r4, [r0, #4]
 8007080:	e6f0      	b.n	8006e64 <_malloc_r+0x2c4>
 8007082:	21fc      	movs	r1, #252	; 0xfc
 8007084:	f04f 0e7e 	mov.w	lr, #126	; 0x7e
 8007088:	e5cf      	b.n	8006c2a <_malloc_r+0x8a>
 800708a:	481a      	ldr	r0, [pc, #104]	; (80070f4 <_malloc_r+0x554>)
 800708c:	f8c0 8000 	str.w	r8, [r0]
 8007090:	e6a9      	b.n	8006de6 <_malloc_r+0x246>
 8007092:	f104 0108 	add.w	r1, r4, #8
 8007096:	4c18      	ldr	r4, [pc, #96]	; (80070f8 <_malloc_r+0x558>)
 8007098:	4630      	mov	r0, r6
 800709a:	f7ff fcb7 	bl	8006a0c <_free_r>
 800709e:	6823      	ldr	r3, [r4, #0]
 80070a0:	e6e0      	b.n	8006e64 <_malloc_r+0x2c4>
 80070a2:	2001      	movs	r0, #1
 80070a4:	f04f 0b00 	mov.w	fp, #0
 80070a8:	e6bb      	b.n	8006e22 <_malloc_r+0x282>
 80070aa:	f5b0 7faa 	cmp.w	r0, #340	; 0x154
 80070ae:	d806      	bhi.n	80070be <_malloc_r+0x51e>
 80070b0:	ea4f 33d1 	mov.w	r3, r1, lsr #15
 80070b4:	f103 0977 	add.w	r9, r3, #119	; 0x77
 80070b8:	ea4f 0249 	mov.w	r2, r9, lsl #1
 80070bc:	e71c      	b.n	8006ef8 <_malloc_r+0x358>
 80070be:	f240 5354 	movw	r3, #1364	; 0x554
 80070c2:	4298      	cmp	r0, r3
 80070c4:	d80f      	bhi.n	80070e6 <_malloc_r+0x546>
 80070c6:	ea4f 4091 	mov.w	r0, r1, lsr #18
 80070ca:	f100 097c 	add.w	r9, r0, #124	; 0x7c
 80070ce:	ea4f 0249 	mov.w	r2, r9, lsl #1
 80070d2:	e711      	b.n	8006ef8 <_malloc_r+0x358>
 80070d4:	687c      	ldr	r4, [r7, #4]
 80070d6:	ea24 0400 	bic.w	r4, r4, r0
 80070da:	607c      	str	r4, [r7, #4]
 80070dc:	e74e      	b.n	8006f7c <_malloc_r+0x3dc>
 80070de:	0040      	lsls	r0, r0, #1
 80070e0:	f108 0804 	add.w	r8, r8, #4
 80070e4:	e751      	b.n	8006f8a <_malloc_r+0x3ea>
 80070e6:	22fc      	movs	r2, #252	; 0xfc
 80070e8:	f04f 097e 	mov.w	r9, #126	; 0x7e
 80070ec:	e704      	b.n	8006ef8 <_malloc_r+0x358>
 80070ee:	bf00      	nop
 80070f0:	20000aec 	.word	0x20000aec
 80070f4:	20000ef8 	.word	0x20000ef8
 80070f8:	20000f18 	.word	0x20000f18

080070fc <__malloc_lock>:
 80070fc:	4770      	bx	lr
 80070fe:	bf00      	nop

08007100 <__malloc_unlock>:
 8007100:	4770      	bx	lr
 8007102:	bf00      	nop

08007104 <_sbrk_r>:
 8007104:	b538      	push	{r3, r4, r5, lr}
 8007106:	4c07      	ldr	r4, [pc, #28]	; (8007124 <_sbrk_r+0x20>)
 8007108:	2300      	movs	r3, #0
 800710a:	4605      	mov	r5, r0
 800710c:	4608      	mov	r0, r1
 800710e:	6023      	str	r3, [r4, #0]
 8007110:	f7fe f8d0 	bl	80052b4 <_sbrk>
 8007114:	1c43      	adds	r3, r0, #1
 8007116:	d000      	beq.n	800711a <_sbrk_r+0x16>
 8007118:	bd38      	pop	{r3, r4, r5, pc}
 800711a:	6821      	ldr	r1, [r4, #0]
 800711c:	2900      	cmp	r1, #0
 800711e:	d0fb      	beq.n	8007118 <_sbrk_r+0x14>
 8007120:	6029      	str	r1, [r5, #0]
 8007122:	bd38      	pop	{r3, r4, r5, pc}
 8007124:	20001234 	.word	0x20001234

08007128 <BalanceFuzzy_M>:
 8007128:	200011c8 00000043                       ... C...

08007130 <_global_impure_ptr>:
 8007130:	200006c0                                ... 
