
balanceLQR.elf:     file format elf32-littlearm


Disassembly of section .text:

08000000 <__isr_vector>:
 8000000:	2001c000 	.word	0x2001c000
 8000004:	08000189 	.word	0x08000189
 8000008:	0800192d 	.word	0x0800192d
 800000c:	08001931 	.word	0x08001931
 8000010:	08001935 	.word	0x08001935
 8000014:	08001939 	.word	0x08001939
 8000018:	0800193d 	.word	0x0800193d
	...
 800002c:	08001941 	.word	0x08001941
 8000030:	08001945 	.word	0x08001945
 8000034:	00000000 	.word	0x00000000
 8000038:	08001949 	.word	0x08001949
 800003c:	0800194d 	.word	0x0800194d
 8000040:	080001db 	.word	0x080001db
 8000044:	080001dd 	.word	0x080001dd
 8000048:	080001df 	.word	0x080001df
 800004c:	080001e1 	.word	0x080001e1
 8000050:	080001e3 	.word	0x080001e3
 8000054:	080001e5 	.word	0x080001e5
 8000058:	080001e7 	.word	0x080001e7
 800005c:	080001e9 	.word	0x080001e9
 8000060:	080001eb 	.word	0x080001eb
 8000064:	080001ed 	.word	0x080001ed
 8000068:	080001ef 	.word	0x080001ef
 800006c:	080001f1 	.word	0x080001f1
 8000070:	080001f3 	.word	0x080001f3
 8000074:	080001f5 	.word	0x080001f5
 8000078:	080001f7 	.word	0x080001f7
 800007c:	080001f9 	.word	0x080001f9
 8000080:	080001fb 	.word	0x080001fb
 8000084:	080001fd 	.word	0x080001fd
 8000088:	080001ff 	.word	0x080001ff
 800008c:	08000201 	.word	0x08000201
 8000090:	08000203 	.word	0x08000203
 8000094:	08000205 	.word	0x08000205
 8000098:	08000207 	.word	0x08000207
 800009c:	08000209 	.word	0x08000209
 80000a0:	0800020b 	.word	0x0800020b
 80000a4:	0800020d 	.word	0x0800020d
 80000a8:	0800020f 	.word	0x0800020f
 80000ac:	08000211 	.word	0x08000211
 80000b0:	08000213 	.word	0x08000213
 80000b4:	08000215 	.word	0x08000215
 80000b8:	08000217 	.word	0x08000217
 80000bc:	08000219 	.word	0x08000219
 80000c0:	0800021b 	.word	0x0800021b
 80000c4:	0800021d 	.word	0x0800021d
 80000c8:	0800021f 	.word	0x0800021f
 80000cc:	08000221 	.word	0x08000221
 80000d0:	08000223 	.word	0x08000223
 80000d4:	08000225 	.word	0x08000225
 80000d8:	08000227 	.word	0x08000227
 80000dc:	08000229 	.word	0x08000229
 80000e0:	0800022b 	.word	0x0800022b
 80000e4:	0800022d 	.word	0x0800022d
 80000e8:	0800022f 	.word	0x0800022f
 80000ec:	08000231 	.word	0x08000231
 80000f0:	08000233 	.word	0x08000233
 80000f4:	08000235 	.word	0x08000235
 80000f8:	08000237 	.word	0x08000237
 80000fc:	08000239 	.word	0x08000239
 8000100:	0800023b 	.word	0x0800023b
 8000104:	0800023d 	.word	0x0800023d
 8000108:	0800023f 	.word	0x0800023f
 800010c:	08000241 	.word	0x08000241
 8000110:	08000243 	.word	0x08000243
 8000114:	08000245 	.word	0x08000245
 8000118:	08000247 	.word	0x08000247
 800011c:	08000249 	.word	0x08000249
 8000120:	0800024b 	.word	0x0800024b
 8000124:	0800024d 	.word	0x0800024d
 8000128:	0800024f 	.word	0x0800024f
 800012c:	08000251 	.word	0x08000251
 8000130:	08000253 	.word	0x08000253
 8000134:	08000255 	.word	0x08000255
 8000138:	08000257 	.word	0x08000257
 800013c:	08000259 	.word	0x08000259
 8000140:	0800025b 	.word	0x0800025b
 8000144:	0800025d 	.word	0x0800025d
 8000148:	0800025f 	.word	0x0800025f
 800014c:	08000261 	.word	0x08000261
 8000150:	08000263 	.word	0x08000263
 8000154:	08000265 	.word	0x08000265
 8000158:	08000267 	.word	0x08000267
 800015c:	08000269 	.word	0x08000269
 8000160:	0800026b 	.word	0x0800026b
 8000164:	0800026d 	.word	0x0800026d
 8000168:	0800026f 	.word	0x0800026f
 800016c:	08000271 	.word	0x08000271
 8000170:	08000273 	.word	0x08000273
 8000174:	08000275 	.word	0x08000275
 8000178:	08000277 	.word	0x08000277
 800017c:	08000279 	.word	0x08000279
 8000180:	0800027b 	.word	0x0800027b
 8000184:	0800027d 	.word	0x0800027d

08000188 <Reset_Handler>:
 8000188:	490a      	ldr	r1, [pc, #40]	; (80001b4 <STARTUP_CLEAR_BSS+0x18>)
 800018a:	4a0b      	ldr	r2, [pc, #44]	; (80001b8 <STARTUP_CLEAR_BSS+0x1c>)
 800018c:	4b0b      	ldr	r3, [pc, #44]	; (80001bc <STARTUP_CLEAR_BSS+0x20>)
 800018e:	429a      	cmp	r2, r3
 8000190:	bfbe      	ittt	lt
 8000192:	f851 0b04 	ldrlt.w	r0, [r1], #4
 8000196:	f842 0b04 	strlt.w	r0, [r2], #4
 800019a:	e7f8      	blt.n	800018e <Reset_Handler+0x6>

0800019c <STARTUP_CLEAR_BSS>:
 800019c:	4908      	ldr	r1, [pc, #32]	; (80001c0 <STARTUP_CLEAR_BSS+0x24>)
 800019e:	4a09      	ldr	r2, [pc, #36]	; (80001c4 <STARTUP_CLEAR_BSS+0x28>)
 80001a0:	2000      	movs	r0, #0
 80001a2:	4291      	cmp	r1, r2
 80001a4:	bfbc      	itt	lt
 80001a6:	f841 0b04 	strlt.w	r0, [r1], #4
 80001aa:	e7fa      	blt.n	80001a2 <STARTUP_CLEAR_BSS+0x6>
 80001ac:	f001 fae2 	bl	8001774 <SystemInit>
 80001b0:	f001 fbdc 	bl	800196c <main>
 80001b4:	080052b8 	.word	0x080052b8
 80001b8:	20000000 	.word	0x20000000
 80001bc:	200008f4 	.word	0x200008f4
 80001c0:	200008f8 	.word	0x200008f8
 80001c4:	20000c64 	.word	0x20000c64
 80001c8:	e7fe      	b.n	80001c8 <STARTUP_CLEAR_BSS+0x2c>
 80001ca:	e7fe      	b.n	80001ca <STARTUP_CLEAR_BSS+0x2e>
 80001cc:	e7fe      	b.n	80001cc <STARTUP_CLEAR_BSS+0x30>
 80001ce:	e7fe      	b.n	80001ce <STARTUP_CLEAR_BSS+0x32>
 80001d0:	e7fe      	b.n	80001d0 <STARTUP_CLEAR_BSS+0x34>
 80001d2:	e7fe      	b.n	80001d2 <STARTUP_CLEAR_BSS+0x36>
 80001d4:	e7fe      	b.n	80001d4 <STARTUP_CLEAR_BSS+0x38>
 80001d6:	e7fe      	b.n	80001d6 <STARTUP_CLEAR_BSS+0x3a>
 80001d8:	e7fe      	b.n	80001d8 <STARTUP_CLEAR_BSS+0x3c>

080001da <WWDG_IRQHandler>:
 80001da:	e7fe      	b.n	80001da <WWDG_IRQHandler>

080001dc <PVD_IRQHandler>:
 80001dc:	e7fe      	b.n	80001dc <PVD_IRQHandler>

080001de <TAMP_STAMP_IRQHandler>:
 80001de:	e7fe      	b.n	80001de <TAMP_STAMP_IRQHandler>

080001e0 <RTC_WKUP_IRQHandler>:
 80001e0:	e7fe      	b.n	80001e0 <RTC_WKUP_IRQHandler>

080001e2 <FLASH_IRQHandler>:
 80001e2:	e7fe      	b.n	80001e2 <FLASH_IRQHandler>

080001e4 <RCC_IRQHandler>:
 80001e4:	e7fe      	b.n	80001e4 <RCC_IRQHandler>

080001e6 <EXTI0_IRQHandler>:
 80001e6:	e7fe      	b.n	80001e6 <EXTI0_IRQHandler>

080001e8 <EXTI1_IRQHandler>:
 80001e8:	e7fe      	b.n	80001e8 <EXTI1_IRQHandler>

080001ea <EXTI2_IRQHandler>:
 80001ea:	e7fe      	b.n	80001ea <EXTI2_IRQHandler>

080001ec <EXTI3_IRQHandler>:
 80001ec:	e7fe      	b.n	80001ec <EXTI3_IRQHandler>

080001ee <EXTI4_IRQHandler>:
 80001ee:	e7fe      	b.n	80001ee <EXTI4_IRQHandler>

080001f0 <DMA1_Stream0_IRQHandler>:
 80001f0:	e7fe      	b.n	80001f0 <DMA1_Stream0_IRQHandler>

080001f2 <DMA1_Stream1_IRQHandler>:
 80001f2:	e7fe      	b.n	80001f2 <DMA1_Stream1_IRQHandler>

080001f4 <DMA1_Stream2_IRQHandler>:
 80001f4:	e7fe      	b.n	80001f4 <DMA1_Stream2_IRQHandler>

080001f6 <DMA1_Stream3_IRQHandler>:
 80001f6:	e7fe      	b.n	80001f6 <DMA1_Stream3_IRQHandler>

080001f8 <DMA1_Stream4_IRQHandler>:
 80001f8:	e7fe      	b.n	80001f8 <DMA1_Stream4_IRQHandler>

080001fa <DMA1_Stream5_IRQHandler>:
 80001fa:	e7fe      	b.n	80001fa <DMA1_Stream5_IRQHandler>

080001fc <DMA1_Stream6_IRQHandler>:
 80001fc:	e7fe      	b.n	80001fc <DMA1_Stream6_IRQHandler>

080001fe <ADC_IRQHandler>:
 80001fe:	e7fe      	b.n	80001fe <ADC_IRQHandler>

08000200 <CAN1_TX_IRQHandler>:
 8000200:	e7fe      	b.n	8000200 <CAN1_TX_IRQHandler>

08000202 <CAN1_RX0_IRQHandler>:
 8000202:	e7fe      	b.n	8000202 <CAN1_RX0_IRQHandler>

08000204 <CAN1_RX1_IRQHandler>:
 8000204:	e7fe      	b.n	8000204 <CAN1_RX1_IRQHandler>

08000206 <CAN1_SCE_IRQHandler>:
 8000206:	e7fe      	b.n	8000206 <CAN1_SCE_IRQHandler>

08000208 <EXTI9_5_IRQHandler>:
 8000208:	e7fe      	b.n	8000208 <EXTI9_5_IRQHandler>

0800020a <TIM1_BRK_TIM9_IRQHandler>:
 800020a:	e7fe      	b.n	800020a <TIM1_BRK_TIM9_IRQHandler>

0800020c <TIM1_UP_TIM10_IRQHandler>:
 800020c:	e7fe      	b.n	800020c <TIM1_UP_TIM10_IRQHandler>

0800020e <TIM1_TRG_COM_TIM11_IRQHandler>:
 800020e:	e7fe      	b.n	800020e <TIM1_TRG_COM_TIM11_IRQHandler>

08000210 <TIM1_CC_IRQHandler>:
 8000210:	e7fe      	b.n	8000210 <TIM1_CC_IRQHandler>

08000212 <TIM2_IRQHandler>:
 8000212:	e7fe      	b.n	8000212 <TIM2_IRQHandler>

08000214 <TIM3_IRQHandler>:
 8000214:	e7fe      	b.n	8000214 <TIM3_IRQHandler>

08000216 <TIM4_IRQHandler>:
 8000216:	e7fe      	b.n	8000216 <TIM4_IRQHandler>

08000218 <I2C1_EV_IRQHandler>:
 8000218:	e7fe      	b.n	8000218 <I2C1_EV_IRQHandler>

0800021a <I2C1_ER_IRQHandler>:
 800021a:	e7fe      	b.n	800021a <I2C1_ER_IRQHandler>

0800021c <I2C2_EV_IRQHandler>:
 800021c:	e7fe      	b.n	800021c <I2C2_EV_IRQHandler>

0800021e <I2C2_ER_IRQHandler>:
 800021e:	e7fe      	b.n	800021e <I2C2_ER_IRQHandler>

08000220 <SPI1_IRQHandler>:
 8000220:	e7fe      	b.n	8000220 <SPI1_IRQHandler>

08000222 <SPI2_IRQHandler>:
 8000222:	e7fe      	b.n	8000222 <SPI2_IRQHandler>

08000224 <USART1_IRQHandler>:
 8000224:	e7fe      	b.n	8000224 <USART1_IRQHandler>

08000226 <USART2_IRQHandler>:
 8000226:	e7fe      	b.n	8000226 <USART2_IRQHandler>

08000228 <USART3_IRQHandler>:
 8000228:	e7fe      	b.n	8000228 <USART3_IRQHandler>

0800022a <EXTI15_10_IRQHandler>:
 800022a:	e7fe      	b.n	800022a <EXTI15_10_IRQHandler>

0800022c <RTC_Alarm_IRQHandler>:
 800022c:	e7fe      	b.n	800022c <RTC_Alarm_IRQHandler>

0800022e <OTG_FS_WKUP_IRQHandler>:
 800022e:	e7fe      	b.n	800022e <OTG_FS_WKUP_IRQHandler>

08000230 <TIM8_BRK_TIM12_IRQHandler>:
 8000230:	e7fe      	b.n	8000230 <TIM8_BRK_TIM12_IRQHandler>

08000232 <TIM8_UP_TIM13_IRQHandler>:
 8000232:	e7fe      	b.n	8000232 <TIM8_UP_TIM13_IRQHandler>

08000234 <TIM8_TRG_COM_TIM14_IRQHandler>:
 8000234:	e7fe      	b.n	8000234 <TIM8_TRG_COM_TIM14_IRQHandler>

08000236 <TIM8_CC_IRQHandler>:
 8000236:	e7fe      	b.n	8000236 <TIM8_CC_IRQHandler>

08000238 <DMA1_Stream7_IRQHandler>:
 8000238:	e7fe      	b.n	8000238 <DMA1_Stream7_IRQHandler>

0800023a <FSMC_IRQHandler>:
 800023a:	e7fe      	b.n	800023a <FSMC_IRQHandler>

0800023c <SDIO_IRQHandler>:
 800023c:	e7fe      	b.n	800023c <SDIO_IRQHandler>

0800023e <TIM5_IRQHandler>:
 800023e:	e7fe      	b.n	800023e <TIM5_IRQHandler>

08000240 <SPI3_IRQHandler>:
 8000240:	e7fe      	b.n	8000240 <SPI3_IRQHandler>

08000242 <UART4_IRQHandler>:
 8000242:	e7fe      	b.n	8000242 <UART4_IRQHandler>

08000244 <UART5_IRQHandler>:
 8000244:	e7fe      	b.n	8000244 <UART5_IRQHandler>

08000246 <TIM6_DAC_IRQHandler>:
 8000246:	e7fe      	b.n	8000246 <TIM6_DAC_IRQHandler>

08000248 <TIM7_IRQHandler>:
 8000248:	e7fe      	b.n	8000248 <TIM7_IRQHandler>

0800024a <DMA2_Stream0_IRQHandler>:
 800024a:	e7fe      	b.n	800024a <DMA2_Stream0_IRQHandler>

0800024c <DMA2_Stream1_IRQHandler>:
 800024c:	e7fe      	b.n	800024c <DMA2_Stream1_IRQHandler>

0800024e <DMA2_Stream2_IRQHandler>:
 800024e:	e7fe      	b.n	800024e <DMA2_Stream2_IRQHandler>

08000250 <DMA2_Stream3_IRQHandler>:
 8000250:	e7fe      	b.n	8000250 <DMA2_Stream3_IRQHandler>

08000252 <DMA2_Stream4_IRQHandler>:
 8000252:	e7fe      	b.n	8000252 <DMA2_Stream4_IRQHandler>

08000254 <ETH_IRQHandler>:
 8000254:	e7fe      	b.n	8000254 <ETH_IRQHandler>

08000256 <ETH_WKUP_IRQHandler>:
 8000256:	e7fe      	b.n	8000256 <ETH_WKUP_IRQHandler>

08000258 <CAN2_TX_IRQHandler>:
 8000258:	e7fe      	b.n	8000258 <CAN2_TX_IRQHandler>

0800025a <CAN2_RX0_IRQHandler>:
 800025a:	e7fe      	b.n	800025a <CAN2_RX0_IRQHandler>

0800025c <CAN2_RX1_IRQHandler>:
 800025c:	e7fe      	b.n	800025c <CAN2_RX1_IRQHandler>

0800025e <CAN2_SCE_IRQHandler>:
 800025e:	e7fe      	b.n	800025e <CAN2_SCE_IRQHandler>

08000260 <OTG_FS_IRQHandler>:
 8000260:	e7fe      	b.n	8000260 <OTG_FS_IRQHandler>

08000262 <DMA2_Stream5_IRQHandler>:
 8000262:	e7fe      	b.n	8000262 <DMA2_Stream5_IRQHandler>

08000264 <DMA2_Stream6_IRQHandler>:
 8000264:	e7fe      	b.n	8000264 <DMA2_Stream6_IRQHandler>

08000266 <DMA2_Stream7_IRQHandler>:
 8000266:	e7fe      	b.n	8000266 <DMA2_Stream7_IRQHandler>

08000268 <USART6_IRQHandler>:
 8000268:	e7fe      	b.n	8000268 <USART6_IRQHandler>

0800026a <I2C3_EV_IRQHandler>:
 800026a:	e7fe      	b.n	800026a <I2C3_EV_IRQHandler>

0800026c <I2C3_ER_IRQHandler>:
 800026c:	e7fe      	b.n	800026c <I2C3_ER_IRQHandler>

0800026e <OTG_HS_EP1_OUT_IRQHandler>:
 800026e:	e7fe      	b.n	800026e <OTG_HS_EP1_OUT_IRQHandler>

08000270 <OTG_HS_EP1_IN_IRQHandler>:
 8000270:	e7fe      	b.n	8000270 <OTG_HS_EP1_IN_IRQHandler>

08000272 <OTG_HS_WKUP_IRQHandler>:
 8000272:	e7fe      	b.n	8000272 <OTG_HS_WKUP_IRQHandler>

08000274 <OTG_HS_IRQHandler>:
 8000274:	e7fe      	b.n	8000274 <OTG_HS_IRQHandler>

08000276 <DCMI_IRQHandler>:
 8000276:	e7fe      	b.n	8000276 <DCMI_IRQHandler>

08000278 <CRYP_IRQHandler>:
 8000278:	e7fe      	b.n	8000278 <CRYP_IRQHandler>

0800027a <HASH_RNG_IRQHandler>:
 800027a:	e7fe      	b.n	800027a <HASH_RNG_IRQHandler>

0800027c <FPU_IRQHandler>:
 800027c:	e7fe      	b.n	800027c <FPU_IRQHandler>
 800027e:	bf00      	nop

08000280 <TIM_DeInit>:
 8000280:	b508      	push	{r3, lr}
 8000282:	2300      	movs	r3, #0
 8000284:	f2c4 0301 	movt	r3, #16385	; 0x4001
 8000288:	4298      	cmp	r0, r3
 800028a:	d05b      	beq.n	8000344 <TIM_DeInit+0xc4>
 800028c:	f1b0 4f80 	cmp.w	r0, #1073741824	; 0x40000000
 8000290:	d062      	beq.n	8000358 <TIM_DeInit+0xd8>
 8000292:	f44f 6180 	mov.w	r1, #1024	; 0x400
 8000296:	f2c4 0100 	movt	r1, #16384	; 0x4000
 800029a:	4288      	cmp	r0, r1
 800029c:	d066      	beq.n	800036c <TIM_DeInit+0xec>
 800029e:	f44f 6200 	mov.w	r2, #2048	; 0x800
 80002a2:	f2c4 0200 	movt	r2, #16384	; 0x4000
 80002a6:	4290      	cmp	r0, r2
 80002a8:	d06a      	beq.n	8000380 <TIM_DeInit+0x100>
 80002aa:	f44f 6340 	mov.w	r3, #3072	; 0xc00
 80002ae:	f2c4 0300 	movt	r3, #16384	; 0x4000
 80002b2:	4298      	cmp	r0, r3
 80002b4:	d06e      	beq.n	8000394 <TIM_DeInit+0x114>
 80002b6:	f44f 5180 	mov.w	r1, #4096	; 0x1000
 80002ba:	f2c4 0100 	movt	r1, #16384	; 0x4000
 80002be:	4288      	cmp	r0, r1
 80002c0:	d072      	beq.n	80003a8 <TIM_DeInit+0x128>
 80002c2:	f44f 52a0 	mov.w	r2, #5120	; 0x1400
 80002c6:	f2c4 0200 	movt	r2, #16384	; 0x4000
 80002ca:	4290      	cmp	r0, r2
 80002cc:	d076      	beq.n	80003bc <TIM_DeInit+0x13c>
 80002ce:	f44f 6380 	mov.w	r3, #1024	; 0x400
 80002d2:	f2c4 0301 	movt	r3, #16385	; 0x4001
 80002d6:	4298      	cmp	r0, r3
 80002d8:	d07a      	beq.n	80003d0 <TIM_DeInit+0x150>
 80002da:	f44f 4180 	mov.w	r1, #16384	; 0x4000
 80002de:	f2c4 0101 	movt	r1, #16385	; 0x4001
 80002e2:	4288      	cmp	r0, r1
 80002e4:	d07e      	beq.n	80003e4 <TIM_DeInit+0x164>
 80002e6:	f44f 4288 	mov.w	r2, #17408	; 0x4400
 80002ea:	f2c4 0201 	movt	r2, #16385	; 0x4001
 80002ee:	4290      	cmp	r0, r2
 80002f0:	f000 8084 	beq.w	80003fc <TIM_DeInit+0x17c>
 80002f4:	f44f 4390 	mov.w	r3, #18432	; 0x4800
 80002f8:	f2c4 0301 	movt	r3, #16385	; 0x4001
 80002fc:	4298      	cmp	r0, r3
 80002fe:	f000 8089 	beq.w	8000414 <TIM_DeInit+0x194>
 8000302:	f44f 51c0 	mov.w	r1, #6144	; 0x1800
 8000306:	f2c4 0100 	movt	r1, #16384	; 0x4000
 800030a:	4288      	cmp	r0, r1
 800030c:	f000 808e 	beq.w	800042c <TIM_DeInit+0x1ac>
 8000310:	f44f 52e0 	mov.w	r2, #7168	; 0x1c00
 8000314:	f2c4 0200 	movt	r2, #16384	; 0x4000
 8000318:	4290      	cmp	r0, r2
 800031a:	f000 8091 	beq.w	8000440 <TIM_DeInit+0x1c0>
 800031e:	f44f 5300 	mov.w	r3, #8192	; 0x2000
 8000322:	f2c4 0300 	movt	r3, #16384	; 0x4000
 8000326:	4298      	cmp	r0, r3
 8000328:	d000      	beq.n	800032c <TIM_DeInit+0xac>
 800032a:	bd08      	pop	{r3, pc}
 800032c:	2101      	movs	r1, #1
 800032e:	f44f 7080 	mov.w	r0, #256	; 0x100
 8000332:	f001 f8ed 	bl	8001510 <RCC_APB1PeriphResetCmd>
 8000336:	f44f 7080 	mov.w	r0, #256	; 0x100
 800033a:	2100      	movs	r1, #0
 800033c:	e8bd 4008 	ldmia.w	sp!, {r3, lr}
 8000340:	f001 b8e6 	b.w	8001510 <RCC_APB1PeriphResetCmd>
 8000344:	2001      	movs	r0, #1
 8000346:	4601      	mov	r1, r0
 8000348:	f001 f8f0 	bl	800152c <RCC_APB2PeriphResetCmd>
 800034c:	2001      	movs	r0, #1
 800034e:	2100      	movs	r1, #0
 8000350:	e8bd 4008 	ldmia.w	sp!, {r3, lr}
 8000354:	f001 b8ea 	b.w	800152c <RCC_APB2PeriphResetCmd>
 8000358:	2001      	movs	r0, #1
 800035a:	4601      	mov	r1, r0
 800035c:	f001 f8d8 	bl	8001510 <RCC_APB1PeriphResetCmd>
 8000360:	2001      	movs	r0, #1
 8000362:	2100      	movs	r1, #0
 8000364:	e8bd 4008 	ldmia.w	sp!, {r3, lr}
 8000368:	f001 b8d2 	b.w	8001510 <RCC_APB1PeriphResetCmd>
 800036c:	2002      	movs	r0, #2
 800036e:	2101      	movs	r1, #1
 8000370:	f001 f8ce 	bl	8001510 <RCC_APB1PeriphResetCmd>
 8000374:	2002      	movs	r0, #2
 8000376:	2100      	movs	r1, #0
 8000378:	e8bd 4008 	ldmia.w	sp!, {r3, lr}
 800037c:	f001 b8c8 	b.w	8001510 <RCC_APB1PeriphResetCmd>
 8000380:	2004      	movs	r0, #4
 8000382:	2101      	movs	r1, #1
 8000384:	f001 f8c4 	bl	8001510 <RCC_APB1PeriphResetCmd>
 8000388:	2004      	movs	r0, #4
 800038a:	2100      	movs	r1, #0
 800038c:	e8bd 4008 	ldmia.w	sp!, {r3, lr}
 8000390:	f001 b8be 	b.w	8001510 <RCC_APB1PeriphResetCmd>
 8000394:	2008      	movs	r0, #8
 8000396:	2101      	movs	r1, #1
 8000398:	f001 f8ba 	bl	8001510 <RCC_APB1PeriphResetCmd>
 800039c:	2008      	movs	r0, #8
 800039e:	2100      	movs	r1, #0
 80003a0:	e8bd 4008 	ldmia.w	sp!, {r3, lr}
 80003a4:	f001 b8b4 	b.w	8001510 <RCC_APB1PeriphResetCmd>
 80003a8:	2010      	movs	r0, #16
 80003aa:	2101      	movs	r1, #1
 80003ac:	f001 f8b0 	bl	8001510 <RCC_APB1PeriphResetCmd>
 80003b0:	2010      	movs	r0, #16
 80003b2:	2100      	movs	r1, #0
 80003b4:	e8bd 4008 	ldmia.w	sp!, {r3, lr}
 80003b8:	f001 b8aa 	b.w	8001510 <RCC_APB1PeriphResetCmd>
 80003bc:	2020      	movs	r0, #32
 80003be:	2101      	movs	r1, #1
 80003c0:	f001 f8a6 	bl	8001510 <RCC_APB1PeriphResetCmd>
 80003c4:	2020      	movs	r0, #32
 80003c6:	2100      	movs	r1, #0
 80003c8:	e8bd 4008 	ldmia.w	sp!, {r3, lr}
 80003cc:	f001 b8a0 	b.w	8001510 <RCC_APB1PeriphResetCmd>
 80003d0:	2002      	movs	r0, #2
 80003d2:	2101      	movs	r1, #1
 80003d4:	f001 f8aa 	bl	800152c <RCC_APB2PeriphResetCmd>
 80003d8:	2002      	movs	r0, #2
 80003da:	2100      	movs	r1, #0
 80003dc:	e8bd 4008 	ldmia.w	sp!, {r3, lr}
 80003e0:	f001 b8a4 	b.w	800152c <RCC_APB2PeriphResetCmd>
 80003e4:	2101      	movs	r1, #1
 80003e6:	f44f 3080 	mov.w	r0, #65536	; 0x10000
 80003ea:	f001 f89f 	bl	800152c <RCC_APB2PeriphResetCmd>
 80003ee:	f44f 3080 	mov.w	r0, #65536	; 0x10000
 80003f2:	2100      	movs	r1, #0
 80003f4:	e8bd 4008 	ldmia.w	sp!, {r3, lr}
 80003f8:	f001 b898 	b.w	800152c <RCC_APB2PeriphResetCmd>
 80003fc:	2101      	movs	r1, #1
 80003fe:	f44f 3000 	mov.w	r0, #131072	; 0x20000
 8000402:	f001 f893 	bl	800152c <RCC_APB2PeriphResetCmd>
 8000406:	f44f 3000 	mov.w	r0, #131072	; 0x20000
 800040a:	2100      	movs	r1, #0
 800040c:	e8bd 4008 	ldmia.w	sp!, {r3, lr}
 8000410:	f001 b88c 	b.w	800152c <RCC_APB2PeriphResetCmd>
 8000414:	2101      	movs	r1, #1
 8000416:	f44f 2080 	mov.w	r0, #262144	; 0x40000
 800041a:	f001 f887 	bl	800152c <RCC_APB2PeriphResetCmd>
 800041e:	f44f 2080 	mov.w	r0, #262144	; 0x40000
 8000422:	2100      	movs	r1, #0
 8000424:	e8bd 4008 	ldmia.w	sp!, {r3, lr}
 8000428:	f001 b880 	b.w	800152c <RCC_APB2PeriphResetCmd>
 800042c:	2040      	movs	r0, #64	; 0x40
 800042e:	2101      	movs	r1, #1
 8000430:	f001 f86e 	bl	8001510 <RCC_APB1PeriphResetCmd>
 8000434:	2040      	movs	r0, #64	; 0x40
 8000436:	2100      	movs	r1, #0
 8000438:	e8bd 4008 	ldmia.w	sp!, {r3, lr}
 800043c:	f001 b868 	b.w	8001510 <RCC_APB1PeriphResetCmd>
 8000440:	2080      	movs	r0, #128	; 0x80
 8000442:	2101      	movs	r1, #1
 8000444:	f001 f864 	bl	8001510 <RCC_APB1PeriphResetCmd>
 8000448:	2080      	movs	r0, #128	; 0x80
 800044a:	2100      	movs	r1, #0
 800044c:	e8bd 4008 	ldmia.w	sp!, {r3, lr}
 8000450:	f001 b85e 	b.w	8001510 <RCC_APB1PeriphResetCmd>

08000454 <TIM_TimeBaseInit>:
 8000454:	2200      	movs	r2, #0
 8000456:	8803      	ldrh	r3, [r0, #0]
 8000458:	f2c4 0201 	movt	r2, #16385	; 0x4001
 800045c:	4290      	cmp	r0, r2
 800045e:	b470      	push	{r4, r5, r6}
 8000460:	b29b      	uxth	r3, r3
 8000462:	d01a      	beq.n	800049a <TIM_TimeBaseInit+0x46>
 8000464:	f44f 6280 	mov.w	r2, #1024	; 0x400
 8000468:	f2c4 0201 	movt	r2, #16385	; 0x4001
 800046c:	4290      	cmp	r0, r2
 800046e:	d014      	beq.n	800049a <TIM_TimeBaseInit+0x46>
 8000470:	f1b0 4f80 	cmp.w	r0, #1073741824	; 0x40000000
 8000474:	d011      	beq.n	800049a <TIM_TimeBaseInit+0x46>
 8000476:	f44f 6280 	mov.w	r2, #1024	; 0x400
 800047a:	f2c4 0200 	movt	r2, #16384	; 0x4000
 800047e:	4290      	cmp	r0, r2
 8000480:	d00b      	beq.n	800049a <TIM_TimeBaseInit+0x46>
 8000482:	f44f 6200 	mov.w	r2, #2048	; 0x800
 8000486:	f2c4 0200 	movt	r2, #16384	; 0x4000
 800048a:	4290      	cmp	r0, r2
 800048c:	d005      	beq.n	800049a <TIM_TimeBaseInit+0x46>
 800048e:	f44f 6240 	mov.w	r2, #3072	; 0xc00
 8000492:	f2c4 0200 	movt	r2, #16384	; 0x4000
 8000496:	4290      	cmp	r0, r2
 8000498:	d105      	bne.n	80004a6 <TIM_TimeBaseInit+0x52>
 800049a:	f64f 728f 	movw	r2, #65423	; 0xff8f
 800049e:	884c      	ldrh	r4, [r1, #2]
 80004a0:	401a      	ands	r2, r3
 80004a2:	ea42 0304 	orr.w	r3, r2, r4
 80004a6:	f44f 5280 	mov.w	r2, #4096	; 0x1000
 80004aa:	f2c4 0200 	movt	r2, #16384	; 0x4000
 80004ae:	4290      	cmp	r0, r2
 80004b0:	d021      	beq.n	80004f6 <TIM_TimeBaseInit+0xa2>
 80004b2:	f44f 52a0 	mov.w	r2, #5120	; 0x1400
 80004b6:	f2c4 0200 	movt	r2, #16384	; 0x4000
 80004ba:	4290      	cmp	r0, r2
 80004bc:	d01b      	beq.n	80004f6 <TIM_TimeBaseInit+0xa2>
 80004be:	f64f 42ff 	movw	r2, #64767	; 0xfcff
 80004c2:	890e      	ldrh	r6, [r1, #8]
 80004c4:	684c      	ldr	r4, [r1, #4]
 80004c6:	880d      	ldrh	r5, [r1, #0]
 80004c8:	401a      	ands	r2, r3
 80004ca:	2300      	movs	r3, #0
 80004cc:	f2c4 0301 	movt	r3, #16385	; 0x4001
 80004d0:	4332      	orrs	r2, r6
 80004d2:	4298      	cmp	r0, r3
 80004d4:	8002      	strh	r2, [r0, #0]
 80004d6:	62c4      	str	r4, [r0, #44]	; 0x2c
 80004d8:	8505      	strh	r5, [r0, #40]	; 0x28
 80004da:	d009      	beq.n	80004f0 <TIM_TimeBaseInit+0x9c>
 80004dc:	f44f 6280 	mov.w	r2, #1024	; 0x400
 80004e0:	f2c4 0201 	movt	r2, #16385	; 0x4001
 80004e4:	4290      	cmp	r0, r2
 80004e6:	d003      	beq.n	80004f0 <TIM_TimeBaseInit+0x9c>
 80004e8:	2301      	movs	r3, #1
 80004ea:	8283      	strh	r3, [r0, #20]
 80004ec:	bc70      	pop	{r4, r5, r6}
 80004ee:	4770      	bx	lr
 80004f0:	7a89      	ldrb	r1, [r1, #10]
 80004f2:	8601      	strh	r1, [r0, #48]	; 0x30
 80004f4:	e7f8      	b.n	80004e8 <TIM_TimeBaseInit+0x94>
 80004f6:	8003      	strh	r3, [r0, #0]
 80004f8:	684a      	ldr	r2, [r1, #4]
 80004fa:	8809      	ldrh	r1, [r1, #0]
 80004fc:	62c2      	str	r2, [r0, #44]	; 0x2c
 80004fe:	8501      	strh	r1, [r0, #40]	; 0x28
 8000500:	e7f2      	b.n	80004e8 <TIM_TimeBaseInit+0x94>
 8000502:	bf00      	nop

08000504 <TIM_TimeBaseStructInit>:
 8000504:	2300      	movs	r3, #0
 8000506:	f04f 31ff 	mov.w	r1, #4294967295
 800050a:	6041      	str	r1, [r0, #4]
 800050c:	8003      	strh	r3, [r0, #0]
 800050e:	8103      	strh	r3, [r0, #8]
 8000510:	8043      	strh	r3, [r0, #2]
 8000512:	7283      	strb	r3, [r0, #10]
 8000514:	4770      	bx	lr
 8000516:	bf00      	nop

08000518 <TIM_PrescalerConfig>:
 8000518:	8501      	strh	r1, [r0, #40]	; 0x28
 800051a:	8282      	strh	r2, [r0, #20]
 800051c:	4770      	bx	lr
 800051e:	bf00      	nop

08000520 <TIM_CounterModeConfig>:
 8000520:	8803      	ldrh	r3, [r0, #0]
 8000522:	f023 0270 	bic.w	r2, r3, #112	; 0x70
 8000526:	0413      	lsls	r3, r2, #16
 8000528:	0c1a      	lsrs	r2, r3, #16
 800052a:	4311      	orrs	r1, r2
 800052c:	8001      	strh	r1, [r0, #0]
 800052e:	4770      	bx	lr

08000530 <TIM_SetCounter>:
 8000530:	6241      	str	r1, [r0, #36]	; 0x24
 8000532:	4770      	bx	lr

08000534 <TIM_SetAutoreload>:
 8000534:	62c1      	str	r1, [r0, #44]	; 0x2c
 8000536:	4770      	bx	lr

08000538 <TIM_GetCounter>:
 8000538:	6a40      	ldr	r0, [r0, #36]	; 0x24
 800053a:	4770      	bx	lr

0800053c <TIM_GetPrescaler>:
 800053c:	8d00      	ldrh	r0, [r0, #40]	; 0x28
 800053e:	b280      	uxth	r0, r0
 8000540:	4770      	bx	lr
 8000542:	bf00      	nop

08000544 <TIM_UpdateDisableConfig>:
 8000544:	8803      	ldrh	r3, [r0, #0]
 8000546:	b929      	cbnz	r1, 8000554 <TIM_UpdateDisableConfig+0x10>
 8000548:	f023 0102 	bic.w	r1, r3, #2
 800054c:	040a      	lsls	r2, r1, #16
 800054e:	0c13      	lsrs	r3, r2, #16
 8000550:	8003      	strh	r3, [r0, #0]
 8000552:	4770      	bx	lr
 8000554:	b299      	uxth	r1, r3
 8000556:	f041 0202 	orr.w	r2, r1, #2
 800055a:	8002      	strh	r2, [r0, #0]
 800055c:	4770      	bx	lr
 800055e:	bf00      	nop

08000560 <TIM_UpdateRequestConfig>:
 8000560:	8803      	ldrh	r3, [r0, #0]
 8000562:	b929      	cbnz	r1, 8000570 <TIM_UpdateRequestConfig+0x10>
 8000564:	f023 0104 	bic.w	r1, r3, #4
 8000568:	040a      	lsls	r2, r1, #16
 800056a:	0c13      	lsrs	r3, r2, #16
 800056c:	8003      	strh	r3, [r0, #0]
 800056e:	4770      	bx	lr
 8000570:	b299      	uxth	r1, r3
 8000572:	f041 0204 	orr.w	r2, r1, #4
 8000576:	8002      	strh	r2, [r0, #0]
 8000578:	4770      	bx	lr
 800057a:	bf00      	nop

0800057c <TIM_ARRPreloadConfig>:
 800057c:	8803      	ldrh	r3, [r0, #0]
 800057e:	b929      	cbnz	r1, 800058c <TIM_ARRPreloadConfig+0x10>
 8000580:	f023 0180 	bic.w	r1, r3, #128	; 0x80
 8000584:	040a      	lsls	r2, r1, #16
 8000586:	0c13      	lsrs	r3, r2, #16
 8000588:	8003      	strh	r3, [r0, #0]
 800058a:	4770      	bx	lr
 800058c:	b299      	uxth	r1, r3
 800058e:	f041 0280 	orr.w	r2, r1, #128	; 0x80
 8000592:	8002      	strh	r2, [r0, #0]
 8000594:	4770      	bx	lr
 8000596:	bf00      	nop

08000598 <TIM_SelectOnePulseMode>:
 8000598:	8803      	ldrh	r3, [r0, #0]
 800059a:	f023 0208 	bic.w	r2, r3, #8
 800059e:	0413      	lsls	r3, r2, #16
 80005a0:	0c1a      	lsrs	r2, r3, #16
 80005a2:	8002      	strh	r2, [r0, #0]
 80005a4:	8803      	ldrh	r3, [r0, #0]
 80005a6:	b29a      	uxth	r2, r3
 80005a8:	4311      	orrs	r1, r2
 80005aa:	8001      	strh	r1, [r0, #0]
 80005ac:	4770      	bx	lr
 80005ae:	bf00      	nop

080005b0 <TIM_SetClockDivision>:
 80005b0:	8803      	ldrh	r3, [r0, #0]
 80005b2:	f423 7240 	bic.w	r2, r3, #768	; 0x300
 80005b6:	0413      	lsls	r3, r2, #16
 80005b8:	0c1a      	lsrs	r2, r3, #16
 80005ba:	8002      	strh	r2, [r0, #0]
 80005bc:	8803      	ldrh	r3, [r0, #0]
 80005be:	b29a      	uxth	r2, r3
 80005c0:	4311      	orrs	r1, r2
 80005c2:	8001      	strh	r1, [r0, #0]
 80005c4:	4770      	bx	lr
 80005c6:	bf00      	nop

080005c8 <TIM_Cmd>:
 80005c8:	8803      	ldrh	r3, [r0, #0]
 80005ca:	b929      	cbnz	r1, 80005d8 <TIM_Cmd+0x10>
 80005cc:	f023 0101 	bic.w	r1, r3, #1
 80005d0:	040a      	lsls	r2, r1, #16
 80005d2:	0c13      	lsrs	r3, r2, #16
 80005d4:	8003      	strh	r3, [r0, #0]
 80005d6:	4770      	bx	lr
 80005d8:	b299      	uxth	r1, r3
 80005da:	f041 0201 	orr.w	r2, r1, #1
 80005de:	8002      	strh	r2, [r0, #0]
 80005e0:	4770      	bx	lr
 80005e2:	bf00      	nop

080005e4 <TIM_OC1Init>:
 80005e4:	e92d 01f0 	stmdb	sp!, {r4, r5, r6, r7, r8}
 80005e8:	8c04      	ldrh	r4, [r0, #32]
 80005ea:	f8b1 c002 	ldrh.w	ip, [r1, #2]
 80005ee:	898e      	ldrh	r6, [r1, #12]
 80005f0:	880f      	ldrh	r7, [r1, #0]
 80005f2:	f024 0201 	bic.w	r2, r4, #1
 80005f6:	0413      	lsls	r3, r2, #16
 80005f8:	0c1d      	lsrs	r5, r3, #16
 80005fa:	8405      	strh	r5, [r0, #32]
 80005fc:	8c04      	ldrh	r4, [r0, #32]
 80005fe:	8885      	ldrh	r5, [r0, #4]
 8000600:	8b02      	ldrh	r2, [r0, #24]
 8000602:	f024 0302 	bic.w	r3, r4, #2
 8000606:	f022 0473 	bic.w	r4, r2, #115	; 0x73
 800060a:	0422      	lsls	r2, r4, #16
 800060c:	2400      	movs	r4, #0
 800060e:	041b      	lsls	r3, r3, #16
 8000610:	ea4c 0606 	orr.w	r6, ip, r6
 8000614:	f2c4 0401 	movt	r4, #16385	; 0x4001
 8000618:	0c12      	lsrs	r2, r2, #16
 800061a:	0c1b      	lsrs	r3, r3, #16
 800061c:	b2b6      	uxth	r6, r6
 800061e:	42a0      	cmp	r0, r4
 8000620:	b2ad      	uxth	r5, r5
 8000622:	ea42 0207 	orr.w	r2, r2, r7
 8000626:	ea46 0303 	orr.w	r3, r6, r3
 800062a:	d00d      	beq.n	8000648 <TIM_OC1Init+0x64>
 800062c:	f44f 6480 	mov.w	r4, #1024	; 0x400
 8000630:	f2c4 0401 	movt	r4, #16385	; 0x4001
 8000634:	42a0      	cmp	r0, r4
 8000636:	d007      	beq.n	8000648 <TIM_OC1Init+0x64>
 8000638:	6889      	ldr	r1, [r1, #8]
 800063a:	8085      	strh	r5, [r0, #4]
 800063c:	8302      	strh	r2, [r0, #24]
 800063e:	6341      	str	r1, [r0, #52]	; 0x34
 8000640:	8403      	strh	r3, [r0, #32]
 8000642:	e8bd 01f0 	ldmia.w	sp!, {r4, r5, r6, r7, r8}
 8000646:	4770      	bx	lr
 8000648:	f64f 74f7 	movw	r4, #65527	; 0xfff7
 800064c:	f8b1 c00e 	ldrh.w	ip, [r1, #14]
 8000650:	f8b1 8012 	ldrh.w	r8, [r1, #18]
 8000654:	8a0f      	ldrh	r7, [r1, #16]
 8000656:	888e      	ldrh	r6, [r1, #4]
 8000658:	401c      	ands	r4, r3
 800065a:	ea44 0c0c 	orr.w	ip, r4, ip
 800065e:	f64f 73fb 	movw	r3, #65531	; 0xfffb
 8000662:	f64f 44ff 	movw	r4, #64767	; 0xfcff
 8000666:	ea48 0707 	orr.w	r7, r8, r7
 800066a:	402c      	ands	r4, r5
 800066c:	ea0c 0303 	and.w	r3, ip, r3
 8000670:	b2bd      	uxth	r5, r7
 8000672:	4333      	orrs	r3, r6
 8000674:	4325      	orrs	r5, r4
 8000676:	e7df      	b.n	8000638 <TIM_OC1Init+0x54>

08000678 <TIM_OC2Init>:
 8000678:	e92d 03f0 	stmdb	sp!, {r4, r5, r6, r7, r8, r9}
 800067c:	8c04      	ldrh	r4, [r0, #32]
 800067e:	898d      	ldrh	r5, [r1, #12]
 8000680:	880f      	ldrh	r7, [r1, #0]
 8000682:	884e      	ldrh	r6, [r1, #2]
 8000684:	f024 0210 	bic.w	r2, r4, #16
 8000688:	0413      	lsls	r3, r2, #16
 800068a:	0c1c      	lsrs	r4, r3, #16
 800068c:	8404      	strh	r4, [r0, #32]
 800068e:	8c02      	ldrh	r2, [r0, #32]
 8000690:	8884      	ldrh	r4, [r0, #4]
 8000692:	8b03      	ldrh	r3, [r0, #24]
 8000694:	f022 0220 	bic.w	r2, r2, #32
 8000698:	0412      	lsls	r2, r2, #16
 800069a:	0c12      	lsrs	r2, r2, #16
 800069c:	f423 43e6 	bic.w	r3, r3, #29440	; 0x7300
 80006a0:	041b      	lsls	r3, r3, #16
 80006a2:	ea42 1205 	orr.w	r2, r2, r5, lsl #4
 80006a6:	2500      	movs	r5, #0
 80006a8:	0c1b      	lsrs	r3, r3, #16
 80006aa:	f2c4 0501 	movt	r5, #16385	; 0x4001
 80006ae:	ea43 2307 	orr.w	r3, r3, r7, lsl #8
 80006b2:	ea42 1206 	orr.w	r2, r2, r6, lsl #4
 80006b6:	42a8      	cmp	r0, r5
 80006b8:	b2a4      	uxth	r4, r4
 80006ba:	b29b      	uxth	r3, r3
 80006bc:	b292      	uxth	r2, r2
 80006be:	d00d      	beq.n	80006dc <TIM_OC2Init+0x64>
 80006c0:	f44f 6580 	mov.w	r5, #1024	; 0x400
 80006c4:	f2c4 0501 	movt	r5, #16385	; 0x4001
 80006c8:	42a8      	cmp	r0, r5
 80006ca:	d007      	beq.n	80006dc <TIM_OC2Init+0x64>
 80006cc:	6889      	ldr	r1, [r1, #8]
 80006ce:	8084      	strh	r4, [r0, #4]
 80006d0:	8303      	strh	r3, [r0, #24]
 80006d2:	6381      	str	r1, [r0, #56]	; 0x38
 80006d4:	8402      	strh	r2, [r0, #32]
 80006d6:	e8bd 03f0 	ldmia.w	sp!, {r4, r5, r6, r7, r8, r9}
 80006da:	4770      	bx	lr
 80006dc:	f64f 767f 	movw	r6, #65407	; 0xff7f
 80006e0:	f8b1 900e 	ldrh.w	r9, [r1, #14]
 80006e4:	f8b1 8010 	ldrh.w	r8, [r1, #16]
 80006e8:	f8b1 c004 	ldrh.w	ip, [r1, #4]
 80006ec:	8a4f      	ldrh	r7, [r1, #18]
 80006ee:	4016      	ands	r6, r2
 80006f0:	f24f 35ff 	movw	r5, #62463	; 0xf3ff
 80006f4:	4025      	ands	r5, r4
 80006f6:	ea46 1609 	orr.w	r6, r6, r9, lsl #4
 80006fa:	f64f 72bf 	movw	r2, #65471	; 0xffbf
 80006fe:	4032      	ands	r2, r6
 8000700:	ea45 0488 	orr.w	r4, r5, r8, lsl #2
 8000704:	ea42 120c 	orr.w	r2, r2, ip, lsl #4
 8000708:	ea44 0487 	orr.w	r4, r4, r7, lsl #2
 800070c:	b292      	uxth	r2, r2
 800070e:	b2a4      	uxth	r4, r4
 8000710:	e7dc      	b.n	80006cc <TIM_OC2Init+0x54>
 8000712:	bf00      	nop

08000714 <TIM_OC3Init>:
 8000714:	e92d 03f0 	stmdb	sp!, {r4, r5, r6, r7, r8, r9}
 8000718:	8c04      	ldrh	r4, [r0, #32]
 800071a:	898d      	ldrh	r5, [r1, #12]
 800071c:	884f      	ldrh	r7, [r1, #2]
 800071e:	880e      	ldrh	r6, [r1, #0]
 8000720:	f424 7280 	bic.w	r2, r4, #256	; 0x100
 8000724:	0413      	lsls	r3, r2, #16
 8000726:	0c1c      	lsrs	r4, r3, #16
 8000728:	8404      	strh	r4, [r0, #32]
 800072a:	8c02      	ldrh	r2, [r0, #32]
 800072c:	8884      	ldrh	r4, [r0, #4]
 800072e:	8b83      	ldrh	r3, [r0, #28]
 8000730:	f422 7200 	bic.w	r2, r2, #512	; 0x200
 8000734:	0412      	lsls	r2, r2, #16
 8000736:	0c12      	lsrs	r2, r2, #16
 8000738:	ea42 2205 	orr.w	r2, r2, r5, lsl #8
 800073c:	f023 0373 	bic.w	r3, r3, #115	; 0x73
 8000740:	2500      	movs	r5, #0
 8000742:	041b      	lsls	r3, r3, #16
 8000744:	f2c4 0501 	movt	r5, #16385	; 0x4001
 8000748:	0c1b      	lsrs	r3, r3, #16
 800074a:	ea42 2207 	orr.w	r2, r2, r7, lsl #8
 800074e:	42a8      	cmp	r0, r5
 8000750:	b2a4      	uxth	r4, r4
 8000752:	ea43 0306 	orr.w	r3, r3, r6
 8000756:	b292      	uxth	r2, r2
 8000758:	d00d      	beq.n	8000776 <TIM_OC3Init+0x62>
 800075a:	f44f 6580 	mov.w	r5, #1024	; 0x400
 800075e:	f2c4 0501 	movt	r5, #16385	; 0x4001
 8000762:	42a8      	cmp	r0, r5
 8000764:	d007      	beq.n	8000776 <TIM_OC3Init+0x62>
 8000766:	6889      	ldr	r1, [r1, #8]
 8000768:	8084      	strh	r4, [r0, #4]
 800076a:	8383      	strh	r3, [r0, #28]
 800076c:	63c1      	str	r1, [r0, #60]	; 0x3c
 800076e:	8402      	strh	r2, [r0, #32]
 8000770:	e8bd 03f0 	ldmia.w	sp!, {r4, r5, r6, r7, r8, r9}
 8000774:	4770      	bx	lr
 8000776:	f24f 76ff 	movw	r6, #63487	; 0xf7ff
 800077a:	f8b1 900e 	ldrh.w	r9, [r1, #14]
 800077e:	f8b1 8010 	ldrh.w	r8, [r1, #16]
 8000782:	f8b1 c004 	ldrh.w	ip, [r1, #4]
 8000786:	8a4f      	ldrh	r7, [r1, #18]
 8000788:	4016      	ands	r6, r2
 800078a:	f64c 75ff 	movw	r5, #53247	; 0xcfff
 800078e:	4025      	ands	r5, r4
 8000790:	ea46 2609 	orr.w	r6, r6, r9, lsl #8
 8000794:	f64f 32ff 	movw	r2, #64511	; 0xfbff
 8000798:	4032      	ands	r2, r6
 800079a:	ea45 1408 	orr.w	r4, r5, r8, lsl #4
 800079e:	ea42 220c 	orr.w	r2, r2, ip, lsl #8
 80007a2:	ea44 1407 	orr.w	r4, r4, r7, lsl #4
 80007a6:	b292      	uxth	r2, r2
 80007a8:	b2a4      	uxth	r4, r4
 80007aa:	e7dc      	b.n	8000766 <TIM_OC3Init+0x52>

080007ac <TIM_OC4Init>:
 80007ac:	b4f0      	push	{r4, r5, r6, r7}
 80007ae:	8c04      	ldrh	r4, [r0, #32]
 80007b0:	f8b1 c00c 	ldrh.w	ip, [r1, #12]
 80007b4:	880f      	ldrh	r7, [r1, #0]
 80007b6:	884e      	ldrh	r6, [r1, #2]
 80007b8:	f424 5280 	bic.w	r2, r4, #4096	; 0x1000
 80007bc:	0413      	lsls	r3, r2, #16
 80007be:	0c1d      	lsrs	r5, r3, #16
 80007c0:	8405      	strh	r5, [r0, #32]
 80007c2:	8c04      	ldrh	r4, [r0, #32]
 80007c4:	8885      	ldrh	r5, [r0, #4]
 80007c6:	8b83      	ldrh	r3, [r0, #28]
 80007c8:	f424 5200 	bic.w	r2, r4, #8192	; 0x2000
 80007cc:	0412      	lsls	r2, r2, #16
 80007ce:	f423 44e6 	bic.w	r4, r3, #29440	; 0x7300
 80007d2:	0423      	lsls	r3, r4, #16
 80007d4:	0c14      	lsrs	r4, r2, #16
 80007d6:	ea44 320c 	orr.w	r2, r4, ip, lsl #12
 80007da:	2400      	movs	r4, #0
 80007dc:	0c1b      	lsrs	r3, r3, #16
 80007de:	f2c4 0401 	movt	r4, #16385	; 0x4001
 80007e2:	ea43 2307 	orr.w	r3, r3, r7, lsl #8
 80007e6:	ea42 3206 	orr.w	r2, r2, r6, lsl #12
 80007ea:	42a0      	cmp	r0, r4
 80007ec:	b2ad      	uxth	r5, r5
 80007ee:	b29b      	uxth	r3, r3
 80007f0:	b292      	uxth	r2, r2
 80007f2:	d00c      	beq.n	800080e <TIM_OC4Init+0x62>
 80007f4:	f44f 6480 	mov.w	r4, #1024	; 0x400
 80007f8:	f2c4 0401 	movt	r4, #16385	; 0x4001
 80007fc:	42a0      	cmp	r0, r4
 80007fe:	d006      	beq.n	800080e <TIM_OC4Init+0x62>
 8000800:	6889      	ldr	r1, [r1, #8]
 8000802:	8085      	strh	r5, [r0, #4]
 8000804:	8383      	strh	r3, [r0, #28]
 8000806:	6401      	str	r1, [r0, #64]	; 0x40
 8000808:	8402      	strh	r2, [r0, #32]
 800080a:	bcf0      	pop	{r4, r5, r6, r7}
 800080c:	4770      	bx	lr
 800080e:	f64b 74ff 	movw	r4, #49151	; 0xbfff
 8000812:	8a0e      	ldrh	r6, [r1, #16]
 8000814:	402c      	ands	r4, r5
 8000816:	ea44 1586 	orr.w	r5, r4, r6, lsl #6
 800081a:	b2ad      	uxth	r5, r5
 800081c:	e7f0      	b.n	8000800 <TIM_OC4Init+0x54>
 800081e:	bf00      	nop

08000820 <TIM_OCStructInit>:
 8000820:	2300      	movs	r3, #0
 8000822:	8003      	strh	r3, [r0, #0]
 8000824:	8043      	strh	r3, [r0, #2]
 8000826:	8083      	strh	r3, [r0, #4]
 8000828:	6083      	str	r3, [r0, #8]
 800082a:	8183      	strh	r3, [r0, #12]
 800082c:	81c3      	strh	r3, [r0, #14]
 800082e:	8203      	strh	r3, [r0, #16]
 8000830:	8243      	strh	r3, [r0, #18]
 8000832:	4770      	bx	lr

08000834 <TIM_SelectOCxM>:
 8000834:	8c03      	ldrh	r3, [r0, #32]
 8000836:	b410      	push	{r4}
 8000838:	2401      	movs	r4, #1
 800083a:	b29b      	uxth	r3, r3
 800083c:	fa04 f401 	lsl.w	r4, r4, r1
 8000840:	ea23 0404 	bic.w	r4, r3, r4
 8000844:	8404      	strh	r4, [r0, #32]
 8000846:	f100 0318 	add.w	r3, r0, #24
 800084a:	b179      	cbz	r1, 800086c <TIM_SelectOCxM+0x38>
 800084c:	2908      	cmp	r1, #8
 800084e:	d00d      	beq.n	800086c <TIM_SelectOCxM+0x38>
 8000850:	3904      	subs	r1, #4
 8000852:	f3c1 014e 	ubfx	r1, r1, #1, #15
 8000856:	f648 70ff 	movw	r0, #36863	; 0x8fff
 800085a:	58cc      	ldr	r4, [r1, r3]
 800085c:	4020      	ands	r0, r4
 800085e:	50c8      	str	r0, [r1, r3]
 8000860:	0212      	lsls	r2, r2, #8
 8000862:	58c8      	ldr	r0, [r1, r3]
 8000864:	b292      	uxth	r2, r2
 8000866:	4310      	orrs	r0, r2
 8000868:	50c8      	str	r0, [r1, r3]
 800086a:	e008      	b.n	800087e <TIM_SelectOCxM+0x4a>
 800086c:	0849      	lsrs	r1, r1, #1
 800086e:	f64f 708f 	movw	r0, #65423	; 0xff8f
 8000872:	58cc      	ldr	r4, [r1, r3]
 8000874:	4020      	ands	r0, r4
 8000876:	50c8      	str	r0, [r1, r3]
 8000878:	58c8      	ldr	r0, [r1, r3]
 800087a:	4302      	orrs	r2, r0
 800087c:	50ca      	str	r2, [r1, r3]
 800087e:	bc10      	pop	{r4}
 8000880:	4770      	bx	lr
 8000882:	bf00      	nop

08000884 <TIM_SetCompare1>:
 8000884:	6341      	str	r1, [r0, #52]	; 0x34
 8000886:	4770      	bx	lr

08000888 <TIM_SetCompare2>:
 8000888:	6381      	str	r1, [r0, #56]	; 0x38
 800088a:	4770      	bx	lr

0800088c <TIM_SetCompare3>:
 800088c:	63c1      	str	r1, [r0, #60]	; 0x3c
 800088e:	4770      	bx	lr

08000890 <TIM_SetCompare4>:
 8000890:	6401      	str	r1, [r0, #64]	; 0x40
 8000892:	4770      	bx	lr

08000894 <TIM_ForcedOC1Config>:
 8000894:	8b03      	ldrh	r3, [r0, #24]
 8000896:	f023 0270 	bic.w	r2, r3, #112	; 0x70
 800089a:	0413      	lsls	r3, r2, #16
 800089c:	0c1a      	lsrs	r2, r3, #16
 800089e:	4311      	orrs	r1, r2
 80008a0:	8301      	strh	r1, [r0, #24]
 80008a2:	4770      	bx	lr

080008a4 <TIM_ForcedOC2Config>:
 80008a4:	8b03      	ldrh	r3, [r0, #24]
 80008a6:	f423 42e0 	bic.w	r2, r3, #28672	; 0x7000
 80008aa:	0413      	lsls	r3, r2, #16
 80008ac:	0c1a      	lsrs	r2, r3, #16
 80008ae:	ea42 2101 	orr.w	r1, r2, r1, lsl #8
 80008b2:	b28b      	uxth	r3, r1
 80008b4:	8303      	strh	r3, [r0, #24]
 80008b6:	4770      	bx	lr

080008b8 <TIM_ForcedOC3Config>:
 80008b8:	8b83      	ldrh	r3, [r0, #28]
 80008ba:	f023 0270 	bic.w	r2, r3, #112	; 0x70
 80008be:	0413      	lsls	r3, r2, #16
 80008c0:	0c1a      	lsrs	r2, r3, #16
 80008c2:	4311      	orrs	r1, r2
 80008c4:	8381      	strh	r1, [r0, #28]
 80008c6:	4770      	bx	lr

080008c8 <TIM_ForcedOC4Config>:
 80008c8:	8b83      	ldrh	r3, [r0, #28]
 80008ca:	f423 42e0 	bic.w	r2, r3, #28672	; 0x7000
 80008ce:	0413      	lsls	r3, r2, #16
 80008d0:	0c1a      	lsrs	r2, r3, #16
 80008d2:	ea42 2101 	orr.w	r1, r2, r1, lsl #8
 80008d6:	b28b      	uxth	r3, r1
 80008d8:	8383      	strh	r3, [r0, #28]
 80008da:	4770      	bx	lr

080008dc <TIM_OC1PreloadConfig>:
 80008dc:	8b03      	ldrh	r3, [r0, #24]
 80008de:	f023 0208 	bic.w	r2, r3, #8
 80008e2:	0413      	lsls	r3, r2, #16
 80008e4:	0c1a      	lsrs	r2, r3, #16
 80008e6:	4311      	orrs	r1, r2
 80008e8:	8301      	strh	r1, [r0, #24]
 80008ea:	4770      	bx	lr

080008ec <TIM_OC2PreloadConfig>:
 80008ec:	8b03      	ldrh	r3, [r0, #24]
 80008ee:	f423 6200 	bic.w	r2, r3, #2048	; 0x800
 80008f2:	0413      	lsls	r3, r2, #16
 80008f4:	0c1a      	lsrs	r2, r3, #16
 80008f6:	ea42 2101 	orr.w	r1, r2, r1, lsl #8
 80008fa:	b28b      	uxth	r3, r1
 80008fc:	8303      	strh	r3, [r0, #24]
 80008fe:	4770      	bx	lr

08000900 <TIM_OC3PreloadConfig>:
 8000900:	8b83      	ldrh	r3, [r0, #28]
 8000902:	f023 0208 	bic.w	r2, r3, #8
 8000906:	0413      	lsls	r3, r2, #16
 8000908:	0c1a      	lsrs	r2, r3, #16
 800090a:	4311      	orrs	r1, r2
 800090c:	8381      	strh	r1, [r0, #28]
 800090e:	4770      	bx	lr

08000910 <TIM_OC4PreloadConfig>:
 8000910:	8b83      	ldrh	r3, [r0, #28]
 8000912:	f423 6200 	bic.w	r2, r3, #2048	; 0x800
 8000916:	0413      	lsls	r3, r2, #16
 8000918:	0c1a      	lsrs	r2, r3, #16
 800091a:	ea42 2101 	orr.w	r1, r2, r1, lsl #8
 800091e:	b28b      	uxth	r3, r1
 8000920:	8383      	strh	r3, [r0, #28]
 8000922:	4770      	bx	lr

08000924 <TIM_OC1FastConfig>:
 8000924:	8b03      	ldrh	r3, [r0, #24]
 8000926:	f023 0204 	bic.w	r2, r3, #4
 800092a:	0413      	lsls	r3, r2, #16
 800092c:	0c1a      	lsrs	r2, r3, #16
 800092e:	4311      	orrs	r1, r2
 8000930:	8301      	strh	r1, [r0, #24]
 8000932:	4770      	bx	lr

08000934 <TIM_OC2FastConfig>:
 8000934:	8b03      	ldrh	r3, [r0, #24]
 8000936:	f423 6280 	bic.w	r2, r3, #1024	; 0x400
 800093a:	0413      	lsls	r3, r2, #16
 800093c:	0c1a      	lsrs	r2, r3, #16
 800093e:	ea42 2101 	orr.w	r1, r2, r1, lsl #8
 8000942:	b28b      	uxth	r3, r1
 8000944:	8303      	strh	r3, [r0, #24]
 8000946:	4770      	bx	lr

08000948 <TIM_OC3FastConfig>:
 8000948:	8b83      	ldrh	r3, [r0, #28]
 800094a:	f023 0204 	bic.w	r2, r3, #4
 800094e:	0413      	lsls	r3, r2, #16
 8000950:	0c1a      	lsrs	r2, r3, #16
 8000952:	4311      	orrs	r1, r2
 8000954:	8381      	strh	r1, [r0, #28]
 8000956:	4770      	bx	lr

08000958 <TIM_OC4FastConfig>:
 8000958:	8b83      	ldrh	r3, [r0, #28]
 800095a:	f423 6280 	bic.w	r2, r3, #1024	; 0x400
 800095e:	0413      	lsls	r3, r2, #16
 8000960:	0c1a      	lsrs	r2, r3, #16
 8000962:	ea42 2101 	orr.w	r1, r2, r1, lsl #8
 8000966:	b28b      	uxth	r3, r1
 8000968:	8383      	strh	r3, [r0, #28]
 800096a:	4770      	bx	lr

0800096c <TIM_ClearOC1Ref>:
 800096c:	8b03      	ldrh	r3, [r0, #24]
 800096e:	f023 0280 	bic.w	r2, r3, #128	; 0x80
 8000972:	0413      	lsls	r3, r2, #16
 8000974:	0c1a      	lsrs	r2, r3, #16
 8000976:	4311      	orrs	r1, r2
 8000978:	8301      	strh	r1, [r0, #24]
 800097a:	4770      	bx	lr

0800097c <TIM_ClearOC2Ref>:
 800097c:	8b03      	ldrh	r3, [r0, #24]
 800097e:	045a      	lsls	r2, r3, #17
 8000980:	0c53      	lsrs	r3, r2, #17
 8000982:	ea43 2101 	orr.w	r1, r3, r1, lsl #8
 8000986:	b28a      	uxth	r2, r1
 8000988:	8302      	strh	r2, [r0, #24]
 800098a:	4770      	bx	lr

0800098c <TIM_ClearOC3Ref>:
 800098c:	8b83      	ldrh	r3, [r0, #28]
 800098e:	f023 0280 	bic.w	r2, r3, #128	; 0x80
 8000992:	0413      	lsls	r3, r2, #16
 8000994:	0c1a      	lsrs	r2, r3, #16
 8000996:	4311      	orrs	r1, r2
 8000998:	8381      	strh	r1, [r0, #28]
 800099a:	4770      	bx	lr

0800099c <TIM_ClearOC4Ref>:
 800099c:	8b83      	ldrh	r3, [r0, #28]
 800099e:	045a      	lsls	r2, r3, #17
 80009a0:	0c53      	lsrs	r3, r2, #17
 80009a2:	ea43 2101 	orr.w	r1, r3, r1, lsl #8
 80009a6:	b28a      	uxth	r2, r1
 80009a8:	8382      	strh	r2, [r0, #28]
 80009aa:	4770      	bx	lr

080009ac <TIM_OC1PolarityConfig>:
 80009ac:	8c03      	ldrh	r3, [r0, #32]
 80009ae:	f023 0202 	bic.w	r2, r3, #2
 80009b2:	0413      	lsls	r3, r2, #16
 80009b4:	0c1a      	lsrs	r2, r3, #16
 80009b6:	4311      	orrs	r1, r2
 80009b8:	8401      	strh	r1, [r0, #32]
 80009ba:	4770      	bx	lr

080009bc <TIM_OC1NPolarityConfig>:
 80009bc:	8c03      	ldrh	r3, [r0, #32]
 80009be:	f023 0208 	bic.w	r2, r3, #8
 80009c2:	0413      	lsls	r3, r2, #16
 80009c4:	0c1a      	lsrs	r2, r3, #16
 80009c6:	4311      	orrs	r1, r2
 80009c8:	8401      	strh	r1, [r0, #32]
 80009ca:	4770      	bx	lr

080009cc <TIM_OC2PolarityConfig>:
 80009cc:	8c03      	ldrh	r3, [r0, #32]
 80009ce:	f023 0220 	bic.w	r2, r3, #32
 80009d2:	0413      	lsls	r3, r2, #16
 80009d4:	0c1a      	lsrs	r2, r3, #16
 80009d6:	ea42 1101 	orr.w	r1, r2, r1, lsl #4
 80009da:	b28b      	uxth	r3, r1
 80009dc:	8403      	strh	r3, [r0, #32]
 80009de:	4770      	bx	lr

080009e0 <TIM_OC2NPolarityConfig>:
 80009e0:	8c03      	ldrh	r3, [r0, #32]
 80009e2:	f023 0280 	bic.w	r2, r3, #128	; 0x80
 80009e6:	0413      	lsls	r3, r2, #16
 80009e8:	0c1a      	lsrs	r2, r3, #16
 80009ea:	ea42 1101 	orr.w	r1, r2, r1, lsl #4
 80009ee:	b28b      	uxth	r3, r1
 80009f0:	8403      	strh	r3, [r0, #32]
 80009f2:	4770      	bx	lr

080009f4 <TIM_OC3PolarityConfig>:
 80009f4:	8c03      	ldrh	r3, [r0, #32]
 80009f6:	f423 7200 	bic.w	r2, r3, #512	; 0x200
 80009fa:	0413      	lsls	r3, r2, #16
 80009fc:	0c1a      	lsrs	r2, r3, #16
 80009fe:	ea42 2101 	orr.w	r1, r2, r1, lsl #8
 8000a02:	b28b      	uxth	r3, r1
 8000a04:	8403      	strh	r3, [r0, #32]
 8000a06:	4770      	bx	lr

08000a08 <TIM_OC3NPolarityConfig>:
 8000a08:	8c03      	ldrh	r3, [r0, #32]
 8000a0a:	f423 6200 	bic.w	r2, r3, #2048	; 0x800
 8000a0e:	0413      	lsls	r3, r2, #16
 8000a10:	0c1a      	lsrs	r2, r3, #16
 8000a12:	ea42 2101 	orr.w	r1, r2, r1, lsl #8
 8000a16:	b28b      	uxth	r3, r1
 8000a18:	8403      	strh	r3, [r0, #32]
 8000a1a:	4770      	bx	lr

08000a1c <TIM_OC4PolarityConfig>:
 8000a1c:	8c03      	ldrh	r3, [r0, #32]
 8000a1e:	f423 5200 	bic.w	r2, r3, #8192	; 0x2000
 8000a22:	0413      	lsls	r3, r2, #16
 8000a24:	0c1a      	lsrs	r2, r3, #16
 8000a26:	ea42 3101 	orr.w	r1, r2, r1, lsl #12
 8000a2a:	b28b      	uxth	r3, r1
 8000a2c:	8403      	strh	r3, [r0, #32]
 8000a2e:	4770      	bx	lr

08000a30 <TIM_CCxCmd>:
 8000a30:	b410      	push	{r4}
 8000a32:	8c04      	ldrh	r4, [r0, #32]
 8000a34:	2301      	movs	r3, #1
 8000a36:	fa03 f301 	lsl.w	r3, r3, r1
 8000a3a:	b2a4      	uxth	r4, r4
 8000a3c:	ea24 0303 	bic.w	r3, r4, r3
 8000a40:	8403      	strh	r3, [r0, #32]
 8000a42:	8c03      	ldrh	r3, [r0, #32]
 8000a44:	fa02 f201 	lsl.w	r2, r2, r1
 8000a48:	ea42 0103 	orr.w	r1, r2, r3
 8000a4c:	b28a      	uxth	r2, r1
 8000a4e:	8402      	strh	r2, [r0, #32]
 8000a50:	bc10      	pop	{r4}
 8000a52:	4770      	bx	lr

08000a54 <TIM_CCxNCmd>:
 8000a54:	b410      	push	{r4}
 8000a56:	8c04      	ldrh	r4, [r0, #32]
 8000a58:	2304      	movs	r3, #4
 8000a5a:	fa03 f301 	lsl.w	r3, r3, r1
 8000a5e:	b2a4      	uxth	r4, r4
 8000a60:	ea24 0303 	bic.w	r3, r4, r3
 8000a64:	8403      	strh	r3, [r0, #32]
 8000a66:	8c03      	ldrh	r3, [r0, #32]
 8000a68:	fa02 f201 	lsl.w	r2, r2, r1
 8000a6c:	ea42 0103 	orr.w	r1, r2, r3
 8000a70:	b28a      	uxth	r2, r1
 8000a72:	8402      	strh	r2, [r0, #32]
 8000a74:	bc10      	pop	{r4}
 8000a76:	4770      	bx	lr

08000a78 <TIM_ICInit>:
 8000a78:	880b      	ldrh	r3, [r1, #0]
 8000a7a:	b4f0      	push	{r4, r5, r6, r7}
 8000a7c:	2b00      	cmp	r3, #0
 8000a7e:	d032      	beq.n	8000ae6 <TIM_ICInit+0x6e>
 8000a80:	2b04      	cmp	r3, #4
 8000a82:	d058      	beq.n	8000b36 <TIM_ICInit+0xbe>
 8000a84:	2b08      	cmp	r3, #8
 8000a86:	8c02      	ldrh	r2, [r0, #32]
 8000a88:	884e      	ldrh	r6, [r1, #2]
 8000a8a:	f000 8082 	beq.w	8000b92 <TIM_ICInit+0x11a>
 8000a8e:	888f      	ldrh	r7, [r1, #4]
 8000a90:	890d      	ldrh	r5, [r1, #8]
 8000a92:	88cc      	ldrh	r4, [r1, #6]
 8000a94:	f422 5180 	bic.w	r1, r2, #4096	; 0x1000
 8000a98:	040b      	lsls	r3, r1, #16
 8000a9a:	0c1a      	lsrs	r2, r3, #16
 8000a9c:	8402      	strh	r2, [r0, #32]
 8000a9e:	8b81      	ldrh	r1, [r0, #28]
 8000aa0:	8c03      	ldrh	r3, [r0, #32]
 8000aa2:	f421 7240 	bic.w	r2, r1, #768	; 0x300
 8000aa6:	f423 5100 	bic.w	r1, r3, #8192	; 0x2000
 8000aaa:	0512      	lsls	r2, r2, #20
 8000aac:	044b      	lsls	r3, r1, #17
 8000aae:	0c5b      	lsrs	r3, r3, #17
 8000ab0:	0d11      	lsrs	r1, r2, #20
 8000ab2:	ea41 2207 	orr.w	r2, r1, r7, lsl #8
 8000ab6:	ea43 3106 	orr.w	r1, r3, r6, lsl #12
 8000aba:	b28b      	uxth	r3, r1
 8000abc:	ea42 3205 	orr.w	r2, r2, r5, lsl #12
 8000ac0:	b291      	uxth	r1, r2
 8000ac2:	f443 5280 	orr.w	r2, r3, #4096	; 0x1000
 8000ac6:	8381      	strh	r1, [r0, #28]
 8000ac8:	8402      	strh	r2, [r0, #32]
 8000aca:	8b83      	ldrh	r3, [r0, #28]
 8000acc:	f423 6140 	bic.w	r1, r3, #3072	; 0xc00
 8000ad0:	040a      	lsls	r2, r1, #16
 8000ad2:	0c13      	lsrs	r3, r2, #16
 8000ad4:	8383      	strh	r3, [r0, #28]
 8000ad6:	8b81      	ldrh	r1, [r0, #28]
 8000ad8:	b28a      	uxth	r2, r1
 8000ada:	ea42 2304 	orr.w	r3, r2, r4, lsl #8
 8000ade:	b299      	uxth	r1, r3
 8000ae0:	8381      	strh	r1, [r0, #28]
 8000ae2:	bcf0      	pop	{r4, r5, r6, r7}
 8000ae4:	4770      	bx	lr
 8000ae6:	8c03      	ldrh	r3, [r0, #32]
 8000ae8:	884e      	ldrh	r6, [r1, #2]
 8000aea:	888d      	ldrh	r5, [r1, #4]
 8000aec:	890f      	ldrh	r7, [r1, #8]
 8000aee:	88cc      	ldrh	r4, [r1, #6]
 8000af0:	f023 0101 	bic.w	r1, r3, #1
 8000af4:	040a      	lsls	r2, r1, #16
 8000af6:	0c13      	lsrs	r3, r2, #16
 8000af8:	8403      	strh	r3, [r0, #32]
 8000afa:	8b01      	ldrh	r1, [r0, #24]
 8000afc:	8c03      	ldrh	r3, [r0, #32]
 8000afe:	f021 02f3 	bic.w	r2, r1, #243	; 0xf3
 8000b02:	0411      	lsls	r1, r2, #16
 8000b04:	0c0a      	lsrs	r2, r1, #16
 8000b06:	f023 030a 	bic.w	r3, r3, #10
 8000b0a:	ea42 1107 	orr.w	r1, r2, r7, lsl #4
 8000b0e:	041b      	lsls	r3, r3, #16
 8000b10:	b28a      	uxth	r2, r1
 8000b12:	0c1b      	lsrs	r3, r3, #16
 8000b14:	f046 0101 	orr.w	r1, r6, #1
 8000b18:	430b      	orrs	r3, r1
 8000b1a:	432a      	orrs	r2, r5
 8000b1c:	8302      	strh	r2, [r0, #24]
 8000b1e:	8403      	strh	r3, [r0, #32]
 8000b20:	8b02      	ldrh	r2, [r0, #24]
 8000b22:	f022 030c 	bic.w	r3, r2, #12
 8000b26:	0419      	lsls	r1, r3, #16
 8000b28:	0c0a      	lsrs	r2, r1, #16
 8000b2a:	8302      	strh	r2, [r0, #24]
 8000b2c:	8b03      	ldrh	r3, [r0, #24]
 8000b2e:	b299      	uxth	r1, r3
 8000b30:	4321      	orrs	r1, r4
 8000b32:	8301      	strh	r1, [r0, #24]
 8000b34:	e7d5      	b.n	8000ae2 <TIM_ICInit+0x6a>
 8000b36:	8c02      	ldrh	r2, [r0, #32]
 8000b38:	884e      	ldrh	r6, [r1, #2]
 8000b3a:	888d      	ldrh	r5, [r1, #4]
 8000b3c:	890f      	ldrh	r7, [r1, #8]
 8000b3e:	88cc      	ldrh	r4, [r1, #6]
 8000b40:	f022 0110 	bic.w	r1, r2, #16
 8000b44:	040b      	lsls	r3, r1, #16
 8000b46:	0c1a      	lsrs	r2, r3, #16
 8000b48:	8402      	strh	r2, [r0, #32]
 8000b4a:	8b01      	ldrh	r1, [r0, #24]
 8000b4c:	8c03      	ldrh	r3, [r0, #32]
 8000b4e:	f421 7240 	bic.w	r2, r1, #768	; 0x300
 8000b52:	0511      	lsls	r1, r2, #20
 8000b54:	f023 03a0 	bic.w	r3, r3, #160	; 0xa0
 8000b58:	0d0a      	lsrs	r2, r1, #20
 8000b5a:	0419      	lsls	r1, r3, #16
 8000b5c:	ea42 3207 	orr.w	r2, r2, r7, lsl #12
 8000b60:	0c0b      	lsrs	r3, r1, #16
 8000b62:	ea43 1306 	orr.w	r3, r3, r6, lsl #4
 8000b66:	b291      	uxth	r1, r2
 8000b68:	ea41 2205 	orr.w	r2, r1, r5, lsl #8
 8000b6c:	b299      	uxth	r1, r3
 8000b6e:	f041 0310 	orr.w	r3, r1, #16
 8000b72:	b292      	uxth	r2, r2
 8000b74:	8302      	strh	r2, [r0, #24]
 8000b76:	8403      	strh	r3, [r0, #32]
 8000b78:	8b01      	ldrh	r1, [r0, #24]
 8000b7a:	f421 6240 	bic.w	r2, r1, #3072	; 0xc00
 8000b7e:	0413      	lsls	r3, r2, #16
 8000b80:	0c19      	lsrs	r1, r3, #16
 8000b82:	8301      	strh	r1, [r0, #24]
 8000b84:	8b02      	ldrh	r2, [r0, #24]
 8000b86:	b293      	uxth	r3, r2
 8000b88:	ea43 2104 	orr.w	r1, r3, r4, lsl #8
 8000b8c:	b28a      	uxth	r2, r1
 8000b8e:	8302      	strh	r2, [r0, #24]
 8000b90:	e7a7      	b.n	8000ae2 <TIM_ICInit+0x6a>
 8000b92:	f422 7280 	bic.w	r2, r2, #256	; 0x100
 8000b96:	0413      	lsls	r3, r2, #16
 8000b98:	888d      	ldrh	r5, [r1, #4]
 8000b9a:	890f      	ldrh	r7, [r1, #8]
 8000b9c:	88cc      	ldrh	r4, [r1, #6]
 8000b9e:	0c19      	lsrs	r1, r3, #16
 8000ba0:	8401      	strh	r1, [r0, #32]
 8000ba2:	8b82      	ldrh	r2, [r0, #28]
 8000ba4:	8c03      	ldrh	r3, [r0, #32]
 8000ba6:	f022 01f3 	bic.w	r1, r2, #243	; 0xf3
 8000baa:	f423 6320 	bic.w	r3, r3, #2560	; 0xa00
 8000bae:	040a      	lsls	r2, r1, #16
 8000bb0:	0419      	lsls	r1, r3, #16
 8000bb2:	0c12      	lsrs	r2, r2, #16
 8000bb4:	0c0b      	lsrs	r3, r1, #16
 8000bb6:	ea43 2306 	orr.w	r3, r3, r6, lsl #8
 8000bba:	ea42 1107 	orr.w	r1, r2, r7, lsl #4
 8000bbe:	b28a      	uxth	r2, r1
 8000bc0:	b299      	uxth	r1, r3
 8000bc2:	f441 7380 	orr.w	r3, r1, #256	; 0x100
 8000bc6:	432a      	orrs	r2, r5
 8000bc8:	8382      	strh	r2, [r0, #28]
 8000bca:	8403      	strh	r3, [r0, #32]
 8000bcc:	8b82      	ldrh	r2, [r0, #28]
 8000bce:	f022 010c 	bic.w	r1, r2, #12
 8000bd2:	040b      	lsls	r3, r1, #16
 8000bd4:	0c1a      	lsrs	r2, r3, #16
 8000bd6:	8382      	strh	r2, [r0, #28]
 8000bd8:	8b81      	ldrh	r1, [r0, #28]
 8000bda:	b28b      	uxth	r3, r1
 8000bdc:	4323      	orrs	r3, r4
 8000bde:	8383      	strh	r3, [r0, #28]
 8000be0:	e77f      	b.n	8000ae2 <TIM_ICInit+0x6a>
 8000be2:	bf00      	nop

08000be4 <TIM_ICStructInit>:
 8000be4:	2300      	movs	r3, #0
 8000be6:	2201      	movs	r2, #1
 8000be8:	8003      	strh	r3, [r0, #0]
 8000bea:	8043      	strh	r3, [r0, #2]
 8000bec:	8082      	strh	r2, [r0, #4]
 8000bee:	80c3      	strh	r3, [r0, #6]
 8000bf0:	8103      	strh	r3, [r0, #8]
 8000bf2:	4770      	bx	lr

08000bf4 <TIM_PWMIConfig>:
 8000bf4:	884a      	ldrh	r2, [r1, #2]
 8000bf6:	888b      	ldrh	r3, [r1, #4]
 8000bf8:	e92d 01f0 	stmdb	sp!, {r4, r5, r6, r7, r8}
 8000bfc:	880c      	ldrh	r4, [r1, #0]
 8000bfe:	2a00      	cmp	r2, #0
 8000c00:	bf0c      	ite	eq
 8000c02:	2602      	moveq	r6, #2
 8000c04:	2600      	movne	r6, #0
 8000c06:	2b01      	cmp	r3, #1
 8000c08:	bf14      	ite	ne
 8000c0a:	f44f 7580 	movne.w	r5, #256	; 0x100
 8000c0e:	f44f 7500 	moveq.w	r5, #512	; 0x200
 8000c12:	bf14      	ite	ne
 8000c14:	f04f 0801 	movne.w	r8, #1
 8000c18:	f04f 0802 	moveq.w	r8, #2
 8000c1c:	2c00      	cmp	r4, #0
 8000c1e:	d053      	beq.n	8000cc8 <TIM_PWMIConfig+0xd4>
 8000c20:	8c04      	ldrh	r4, [r0, #32]
 8000c22:	f8b1 c008 	ldrh.w	ip, [r1, #8]
 8000c26:	88cf      	ldrh	r7, [r1, #6]
 8000c28:	f024 0110 	bic.w	r1, r4, #16
 8000c2c:	040d      	lsls	r5, r1, #16
 8000c2e:	0c2d      	lsrs	r5, r5, #16
 8000c30:	8405      	strh	r5, [r0, #32]
 8000c32:	8b04      	ldrh	r4, [r0, #24]
 8000c34:	8c01      	ldrh	r1, [r0, #32]
 8000c36:	f424 7440 	bic.w	r4, r4, #768	; 0x300
 8000c3a:	0524      	lsls	r4, r4, #20
 8000c3c:	f021 01a0 	bic.w	r1, r1, #160	; 0xa0
 8000c40:	0d24      	lsrs	r4, r4, #20
 8000c42:	0409      	lsls	r1, r1, #16
 8000c44:	0c09      	lsrs	r1, r1, #16
 8000c46:	ea44 340c 	orr.w	r4, r4, ip, lsl #12
 8000c4a:	ea41 1202 	orr.w	r2, r1, r2, lsl #4
 8000c4e:	b2a4      	uxth	r4, r4
 8000c50:	b291      	uxth	r1, r2
 8000c52:	ea44 2303 	orr.w	r3, r4, r3, lsl #8
 8000c56:	f041 0210 	orr.w	r2, r1, #16
 8000c5a:	b29b      	uxth	r3, r3
 8000c5c:	8303      	strh	r3, [r0, #24]
 8000c5e:	8402      	strh	r2, [r0, #32]
 8000c60:	8b01      	ldrh	r1, [r0, #24]
 8000c62:	f421 6340 	bic.w	r3, r1, #3072	; 0xc00
 8000c66:	041a      	lsls	r2, r3, #16
 8000c68:	0c11      	lsrs	r1, r2, #16
 8000c6a:	8301      	strh	r1, [r0, #24]
 8000c6c:	8b03      	ldrh	r3, [r0, #24]
 8000c6e:	b29a      	uxth	r2, r3
 8000c70:	ea42 2107 	orr.w	r1, r2, r7, lsl #8
 8000c74:	b28b      	uxth	r3, r1
 8000c76:	8303      	strh	r3, [r0, #24]
 8000c78:	8c02      	ldrh	r2, [r0, #32]
 8000c7a:	f022 0101 	bic.w	r1, r2, #1
 8000c7e:	040b      	lsls	r3, r1, #16
 8000c80:	0c1a      	lsrs	r2, r3, #16
 8000c82:	8402      	strh	r2, [r0, #32]
 8000c84:	8b01      	ldrh	r1, [r0, #24]
 8000c86:	8c03      	ldrh	r3, [r0, #32]
 8000c88:	f021 02f3 	bic.w	r2, r1, #243	; 0xf3
 8000c8c:	0411      	lsls	r1, r2, #16
 8000c8e:	f023 030a 	bic.w	r3, r3, #10
 8000c92:	0c0a      	lsrs	r2, r1, #16
 8000c94:	0419      	lsls	r1, r3, #16
 8000c96:	0c0b      	lsrs	r3, r1, #16
 8000c98:	ea42 120c 	orr.w	r2, r2, ip, lsl #4
 8000c9c:	b291      	uxth	r1, r2
 8000c9e:	f043 0201 	orr.w	r2, r3, #1
 8000ca2:	ea41 0808 	orr.w	r8, r1, r8
 8000ca6:	4316      	orrs	r6, r2
 8000ca8:	f8a0 8018 	strh.w	r8, [r0, #24]
 8000cac:	8406      	strh	r6, [r0, #32]
 8000cae:	8b03      	ldrh	r3, [r0, #24]
 8000cb0:	f023 010c 	bic.w	r1, r3, #12
 8000cb4:	040a      	lsls	r2, r1, #16
 8000cb6:	0c13      	lsrs	r3, r2, #16
 8000cb8:	8303      	strh	r3, [r0, #24]
 8000cba:	8b01      	ldrh	r1, [r0, #24]
 8000cbc:	b28a      	uxth	r2, r1
 8000cbe:	4317      	orrs	r7, r2
 8000cc0:	8307      	strh	r7, [r0, #24]
 8000cc2:	e8bd 01f0 	ldmia.w	sp!, {r4, r5, r6, r7, r8}
 8000cc6:	4770      	bx	lr
 8000cc8:	8c04      	ldrh	r4, [r0, #32]
 8000cca:	f8b1 c008 	ldrh.w	ip, [r1, #8]
 8000cce:	88cf      	ldrh	r7, [r1, #6]
 8000cd0:	f024 0101 	bic.w	r1, r4, #1
 8000cd4:	040c      	lsls	r4, r1, #16
 8000cd6:	0c21      	lsrs	r1, r4, #16
 8000cd8:	8401      	strh	r1, [r0, #32]
 8000cda:	8b01      	ldrh	r1, [r0, #24]
 8000cdc:	8c04      	ldrh	r4, [r0, #32]
 8000cde:	f021 01f3 	bic.w	r1, r1, #243	; 0xf3
 8000ce2:	0409      	lsls	r1, r1, #16
 8000ce4:	0c09      	lsrs	r1, r1, #16
 8000ce6:	f024 040a 	bic.w	r4, r4, #10
 8000cea:	ea41 110c 	orr.w	r1, r1, ip, lsl #4
 8000cee:	0424      	lsls	r4, r4, #16
 8000cf0:	b289      	uxth	r1, r1
 8000cf2:	f042 0201 	orr.w	r2, r2, #1
 8000cf6:	0c24      	lsrs	r4, r4, #16
 8000cf8:	430b      	orrs	r3, r1
 8000cfa:	4314      	orrs	r4, r2
 8000cfc:	8303      	strh	r3, [r0, #24]
 8000cfe:	8404      	strh	r4, [r0, #32]
 8000d00:	8b01      	ldrh	r1, [r0, #24]
 8000d02:	f021 020c 	bic.w	r2, r1, #12
 8000d06:	0413      	lsls	r3, r2, #16
 8000d08:	0c19      	lsrs	r1, r3, #16
 8000d0a:	8301      	strh	r1, [r0, #24]
 8000d0c:	8b02      	ldrh	r2, [r0, #24]
 8000d0e:	b293      	uxth	r3, r2
 8000d10:	433b      	orrs	r3, r7
 8000d12:	8303      	strh	r3, [r0, #24]
 8000d14:	8c01      	ldrh	r1, [r0, #32]
 8000d16:	f021 0210 	bic.w	r2, r1, #16
 8000d1a:	0413      	lsls	r3, r2, #16
 8000d1c:	0c19      	lsrs	r1, r3, #16
 8000d1e:	8401      	strh	r1, [r0, #32]
 8000d20:	8b02      	ldrh	r2, [r0, #24]
 8000d22:	8c03      	ldrh	r3, [r0, #32]
 8000d24:	f422 7140 	bic.w	r1, r2, #768	; 0x300
 8000d28:	050a      	lsls	r2, r1, #20
 8000d2a:	f023 03a0 	bic.w	r3, r3, #160	; 0xa0
 8000d2e:	0d11      	lsrs	r1, r2, #20
 8000d30:	041b      	lsls	r3, r3, #16
 8000d32:	ea41 320c 	orr.w	r2, r1, ip, lsl #12
 8000d36:	0c19      	lsrs	r1, r3, #16
 8000d38:	f041 0310 	orr.w	r3, r1, #16
 8000d3c:	b292      	uxth	r2, r2
 8000d3e:	4315      	orrs	r5, r2
 8000d40:	ea43 1606 	orr.w	r6, r3, r6, lsl #4
 8000d44:	8305      	strh	r5, [r0, #24]
 8000d46:	8406      	strh	r6, [r0, #32]
 8000d48:	8b01      	ldrh	r1, [r0, #24]
 8000d4a:	f421 6240 	bic.w	r2, r1, #3072	; 0xc00
 8000d4e:	0413      	lsls	r3, r2, #16
 8000d50:	0c19      	lsrs	r1, r3, #16
 8000d52:	8301      	strh	r1, [r0, #24]
 8000d54:	8b02      	ldrh	r2, [r0, #24]
 8000d56:	b293      	uxth	r3, r2
 8000d58:	ea43 2707 	orr.w	r7, r3, r7, lsl #8
 8000d5c:	b2bf      	uxth	r7, r7
 8000d5e:	8307      	strh	r7, [r0, #24]
 8000d60:	e7af      	b.n	8000cc2 <TIM_PWMIConfig+0xce>
 8000d62:	bf00      	nop

08000d64 <TIM_GetCapture1>:
 8000d64:	6b40      	ldr	r0, [r0, #52]	; 0x34
 8000d66:	4770      	bx	lr

08000d68 <TIM_GetCapture2>:
 8000d68:	6b80      	ldr	r0, [r0, #56]	; 0x38
 8000d6a:	4770      	bx	lr

08000d6c <TIM_GetCapture3>:
 8000d6c:	6bc0      	ldr	r0, [r0, #60]	; 0x3c
 8000d6e:	4770      	bx	lr

08000d70 <TIM_GetCapture4>:
 8000d70:	6c00      	ldr	r0, [r0, #64]	; 0x40
 8000d72:	4770      	bx	lr

08000d74 <TIM_SetIC1Prescaler>:
 8000d74:	8b03      	ldrh	r3, [r0, #24]
 8000d76:	f023 020c 	bic.w	r2, r3, #12
 8000d7a:	0413      	lsls	r3, r2, #16
 8000d7c:	0c1a      	lsrs	r2, r3, #16
 8000d7e:	8302      	strh	r2, [r0, #24]
 8000d80:	8b03      	ldrh	r3, [r0, #24]
 8000d82:	b29a      	uxth	r2, r3
 8000d84:	4311      	orrs	r1, r2
 8000d86:	8301      	strh	r1, [r0, #24]
 8000d88:	4770      	bx	lr
 8000d8a:	bf00      	nop

08000d8c <TIM_SetIC2Prescaler>:
 8000d8c:	8b03      	ldrh	r3, [r0, #24]
 8000d8e:	f423 6240 	bic.w	r2, r3, #3072	; 0xc00
 8000d92:	0413      	lsls	r3, r2, #16
 8000d94:	0c1a      	lsrs	r2, r3, #16
 8000d96:	8302      	strh	r2, [r0, #24]
 8000d98:	8b03      	ldrh	r3, [r0, #24]
 8000d9a:	b29a      	uxth	r2, r3
 8000d9c:	ea42 2101 	orr.w	r1, r2, r1, lsl #8
 8000da0:	b28b      	uxth	r3, r1
 8000da2:	8303      	strh	r3, [r0, #24]
 8000da4:	4770      	bx	lr
 8000da6:	bf00      	nop

08000da8 <TIM_SetIC3Prescaler>:
 8000da8:	8b83      	ldrh	r3, [r0, #28]
 8000daa:	f023 020c 	bic.w	r2, r3, #12
 8000dae:	0413      	lsls	r3, r2, #16
 8000db0:	0c1a      	lsrs	r2, r3, #16
 8000db2:	8382      	strh	r2, [r0, #28]
 8000db4:	8b83      	ldrh	r3, [r0, #28]
 8000db6:	b29a      	uxth	r2, r3
 8000db8:	4311      	orrs	r1, r2
 8000dba:	8381      	strh	r1, [r0, #28]
 8000dbc:	4770      	bx	lr
 8000dbe:	bf00      	nop

08000dc0 <TIM_SetIC4Prescaler>:
 8000dc0:	8b83      	ldrh	r3, [r0, #28]
 8000dc2:	f423 6240 	bic.w	r2, r3, #3072	; 0xc00
 8000dc6:	0413      	lsls	r3, r2, #16
 8000dc8:	0c1a      	lsrs	r2, r3, #16
 8000dca:	8382      	strh	r2, [r0, #28]
 8000dcc:	8b83      	ldrh	r3, [r0, #28]
 8000dce:	b29a      	uxth	r2, r3
 8000dd0:	ea42 2101 	orr.w	r1, r2, r1, lsl #8
 8000dd4:	b28b      	uxth	r3, r1
 8000dd6:	8383      	strh	r3, [r0, #28]
 8000dd8:	4770      	bx	lr
 8000dda:	bf00      	nop

08000ddc <TIM_BDTRConfig>:
 8000ddc:	880b      	ldrh	r3, [r1, #0]
 8000dde:	f8b1 c002 	ldrh.w	ip, [r1, #2]
 8000de2:	898a      	ldrh	r2, [r1, #12]
 8000de4:	b4f0      	push	{r4, r5, r6, r7}
 8000de6:	888f      	ldrh	r7, [r1, #4]
 8000de8:	88ce      	ldrh	r6, [r1, #6]
 8000dea:	890d      	ldrh	r5, [r1, #8]
 8000dec:	894c      	ldrh	r4, [r1, #10]
 8000dee:	ea4c 0103 	orr.w	r1, ip, r3
 8000df2:	4339      	orrs	r1, r7
 8000df4:	4331      	orrs	r1, r6
 8000df6:	4329      	orrs	r1, r5
 8000df8:	4321      	orrs	r1, r4
 8000dfa:	4311      	orrs	r1, r2
 8000dfc:	b28b      	uxth	r3, r1
 8000dfe:	f8a0 3044 	strh.w	r3, [r0, #68]	; 0x44
 8000e02:	bcf0      	pop	{r4, r5, r6, r7}
 8000e04:	4770      	bx	lr
 8000e06:	bf00      	nop

08000e08 <TIM_BDTRStructInit>:
 8000e08:	2300      	movs	r3, #0
 8000e0a:	8003      	strh	r3, [r0, #0]
 8000e0c:	8043      	strh	r3, [r0, #2]
 8000e0e:	8083      	strh	r3, [r0, #4]
 8000e10:	80c3      	strh	r3, [r0, #6]
 8000e12:	8103      	strh	r3, [r0, #8]
 8000e14:	8143      	strh	r3, [r0, #10]
 8000e16:	8183      	strh	r3, [r0, #12]
 8000e18:	4770      	bx	lr
 8000e1a:	bf00      	nop

08000e1c <TIM_CtrlPWMOutputs>:
 8000e1c:	f8b0 3044 	ldrh.w	r3, [r0, #68]	; 0x44
 8000e20:	b921      	cbnz	r1, 8000e2c <TIM_CtrlPWMOutputs+0x10>
 8000e22:	0459      	lsls	r1, r3, #17
 8000e24:	0c4a      	lsrs	r2, r1, #17
 8000e26:	f8a0 2044 	strh.w	r2, [r0, #68]	; 0x44
 8000e2a:	4770      	bx	lr
 8000e2c:	ea6f 4343 	mvn.w	r3, r3, lsl #17
 8000e30:	ea6f 4153 	mvn.w	r1, r3, lsr #17
 8000e34:	b28a      	uxth	r2, r1
 8000e36:	f8a0 2044 	strh.w	r2, [r0, #68]	; 0x44
 8000e3a:	4770      	bx	lr

08000e3c <TIM_SelectCOM>:
 8000e3c:	8883      	ldrh	r3, [r0, #4]
 8000e3e:	b929      	cbnz	r1, 8000e4c <TIM_SelectCOM+0x10>
 8000e40:	f023 0104 	bic.w	r1, r3, #4
 8000e44:	040a      	lsls	r2, r1, #16
 8000e46:	0c13      	lsrs	r3, r2, #16
 8000e48:	8083      	strh	r3, [r0, #4]
 8000e4a:	4770      	bx	lr
 8000e4c:	b299      	uxth	r1, r3
 8000e4e:	f041 0204 	orr.w	r2, r1, #4
 8000e52:	8082      	strh	r2, [r0, #4]
 8000e54:	4770      	bx	lr
 8000e56:	bf00      	nop

08000e58 <TIM_CCPreloadControl>:
 8000e58:	8883      	ldrh	r3, [r0, #4]
 8000e5a:	b929      	cbnz	r1, 8000e68 <TIM_CCPreloadControl+0x10>
 8000e5c:	f023 0101 	bic.w	r1, r3, #1
 8000e60:	040a      	lsls	r2, r1, #16
 8000e62:	0c13      	lsrs	r3, r2, #16
 8000e64:	8083      	strh	r3, [r0, #4]
 8000e66:	4770      	bx	lr
 8000e68:	b299      	uxth	r1, r3
 8000e6a:	f041 0201 	orr.w	r2, r1, #1
 8000e6e:	8082      	strh	r2, [r0, #4]
 8000e70:	4770      	bx	lr
 8000e72:	bf00      	nop

08000e74 <TIM_ITConfig>:
 8000e74:	8983      	ldrh	r3, [r0, #12]
 8000e76:	b29b      	uxth	r3, r3
 8000e78:	b91a      	cbnz	r2, 8000e82 <TIM_ITConfig+0xe>
 8000e7a:	ea23 0101 	bic.w	r1, r3, r1
 8000e7e:	8181      	strh	r1, [r0, #12]
 8000e80:	4770      	bx	lr
 8000e82:	4319      	orrs	r1, r3
 8000e84:	8181      	strh	r1, [r0, #12]
 8000e86:	4770      	bx	lr

08000e88 <TIM_GenerateEvent>:
 8000e88:	8281      	strh	r1, [r0, #20]
 8000e8a:	4770      	bx	lr

08000e8c <TIM_GetFlagStatus>:
 8000e8c:	8a03      	ldrh	r3, [r0, #16]
 8000e8e:	4219      	tst	r1, r3
 8000e90:	bf0c      	ite	eq
 8000e92:	2000      	moveq	r0, #0
 8000e94:	2001      	movne	r0, #1
 8000e96:	4770      	bx	lr

08000e98 <TIM_ClearFlag>:
 8000e98:	43c9      	mvns	r1, r1
 8000e9a:	b28a      	uxth	r2, r1
 8000e9c:	8202      	strh	r2, [r0, #16]
 8000e9e:	4770      	bx	lr

08000ea0 <TIM_GetITStatus>:
 8000ea0:	8a03      	ldrh	r3, [r0, #16]
 8000ea2:	8982      	ldrh	r2, [r0, #12]
 8000ea4:	ea11 0003 	ands.w	r0, r1, r3
 8000ea8:	b292      	uxth	r2, r2
 8000eaa:	d003      	beq.n	8000eb4 <TIM_GetITStatus+0x14>
 8000eac:	4211      	tst	r1, r2
 8000eae:	bf0c      	ite	eq
 8000eb0:	2000      	moveq	r0, #0
 8000eb2:	2001      	movne	r0, #1
 8000eb4:	4770      	bx	lr
 8000eb6:	bf00      	nop

08000eb8 <TIM_ClearITPendingBit>:
 8000eb8:	43c9      	mvns	r1, r1
 8000eba:	b28a      	uxth	r2, r1
 8000ebc:	8202      	strh	r2, [r0, #16]
 8000ebe:	4770      	bx	lr

08000ec0 <TIM_DMAConfig>:
 8000ec0:	430a      	orrs	r2, r1
 8000ec2:	f8a0 2048 	strh.w	r2, [r0, #72]	; 0x48
 8000ec6:	4770      	bx	lr

08000ec8 <TIM_DMACmd>:
 8000ec8:	8983      	ldrh	r3, [r0, #12]
 8000eca:	b29b      	uxth	r3, r3
 8000ecc:	b91a      	cbnz	r2, 8000ed6 <TIM_DMACmd+0xe>
 8000ece:	ea23 0101 	bic.w	r1, r3, r1
 8000ed2:	8181      	strh	r1, [r0, #12]
 8000ed4:	4770      	bx	lr
 8000ed6:	4319      	orrs	r1, r3
 8000ed8:	8181      	strh	r1, [r0, #12]
 8000eda:	4770      	bx	lr

08000edc <TIM_SelectCCDMA>:
 8000edc:	8883      	ldrh	r3, [r0, #4]
 8000ede:	b929      	cbnz	r1, 8000eec <TIM_SelectCCDMA+0x10>
 8000ee0:	f023 0108 	bic.w	r1, r3, #8
 8000ee4:	040a      	lsls	r2, r1, #16
 8000ee6:	0c13      	lsrs	r3, r2, #16
 8000ee8:	8083      	strh	r3, [r0, #4]
 8000eea:	4770      	bx	lr
 8000eec:	b299      	uxth	r1, r3
 8000eee:	f041 0208 	orr.w	r2, r1, #8
 8000ef2:	8082      	strh	r2, [r0, #4]
 8000ef4:	4770      	bx	lr
 8000ef6:	bf00      	nop

08000ef8 <TIM_InternalClockConfig>:
 8000ef8:	8903      	ldrh	r3, [r0, #8]
 8000efa:	f023 0107 	bic.w	r1, r3, #7
 8000efe:	040a      	lsls	r2, r1, #16
 8000f00:	0c13      	lsrs	r3, r2, #16
 8000f02:	8103      	strh	r3, [r0, #8]
 8000f04:	4770      	bx	lr
 8000f06:	bf00      	nop

08000f08 <TIM_ITRxExternalClockConfig>:
 8000f08:	8903      	ldrh	r3, [r0, #8]
 8000f0a:	f023 0270 	bic.w	r2, r3, #112	; 0x70
 8000f0e:	0413      	lsls	r3, r2, #16
 8000f10:	0c1a      	lsrs	r2, r3, #16
 8000f12:	4311      	orrs	r1, r2
 8000f14:	8101      	strh	r1, [r0, #8]
 8000f16:	8901      	ldrh	r1, [r0, #8]
 8000f18:	b28b      	uxth	r3, r1
 8000f1a:	f043 0207 	orr.w	r2, r3, #7
 8000f1e:	8102      	strh	r2, [r0, #8]
 8000f20:	4770      	bx	lr
 8000f22:	bf00      	nop

08000f24 <TIM_TIxExternalClockConfig>:
 8000f24:	2960      	cmp	r1, #96	; 0x60
 8000f26:	b470      	push	{r4, r5, r6}
 8000f28:	d027      	beq.n	8000f7a <TIM_TIxExternalClockConfig+0x56>
 8000f2a:	8c06      	ldrh	r6, [r0, #32]
 8000f2c:	f026 0401 	bic.w	r4, r6, #1
 8000f30:	0425      	lsls	r5, r4, #16
 8000f32:	0c2e      	lsrs	r6, r5, #16
 8000f34:	8406      	strh	r6, [r0, #32]
 8000f36:	8b05      	ldrh	r5, [r0, #24]
 8000f38:	8c04      	ldrh	r4, [r0, #32]
 8000f3a:	f025 05f3 	bic.w	r5, r5, #243	; 0xf3
 8000f3e:	042d      	lsls	r5, r5, #16
 8000f40:	f024 040a 	bic.w	r4, r4, #10
 8000f44:	0c2d      	lsrs	r5, r5, #16
 8000f46:	0424      	lsls	r4, r4, #16
 8000f48:	f045 0501 	orr.w	r5, r5, #1
 8000f4c:	0c24      	lsrs	r4, r4, #16
 8000f4e:	ea45 1303 	orr.w	r3, r5, r3, lsl #4
 8000f52:	f044 0401 	orr.w	r4, r4, #1
 8000f56:	b29b      	uxth	r3, r3
 8000f58:	4322      	orrs	r2, r4
 8000f5a:	8303      	strh	r3, [r0, #24]
 8000f5c:	8402      	strh	r2, [r0, #32]
 8000f5e:	8903      	ldrh	r3, [r0, #8]
 8000f60:	f023 0270 	bic.w	r2, r3, #112	; 0x70
 8000f64:	0413      	lsls	r3, r2, #16
 8000f66:	0c1a      	lsrs	r2, r3, #16
 8000f68:	4311      	orrs	r1, r2
 8000f6a:	8101      	strh	r1, [r0, #8]
 8000f6c:	8903      	ldrh	r3, [r0, #8]
 8000f6e:	b29a      	uxth	r2, r3
 8000f70:	f042 0107 	orr.w	r1, r2, #7
 8000f74:	8101      	strh	r1, [r0, #8]
 8000f76:	bc70      	pop	{r4, r5, r6}
 8000f78:	4770      	bx	lr
 8000f7a:	8c05      	ldrh	r5, [r0, #32]
 8000f7c:	f025 0410 	bic.w	r4, r5, #16
 8000f80:	0425      	lsls	r5, r4, #16
 8000f82:	0c2c      	lsrs	r4, r5, #16
 8000f84:	8404      	strh	r4, [r0, #32]
 8000f86:	8b05      	ldrh	r5, [r0, #24]
 8000f88:	8c04      	ldrh	r4, [r0, #32]
 8000f8a:	f425 7540 	bic.w	r5, r5, #768	; 0x300
 8000f8e:	f024 04a0 	bic.w	r4, r4, #160	; 0xa0
 8000f92:	052d      	lsls	r5, r5, #20
 8000f94:	0424      	lsls	r4, r4, #16
 8000f96:	0d2d      	lsrs	r5, r5, #20
 8000f98:	0c24      	lsrs	r4, r4, #16
 8000f9a:	f445 7580 	orr.w	r5, r5, #256	; 0x100
 8000f9e:	f044 0410 	orr.w	r4, r4, #16
 8000fa2:	ea45 3303 	orr.w	r3, r5, r3, lsl #12
 8000fa6:	ea44 1202 	orr.w	r2, r4, r2, lsl #4
 8000faa:	b29b      	uxth	r3, r3
 8000fac:	b292      	uxth	r2, r2
 8000fae:	8303      	strh	r3, [r0, #24]
 8000fb0:	8402      	strh	r2, [r0, #32]
 8000fb2:	e7d4      	b.n	8000f5e <TIM_TIxExternalClockConfig+0x3a>

08000fb4 <TIM_ETRClockMode1Config>:
 8000fb4:	b410      	push	{r4}
 8000fb6:	8904      	ldrh	r4, [r0, #8]
 8000fb8:	b2e4      	uxtb	r4, r4
 8000fba:	4321      	orrs	r1, r4
 8000fbc:	430a      	orrs	r2, r1
 8000fbe:	ea42 2303 	orr.w	r3, r2, r3, lsl #8
 8000fc2:	b29c      	uxth	r4, r3
 8000fc4:	8104      	strh	r4, [r0, #8]
 8000fc6:	8901      	ldrh	r1, [r0, #8]
 8000fc8:	f021 0277 	bic.w	r2, r1, #119	; 0x77
 8000fcc:	0413      	lsls	r3, r2, #16
 8000fce:	0c19      	lsrs	r1, r3, #16
 8000fd0:	f041 0277 	orr.w	r2, r1, #119	; 0x77
 8000fd4:	8102      	strh	r2, [r0, #8]
 8000fd6:	bc10      	pop	{r4}
 8000fd8:	4770      	bx	lr
 8000fda:	bf00      	nop

08000fdc <TIM_ETRClockMode2Config>:
 8000fdc:	b410      	push	{r4}
 8000fde:	8904      	ldrh	r4, [r0, #8]
 8000fe0:	b2e4      	uxtb	r4, r4
 8000fe2:	4321      	orrs	r1, r4
 8000fe4:	430a      	orrs	r2, r1
 8000fe6:	ea42 2303 	orr.w	r3, r2, r3, lsl #8
 8000fea:	b29c      	uxth	r4, r3
 8000fec:	8104      	strh	r4, [r0, #8]
 8000fee:	8901      	ldrh	r1, [r0, #8]
 8000ff0:	b28a      	uxth	r2, r1
 8000ff2:	f442 4380 	orr.w	r3, r2, #16384	; 0x4000
 8000ff6:	8103      	strh	r3, [r0, #8]
 8000ff8:	bc10      	pop	{r4}
 8000ffa:	4770      	bx	lr

08000ffc <TIM_SelectInputTrigger>:
 8000ffc:	8903      	ldrh	r3, [r0, #8]
 8000ffe:	f023 0270 	bic.w	r2, r3, #112	; 0x70
 8001002:	0413      	lsls	r3, r2, #16
 8001004:	0c1a      	lsrs	r2, r3, #16
 8001006:	4311      	orrs	r1, r2
 8001008:	8101      	strh	r1, [r0, #8]
 800100a:	4770      	bx	lr

0800100c <TIM_SelectOutputTrigger>:
 800100c:	8883      	ldrh	r3, [r0, #4]
 800100e:	f023 0270 	bic.w	r2, r3, #112	; 0x70
 8001012:	0413      	lsls	r3, r2, #16
 8001014:	0c1a      	lsrs	r2, r3, #16
 8001016:	8082      	strh	r2, [r0, #4]
 8001018:	8883      	ldrh	r3, [r0, #4]
 800101a:	b29a      	uxth	r2, r3
 800101c:	4311      	orrs	r1, r2
 800101e:	8081      	strh	r1, [r0, #4]
 8001020:	4770      	bx	lr
 8001022:	bf00      	nop

08001024 <TIM_SelectSlaveMode>:
 8001024:	8903      	ldrh	r3, [r0, #8]
 8001026:	f023 0207 	bic.w	r2, r3, #7
 800102a:	0413      	lsls	r3, r2, #16
 800102c:	0c1a      	lsrs	r2, r3, #16
 800102e:	8102      	strh	r2, [r0, #8]
 8001030:	8903      	ldrh	r3, [r0, #8]
 8001032:	b29a      	uxth	r2, r3
 8001034:	4311      	orrs	r1, r2
 8001036:	8101      	strh	r1, [r0, #8]
 8001038:	4770      	bx	lr
 800103a:	bf00      	nop

0800103c <TIM_SelectMasterSlaveMode>:
 800103c:	8903      	ldrh	r3, [r0, #8]
 800103e:	f023 0280 	bic.w	r2, r3, #128	; 0x80
 8001042:	0413      	lsls	r3, r2, #16
 8001044:	0c1a      	lsrs	r2, r3, #16
 8001046:	8102      	strh	r2, [r0, #8]
 8001048:	8903      	ldrh	r3, [r0, #8]
 800104a:	b29a      	uxth	r2, r3
 800104c:	4311      	orrs	r1, r2
 800104e:	8101      	strh	r1, [r0, #8]
 8001050:	4770      	bx	lr
 8001052:	bf00      	nop

08001054 <TIM_ETRConfig>:
 8001054:	b410      	push	{r4}
 8001056:	8904      	ldrh	r4, [r0, #8]
 8001058:	b2e4      	uxtb	r4, r4
 800105a:	4321      	orrs	r1, r4
 800105c:	430a      	orrs	r2, r1
 800105e:	ea42 2303 	orr.w	r3, r2, r3, lsl #8
 8001062:	b29c      	uxth	r4, r3
 8001064:	8104      	strh	r4, [r0, #8]
 8001066:	bc10      	pop	{r4}
 8001068:	4770      	bx	lr
 800106a:	bf00      	nop

0800106c <TIM_EncoderInterfaceConfig>:
 800106c:	b470      	push	{r4, r5, r6}
 800106e:	8905      	ldrh	r5, [r0, #8]
 8001070:	8b04      	ldrh	r4, [r0, #24]
 8001072:	8c06      	ldrh	r6, [r0, #32]
 8001074:	f424 7440 	bic.w	r4, r4, #768	; 0x300
 8001078:	f026 0622 	bic.w	r6, r6, #34	; 0x22
 800107c:	f024 0403 	bic.w	r4, r4, #3
 8001080:	0436      	lsls	r6, r6, #16
 8001082:	0c36      	lsrs	r6, r6, #16
 8001084:	f025 0507 	bic.w	r5, r5, #7
 8001088:	0424      	lsls	r4, r4, #16
 800108a:	0c24      	lsrs	r4, r4, #16
 800108c:	4332      	orrs	r2, r6
 800108e:	042d      	lsls	r5, r5, #16
 8001090:	f444 7680 	orr.w	r6, r4, #256	; 0x100
 8001094:	0c2d      	lsrs	r5, r5, #16
 8001096:	ea42 1303 	orr.w	r3, r2, r3, lsl #4
 800109a:	f046 0401 	orr.w	r4, r6, #1
 800109e:	4329      	orrs	r1, r5
 80010a0:	b29e      	uxth	r6, r3
 80010a2:	8101      	strh	r1, [r0, #8]
 80010a4:	8304      	strh	r4, [r0, #24]
 80010a6:	8406      	strh	r6, [r0, #32]
 80010a8:	bc70      	pop	{r4, r5, r6}
 80010aa:	4770      	bx	lr

080010ac <TIM_SelectHallSensor>:
 80010ac:	8883      	ldrh	r3, [r0, #4]
 80010ae:	b929      	cbnz	r1, 80010bc <TIM_SelectHallSensor+0x10>
 80010b0:	f023 0180 	bic.w	r1, r3, #128	; 0x80
 80010b4:	040a      	lsls	r2, r1, #16
 80010b6:	0c13      	lsrs	r3, r2, #16
 80010b8:	8083      	strh	r3, [r0, #4]
 80010ba:	4770      	bx	lr
 80010bc:	b299      	uxth	r1, r3
 80010be:	f041 0280 	orr.w	r2, r1, #128	; 0x80
 80010c2:	8082      	strh	r2, [r0, #4]
 80010c4:	4770      	bx	lr
 80010c6:	bf00      	nop

080010c8 <TIM_RemapConfig>:
 80010c8:	f8a0 1050 	strh.w	r1, [r0, #80]	; 0x50
 80010cc:	4770      	bx	lr
 80010ce:	bf00      	nop

080010d0 <SYSCFG_DeInit>:
 80010d0:	b508      	push	{r3, lr}
 80010d2:	2101      	movs	r1, #1
 80010d4:	f44f 4080 	mov.w	r0, #16384	; 0x4000
 80010d8:	f000 fa28 	bl	800152c <RCC_APB2PeriphResetCmd>
 80010dc:	f44f 4080 	mov.w	r0, #16384	; 0x4000
 80010e0:	2100      	movs	r1, #0
 80010e2:	e8bd 4008 	ldmia.w	sp!, {r3, lr}
 80010e6:	f000 ba21 	b.w	800152c <RCC_APB2PeriphResetCmd>
 80010ea:	bf00      	nop

080010ec <SYSCFG_MemoryRemapConfig>:
 80010ec:	f44f 5360 	mov.w	r3, #14336	; 0x3800
 80010f0:	f2c4 0301 	movt	r3, #16385	; 0x4001
 80010f4:	6018      	str	r0, [r3, #0]
 80010f6:	4770      	bx	lr

080010f8 <SYSCFG_EXTILineConfig>:
 80010f8:	088a      	lsrs	r2, r1, #2
 80010fa:	f44f 5360 	mov.w	r3, #14336	; 0x3800
 80010fe:	f2c4 0301 	movt	r3, #16385	; 0x4001
 8001102:	3202      	adds	r2, #2
 8001104:	f001 0103 	and.w	r1, r1, #3
 8001108:	b430      	push	{r4, r5}
 800110a:	0089      	lsls	r1, r1, #2
 800110c:	f853 5022 	ldr.w	r5, [r3, r2, lsl #2]
 8001110:	240f      	movs	r4, #15
 8001112:	fa04 f401 	lsl.w	r4, r4, r1
 8001116:	ea25 0404 	bic.w	r4, r5, r4
 800111a:	f843 4022 	str.w	r4, [r3, r2, lsl #2]
 800111e:	f853 4022 	ldr.w	r4, [r3, r2, lsl #2]
 8001122:	fa00 f001 	lsl.w	r0, r0, r1
 8001126:	4304      	orrs	r4, r0
 8001128:	f843 4022 	str.w	r4, [r3, r2, lsl #2]
 800112c:	bc30      	pop	{r4, r5}
 800112e:	4770      	bx	lr

08001130 <SYSCFG_ETH_MediaInterfaceConfig>:
 8001130:	23dc      	movs	r3, #220	; 0xdc
 8001132:	f2c4 2327 	movt	r3, #16935	; 0x4227
 8001136:	6018      	str	r0, [r3, #0]
 8001138:	4770      	bx	lr
 800113a:	bf00      	nop

0800113c <SYSCFG_CompensationCellCmd>:
 800113c:	f44f 6380 	mov.w	r3, #1024	; 0x400
 8001140:	f2c4 2327 	movt	r3, #16935	; 0x4227
 8001144:	6018      	str	r0, [r3, #0]
 8001146:	4770      	bx	lr

08001148 <SYSCFG_GetCompensationCellStatus>:
 8001148:	f44f 5360 	mov.w	r3, #14336	; 0x3800
 800114c:	f2c4 0301 	movt	r3, #16385	; 0x4001
 8001150:	6a18      	ldr	r0, [r3, #32]
 8001152:	f3c0 2000 	ubfx	r0, r0, #8, #1
 8001156:	4770      	bx	lr

08001158 <RCC_DeInit>:
 8001158:	f44f 5360 	mov.w	r3, #14336	; 0x3800
 800115c:	f2c4 0302 	movt	r3, #16386	; 0x4002
 8001160:	2200      	movs	r2, #0
 8001162:	6819      	ldr	r1, [r3, #0]
 8001164:	f041 0001 	orr.w	r0, r1, #1
 8001168:	6018      	str	r0, [r3, #0]
 800116a:	609a      	str	r2, [r3, #8]
 800116c:	6818      	ldr	r0, [r3, #0]
 800116e:	f243 0110 	movw	r1, #12304	; 0x3010
 8001172:	f020 7084 	bic.w	r0, r0, #17301504	; 0x1080000
 8001176:	f420 3080 	bic.w	r0, r0, #65536	; 0x10000
 800117a:	f2c2 4100 	movt	r1, #9216	; 0x2400
 800117e:	6018      	str	r0, [r3, #0]
 8001180:	6059      	str	r1, [r3, #4]
 8001182:	6819      	ldr	r1, [r3, #0]
 8001184:	f421 2080 	bic.w	r0, r1, #262144	; 0x40000
 8001188:	6018      	str	r0, [r3, #0]
 800118a:	60da      	str	r2, [r3, #12]
 800118c:	4770      	bx	lr
 800118e:	bf00      	nop

08001190 <RCC_HSEConfig>:
 8001190:	f643 0302 	movw	r3, #14338	; 0x3802
 8001194:	f2c4 0302 	movt	r3, #16386	; 0x4002
 8001198:	2200      	movs	r2, #0
 800119a:	701a      	strb	r2, [r3, #0]
 800119c:	7018      	strb	r0, [r3, #0]
 800119e:	4770      	bx	lr

080011a0 <RCC_WaitForHSEStartUp>:
 80011a0:	b082      	sub	sp, #8
 80011a2:	f44f 5260 	mov.w	r2, #14336	; 0x3800
 80011a6:	2300      	movs	r3, #0
 80011a8:	9301      	str	r3, [sp, #4]
 80011aa:	f2c4 0202 	movt	r2, #16386	; 0x4002
 80011ae:	6810      	ldr	r0, [r2, #0]
 80011b0:	0383      	lsls	r3, r0, #14
 80011b2:	d50c      	bpl.n	80011ce <RCC_WaitForHSEStartUp+0x2e>
 80011b4:	9a01      	ldr	r2, [sp, #4]
 80011b6:	1c51      	adds	r1, r2, #1
 80011b8:	9101      	str	r1, [sp, #4]
 80011ba:	9b01      	ldr	r3, [sp, #4]
 80011bc:	f44f 5360 	mov.w	r3, #14336	; 0x3800
 80011c0:	f2c4 0302 	movt	r3, #16386	; 0x4002
 80011c4:	6818      	ldr	r0, [r3, #0]
 80011c6:	f3c0 4040 	ubfx	r0, r0, #17, #1
 80011ca:	b002      	add	sp, #8
 80011cc:	4770      	bx	lr
 80011ce:	9901      	ldr	r1, [sp, #4]
 80011d0:	1c4b      	adds	r3, r1, #1
 80011d2:	9301      	str	r3, [sp, #4]
 80011d4:	9801      	ldr	r0, [sp, #4]
 80011d6:	f5b0 6fa0 	cmp.w	r0, #1280	; 0x500
 80011da:	d1e8      	bne.n	80011ae <RCC_WaitForHSEStartUp+0xe>
 80011dc:	e7ee      	b.n	80011bc <RCC_WaitForHSEStartUp+0x1c>
 80011de:	bf00      	nop

080011e0 <RCC_AdjustHSICalibrationValue>:
 80011e0:	f44f 5360 	mov.w	r3, #14336	; 0x3800
 80011e4:	f2c4 0302 	movt	r3, #16386	; 0x4002
 80011e8:	681a      	ldr	r2, [r3, #0]
 80011ea:	f022 01f8 	bic.w	r1, r2, #248	; 0xf8
 80011ee:	ea41 00c0 	orr.w	r0, r1, r0, lsl #3
 80011f2:	6018      	str	r0, [r3, #0]
 80011f4:	4770      	bx	lr
 80011f6:	bf00      	nop

080011f8 <RCC_HSICmd>:
 80011f8:	2300      	movs	r3, #0
 80011fa:	f2c4 2347 	movt	r3, #16967	; 0x4247
 80011fe:	6018      	str	r0, [r3, #0]
 8001200:	4770      	bx	lr
 8001202:	bf00      	nop

08001204 <RCC_LSEConfig>:
 8001204:	f643 0370 	movw	r3, #14448	; 0x3870
 8001208:	f2c4 0302 	movt	r3, #16386	; 0x4002
 800120c:	2200      	movs	r2, #0
 800120e:	2801      	cmp	r0, #1
 8001210:	701a      	strb	r2, [r3, #0]
 8001212:	701a      	strb	r2, [r3, #0]
 8001214:	d004      	beq.n	8001220 <RCC_LSEConfig+0x1c>
 8001216:	2804      	cmp	r0, #4
 8001218:	d101      	bne.n	800121e <RCC_LSEConfig+0x1a>
 800121a:	2005      	movs	r0, #5
 800121c:	7018      	strb	r0, [r3, #0]
 800121e:	4770      	bx	lr
 8001220:	7018      	strb	r0, [r3, #0]
 8001222:	4770      	bx	lr

08001224 <RCC_LSICmd>:
 8001224:	f44f 6368 	mov.w	r3, #3712	; 0xe80
 8001228:	f2c4 2347 	movt	r3, #16967	; 0x4247
 800122c:	6018      	str	r0, [r3, #0]
 800122e:	4770      	bx	lr

08001230 <RCC_PLLConfig>:
 8001230:	b430      	push	{r4, r5}
 8001232:	4301      	orrs	r1, r0
 8001234:	9d02      	ldr	r5, [sp, #8]
 8001236:	ea41 1282 	orr.w	r2, r1, r2, lsl #6
 800123a:	085b      	lsrs	r3, r3, #1
 800123c:	f44f 5460 	mov.w	r4, #14336	; 0x3800
 8001240:	ea42 6505 	orr.w	r5, r2, r5, lsl #24
 8001244:	1e59      	subs	r1, r3, #1
 8001246:	f2c4 0402 	movt	r4, #16386	; 0x4002
 800124a:	ea45 4001 	orr.w	r0, r5, r1, lsl #16
 800124e:	6060      	str	r0, [r4, #4]
 8001250:	bc30      	pop	{r4, r5}
 8001252:	4770      	bx	lr

08001254 <RCC_PLLCmd>:
 8001254:	2360      	movs	r3, #96	; 0x60
 8001256:	f2c4 2347 	movt	r3, #16967	; 0x4247
 800125a:	6018      	str	r0, [r3, #0]
 800125c:	4770      	bx	lr
 800125e:	bf00      	nop

08001260 <RCC_PLLI2SConfig>:
 8001260:	f44f 5360 	mov.w	r3, #14336	; 0x3800
 8001264:	0180      	lsls	r0, r0, #6
 8001266:	f2c4 0302 	movt	r3, #16386	; 0x4002
 800126a:	ea40 7101 	orr.w	r1, r0, r1, lsl #28
 800126e:	f8c3 1084 	str.w	r1, [r3, #132]	; 0x84
 8001272:	4770      	bx	lr

08001274 <RCC_PLLI2SCmd>:
 8001274:	2368      	movs	r3, #104	; 0x68
 8001276:	f2c4 2347 	movt	r3, #16967	; 0x4247
 800127a:	6018      	str	r0, [r3, #0]
 800127c:	4770      	bx	lr
 800127e:	bf00      	nop

08001280 <RCC_ClockSecuritySystemCmd>:
 8001280:	234c      	movs	r3, #76	; 0x4c
 8001282:	f2c4 2347 	movt	r3, #16967	; 0x4247
 8001286:	6018      	str	r0, [r3, #0]
 8001288:	4770      	bx	lr
 800128a:	bf00      	nop

0800128c <RCC_MCO1Config>:
 800128c:	f44f 5360 	mov.w	r3, #14336	; 0x3800
 8001290:	f2c4 0302 	movt	r3, #16386	; 0x4002
 8001294:	689a      	ldr	r2, [r3, #8]
 8001296:	f022 62ec 	bic.w	r2, r2, #123731968	; 0x7600000
 800129a:	4310      	orrs	r0, r2
 800129c:	4301      	orrs	r1, r0
 800129e:	6099      	str	r1, [r3, #8]
 80012a0:	4770      	bx	lr
 80012a2:	bf00      	nop

080012a4 <RCC_MCO2Config>:
 80012a4:	f44f 5360 	mov.w	r3, #14336	; 0x3800
 80012a8:	f2c4 0302 	movt	r3, #16386	; 0x4002
 80012ac:	689a      	ldr	r2, [r3, #8]
 80012ae:	f022 4278 	bic.w	r2, r2, #4160749568	; 0xf8000000
 80012b2:	4310      	orrs	r0, r2
 80012b4:	4301      	orrs	r1, r0
 80012b6:	6099      	str	r1, [r3, #8]
 80012b8:	4770      	bx	lr
 80012ba:	bf00      	nop

080012bc <RCC_SYSCLKConfig>:
 80012bc:	f44f 5360 	mov.w	r3, #14336	; 0x3800
 80012c0:	f2c4 0302 	movt	r3, #16386	; 0x4002
 80012c4:	689a      	ldr	r2, [r3, #8]
 80012c6:	f022 0103 	bic.w	r1, r2, #3
 80012ca:	4308      	orrs	r0, r1
 80012cc:	6098      	str	r0, [r3, #8]
 80012ce:	4770      	bx	lr

080012d0 <RCC_GetSYSCLKSource>:
 80012d0:	f44f 5360 	mov.w	r3, #14336	; 0x3800
 80012d4:	f2c4 0302 	movt	r3, #16386	; 0x4002
 80012d8:	6898      	ldr	r0, [r3, #8]
 80012da:	f000 000c 	and.w	r0, r0, #12
 80012de:	4770      	bx	lr

080012e0 <RCC_HCLKConfig>:
 80012e0:	f44f 5360 	mov.w	r3, #14336	; 0x3800
 80012e4:	f2c4 0302 	movt	r3, #16386	; 0x4002
 80012e8:	689a      	ldr	r2, [r3, #8]
 80012ea:	f022 01f0 	bic.w	r1, r2, #240	; 0xf0
 80012ee:	4308      	orrs	r0, r1
 80012f0:	6098      	str	r0, [r3, #8]
 80012f2:	4770      	bx	lr

080012f4 <RCC_PCLK1Config>:
 80012f4:	f44f 5360 	mov.w	r3, #14336	; 0x3800
 80012f8:	f2c4 0302 	movt	r3, #16386	; 0x4002
 80012fc:	689a      	ldr	r2, [r3, #8]
 80012fe:	f422 51e0 	bic.w	r1, r2, #7168	; 0x1c00
 8001302:	4308      	orrs	r0, r1
 8001304:	6098      	str	r0, [r3, #8]
 8001306:	4770      	bx	lr

08001308 <RCC_PCLK2Config>:
 8001308:	f44f 5360 	mov.w	r3, #14336	; 0x3800
 800130c:	f2c4 0302 	movt	r3, #16386	; 0x4002
 8001310:	689a      	ldr	r2, [r3, #8]
 8001312:	f422 4160 	bic.w	r1, r2, #57344	; 0xe000
 8001316:	ea41 00c0 	orr.w	r0, r1, r0, lsl #3
 800131a:	6098      	str	r0, [r3, #8]
 800131c:	4770      	bx	lr
 800131e:	bf00      	nop

08001320 <RCC_GetClocksFreq>:
 8001320:	f44f 5360 	mov.w	r3, #14336	; 0x3800
 8001324:	f2c4 0302 	movt	r3, #16386	; 0x4002
 8001328:	b410      	push	{r4}
 800132a:	689a      	ldr	r2, [r3, #8]
 800132c:	f002 010c 	and.w	r1, r2, #12
 8001330:	2904      	cmp	r1, #4
 8001332:	d022      	beq.n	800137a <RCC_GetClocksFreq+0x5a>
 8001334:	2908      	cmp	r1, #8
 8001336:	d026      	beq.n	8001386 <RCC_GetClocksFreq+0x66>
 8001338:	f44f 5210 	mov.w	r2, #9216	; 0x2400
 800133c:	f2c0 02f4 	movt	r2, #244	; 0xf4
 8001340:	6002      	str	r2, [r0, #0]
 8001342:	f44f 5360 	mov.w	r3, #14336	; 0x3800
 8001346:	f2c4 0302 	movt	r3, #16386	; 0x4002
 800134a:	4921      	ldr	r1, [pc, #132]	; (80013d0 <RCC_GetClocksFreq+0xb0>)
 800134c:	689c      	ldr	r4, [r3, #8]
 800134e:	f3c4 1403 	ubfx	r4, r4, #4, #4
 8001352:	5d0c      	ldrb	r4, [r1, r4]
 8001354:	fa22 f204 	lsr.w	r2, r2, r4
 8001358:	6042      	str	r2, [r0, #4]
 800135a:	689c      	ldr	r4, [r3, #8]
 800135c:	f3c4 2482 	ubfx	r4, r4, #10, #3
 8001360:	5d0c      	ldrb	r4, [r1, r4]
 8001362:	fa22 f404 	lsr.w	r4, r2, r4
 8001366:	6084      	str	r4, [r0, #8]
 8001368:	689b      	ldr	r3, [r3, #8]
 800136a:	f3c3 3342 	ubfx	r3, r3, #13, #3
 800136e:	5cc9      	ldrb	r1, [r1, r3]
 8001370:	fa22 f201 	lsr.w	r2, r2, r1
 8001374:	60c2      	str	r2, [r0, #12]
 8001376:	bc10      	pop	{r4}
 8001378:	4770      	bx	lr
 800137a:	f44f 5290 	mov.w	r2, #4608	; 0x1200
 800137e:	f2c0 027a 	movt	r2, #122	; 0x7a
 8001382:	6002      	str	r2, [r0, #0]
 8001384:	e7dd      	b.n	8001342 <RCC_GetClocksFreq+0x22>
 8001386:	685c      	ldr	r4, [r3, #4]
 8001388:	6859      	ldr	r1, [r3, #4]
 800138a:	f414 0f80 	tst.w	r4, #4194304	; 0x400000
 800138e:	685c      	ldr	r4, [r3, #4]
 8001390:	f001 023f 	and.w	r2, r1, #63	; 0x3f
 8001394:	bf14      	ite	ne
 8001396:	f44f 5390 	movne.w	r3, #4608	; 0x1200
 800139a:	f44f 5310 	moveq.w	r3, #9216	; 0x2400
 800139e:	f3c4 1188 	ubfx	r1, r4, #6, #9
 80013a2:	f44f 5460 	mov.w	r4, #14336	; 0x3800
 80013a6:	bf14      	ite	ne
 80013a8:	f2c0 037a 	movtne	r3, #122	; 0x7a
 80013ac:	f2c0 03f4 	movteq	r3, #244	; 0xf4
 80013b0:	f2c4 0402 	movt	r4, #16386	; 0x4002
 80013b4:	fbb3 f3f2 	udiv	r3, r3, r2
 80013b8:	fb03 f201 	mul.w	r2, r3, r1
 80013bc:	6861      	ldr	r1, [r4, #4]
 80013be:	f3c1 4301 	ubfx	r3, r1, #16, #2
 80013c2:	1c5c      	adds	r4, r3, #1
 80013c4:	0061      	lsls	r1, r4, #1
 80013c6:	fbb2 f2f1 	udiv	r2, r2, r1
 80013ca:	6002      	str	r2, [r0, #0]
 80013cc:	e7b9      	b.n	8001342 <RCC_GetClocksFreq+0x22>
 80013ce:	bf00      	nop
 80013d0:	20000000 	.word	0x20000000

080013d4 <RCC_RTCCLKConfig>:
 80013d4:	f400 7340 	and.w	r3, r0, #768	; 0x300
 80013d8:	f5b3 7f40 	cmp.w	r3, #768	; 0x300
 80013dc:	d10c      	bne.n	80013f8 <RCC_RTCCLKConfig+0x24>
 80013de:	f44f 5360 	mov.w	r3, #14336	; 0x3800
 80013e2:	f2c4 0302 	movt	r3, #16386	; 0x4002
 80013e6:	f020 4170 	bic.w	r1, r0, #4026531840	; 0xf0000000
 80013ea:	689a      	ldr	r2, [r3, #8]
 80013ec:	f421 7140 	bic.w	r1, r1, #768	; 0x300
 80013f0:	f422 12f8 	bic.w	r2, r2, #2031616	; 0x1f0000
 80013f4:	4311      	orrs	r1, r2
 80013f6:	6099      	str	r1, [r3, #8]
 80013f8:	f44f 5360 	mov.w	r3, #14336	; 0x3800
 80013fc:	f2c4 0302 	movt	r3, #16386	; 0x4002
 8001400:	0500      	lsls	r0, r0, #20
 8001402:	6f1a      	ldr	r2, [r3, #112]	; 0x70
 8001404:	0d01      	lsrs	r1, r0, #20
 8001406:	4311      	orrs	r1, r2
 8001408:	6719      	str	r1, [r3, #112]	; 0x70
 800140a:	4770      	bx	lr

0800140c <RCC_RTCCLKCmd>:
 800140c:	f640 633c 	movw	r3, #3644	; 0xe3c
 8001410:	f2c4 2347 	movt	r3, #16967	; 0x4247
 8001414:	6018      	str	r0, [r3, #0]
 8001416:	4770      	bx	lr

08001418 <RCC_BackupResetCmd>:
 8001418:	f44f 6364 	mov.w	r3, #3648	; 0xe40
 800141c:	f2c4 2347 	movt	r3, #16967	; 0x4247
 8001420:	6018      	str	r0, [r3, #0]
 8001422:	4770      	bx	lr

08001424 <RCC_I2SCLKConfig>:
 8001424:	f44f 73ae 	mov.w	r3, #348	; 0x15c
 8001428:	f2c4 2347 	movt	r3, #16967	; 0x4247
 800142c:	6018      	str	r0, [r3, #0]
 800142e:	4770      	bx	lr

08001430 <RCC_AHB1PeriphClockCmd>:
 8001430:	f44f 5360 	mov.w	r3, #14336	; 0x3800
 8001434:	f2c4 0302 	movt	r3, #16386	; 0x4002
 8001438:	6b1a      	ldr	r2, [r3, #48]	; 0x30
 800143a:	b919      	cbnz	r1, 8001444 <RCC_AHB1PeriphClockCmd+0x14>
 800143c:	ea22 0000 	bic.w	r0, r2, r0
 8001440:	6318      	str	r0, [r3, #48]	; 0x30
 8001442:	4770      	bx	lr
 8001444:	4310      	orrs	r0, r2
 8001446:	6318      	str	r0, [r3, #48]	; 0x30
 8001448:	4770      	bx	lr
 800144a:	bf00      	nop

0800144c <RCC_AHB2PeriphClockCmd>:
 800144c:	f44f 5360 	mov.w	r3, #14336	; 0x3800
 8001450:	f2c4 0302 	movt	r3, #16386	; 0x4002
 8001454:	6b5a      	ldr	r2, [r3, #52]	; 0x34
 8001456:	b919      	cbnz	r1, 8001460 <RCC_AHB2PeriphClockCmd+0x14>
 8001458:	ea22 0000 	bic.w	r0, r2, r0
 800145c:	6358      	str	r0, [r3, #52]	; 0x34
 800145e:	4770      	bx	lr
 8001460:	4310      	orrs	r0, r2
 8001462:	6358      	str	r0, [r3, #52]	; 0x34
 8001464:	4770      	bx	lr
 8001466:	bf00      	nop

08001468 <RCC_AHB3PeriphClockCmd>:
 8001468:	f44f 5360 	mov.w	r3, #14336	; 0x3800
 800146c:	f2c4 0302 	movt	r3, #16386	; 0x4002
 8001470:	6b9a      	ldr	r2, [r3, #56]	; 0x38
 8001472:	b919      	cbnz	r1, 800147c <RCC_AHB3PeriphClockCmd+0x14>
 8001474:	ea22 0000 	bic.w	r0, r2, r0
 8001478:	6398      	str	r0, [r3, #56]	; 0x38
 800147a:	4770      	bx	lr
 800147c:	4310      	orrs	r0, r2
 800147e:	6398      	str	r0, [r3, #56]	; 0x38
 8001480:	4770      	bx	lr
 8001482:	bf00      	nop

08001484 <RCC_APB1PeriphClockCmd>:
 8001484:	f44f 5360 	mov.w	r3, #14336	; 0x3800
 8001488:	f2c4 0302 	movt	r3, #16386	; 0x4002
 800148c:	6c1a      	ldr	r2, [r3, #64]	; 0x40
 800148e:	b919      	cbnz	r1, 8001498 <RCC_APB1PeriphClockCmd+0x14>
 8001490:	ea22 0000 	bic.w	r0, r2, r0
 8001494:	6418      	str	r0, [r3, #64]	; 0x40
 8001496:	4770      	bx	lr
 8001498:	4310      	orrs	r0, r2
 800149a:	6418      	str	r0, [r3, #64]	; 0x40
 800149c:	4770      	bx	lr
 800149e:	bf00      	nop

080014a0 <RCC_APB2PeriphClockCmd>:
 80014a0:	f44f 5360 	mov.w	r3, #14336	; 0x3800
 80014a4:	f2c4 0302 	movt	r3, #16386	; 0x4002
 80014a8:	6c5a      	ldr	r2, [r3, #68]	; 0x44
 80014aa:	b919      	cbnz	r1, 80014b4 <RCC_APB2PeriphClockCmd+0x14>
 80014ac:	ea22 0000 	bic.w	r0, r2, r0
 80014b0:	6458      	str	r0, [r3, #68]	; 0x44
 80014b2:	4770      	bx	lr
 80014b4:	4310      	orrs	r0, r2
 80014b6:	6458      	str	r0, [r3, #68]	; 0x44
 80014b8:	4770      	bx	lr
 80014ba:	bf00      	nop

080014bc <RCC_AHB1PeriphResetCmd>:
 80014bc:	f44f 5360 	mov.w	r3, #14336	; 0x3800
 80014c0:	f2c4 0302 	movt	r3, #16386	; 0x4002
 80014c4:	691a      	ldr	r2, [r3, #16]
 80014c6:	b919      	cbnz	r1, 80014d0 <RCC_AHB1PeriphResetCmd+0x14>
 80014c8:	ea22 0000 	bic.w	r0, r2, r0
 80014cc:	6118      	str	r0, [r3, #16]
 80014ce:	4770      	bx	lr
 80014d0:	4310      	orrs	r0, r2
 80014d2:	6118      	str	r0, [r3, #16]
 80014d4:	4770      	bx	lr
 80014d6:	bf00      	nop

080014d8 <RCC_AHB2PeriphResetCmd>:
 80014d8:	f44f 5360 	mov.w	r3, #14336	; 0x3800
 80014dc:	f2c4 0302 	movt	r3, #16386	; 0x4002
 80014e0:	695a      	ldr	r2, [r3, #20]
 80014e2:	b919      	cbnz	r1, 80014ec <RCC_AHB2PeriphResetCmd+0x14>
 80014e4:	ea22 0000 	bic.w	r0, r2, r0
 80014e8:	6158      	str	r0, [r3, #20]
 80014ea:	4770      	bx	lr
 80014ec:	4310      	orrs	r0, r2
 80014ee:	6158      	str	r0, [r3, #20]
 80014f0:	4770      	bx	lr
 80014f2:	bf00      	nop

080014f4 <RCC_AHB3PeriphResetCmd>:
 80014f4:	f44f 5360 	mov.w	r3, #14336	; 0x3800
 80014f8:	f2c4 0302 	movt	r3, #16386	; 0x4002
 80014fc:	699a      	ldr	r2, [r3, #24]
 80014fe:	b919      	cbnz	r1, 8001508 <RCC_AHB3PeriphResetCmd+0x14>
 8001500:	ea22 0000 	bic.w	r0, r2, r0
 8001504:	6198      	str	r0, [r3, #24]
 8001506:	4770      	bx	lr
 8001508:	4310      	orrs	r0, r2
 800150a:	6198      	str	r0, [r3, #24]
 800150c:	4770      	bx	lr
 800150e:	bf00      	nop

08001510 <RCC_APB1PeriphResetCmd>:
 8001510:	f44f 5360 	mov.w	r3, #14336	; 0x3800
 8001514:	f2c4 0302 	movt	r3, #16386	; 0x4002
 8001518:	6a1a      	ldr	r2, [r3, #32]
 800151a:	b919      	cbnz	r1, 8001524 <RCC_APB1PeriphResetCmd+0x14>
 800151c:	ea22 0000 	bic.w	r0, r2, r0
 8001520:	6218      	str	r0, [r3, #32]
 8001522:	4770      	bx	lr
 8001524:	4310      	orrs	r0, r2
 8001526:	6218      	str	r0, [r3, #32]
 8001528:	4770      	bx	lr
 800152a:	bf00      	nop

0800152c <RCC_APB2PeriphResetCmd>:
 800152c:	f44f 5360 	mov.w	r3, #14336	; 0x3800
 8001530:	f2c4 0302 	movt	r3, #16386	; 0x4002
 8001534:	6a5a      	ldr	r2, [r3, #36]	; 0x24
 8001536:	b919      	cbnz	r1, 8001540 <RCC_APB2PeriphResetCmd+0x14>
 8001538:	ea22 0000 	bic.w	r0, r2, r0
 800153c:	6258      	str	r0, [r3, #36]	; 0x24
 800153e:	4770      	bx	lr
 8001540:	4310      	orrs	r0, r2
 8001542:	6258      	str	r0, [r3, #36]	; 0x24
 8001544:	4770      	bx	lr
 8001546:	bf00      	nop

08001548 <RCC_AHB1PeriphClockLPModeCmd>:
 8001548:	f44f 5360 	mov.w	r3, #14336	; 0x3800
 800154c:	f2c4 0302 	movt	r3, #16386	; 0x4002
 8001550:	6d1a      	ldr	r2, [r3, #80]	; 0x50
 8001552:	b919      	cbnz	r1, 800155c <RCC_AHB1PeriphClockLPModeCmd+0x14>
 8001554:	ea22 0000 	bic.w	r0, r2, r0
 8001558:	6518      	str	r0, [r3, #80]	; 0x50
 800155a:	4770      	bx	lr
 800155c:	4310      	orrs	r0, r2
 800155e:	6518      	str	r0, [r3, #80]	; 0x50
 8001560:	4770      	bx	lr
 8001562:	bf00      	nop

08001564 <RCC_AHB2PeriphClockLPModeCmd>:
 8001564:	f44f 5360 	mov.w	r3, #14336	; 0x3800
 8001568:	f2c4 0302 	movt	r3, #16386	; 0x4002
 800156c:	6d5a      	ldr	r2, [r3, #84]	; 0x54
 800156e:	b919      	cbnz	r1, 8001578 <RCC_AHB2PeriphClockLPModeCmd+0x14>
 8001570:	ea22 0000 	bic.w	r0, r2, r0
 8001574:	6558      	str	r0, [r3, #84]	; 0x54
 8001576:	4770      	bx	lr
 8001578:	4310      	orrs	r0, r2
 800157a:	6558      	str	r0, [r3, #84]	; 0x54
 800157c:	4770      	bx	lr
 800157e:	bf00      	nop

08001580 <RCC_AHB3PeriphClockLPModeCmd>:
 8001580:	f44f 5360 	mov.w	r3, #14336	; 0x3800
 8001584:	f2c4 0302 	movt	r3, #16386	; 0x4002
 8001588:	6d9a      	ldr	r2, [r3, #88]	; 0x58
 800158a:	b919      	cbnz	r1, 8001594 <RCC_AHB3PeriphClockLPModeCmd+0x14>
 800158c:	ea22 0000 	bic.w	r0, r2, r0
 8001590:	6598      	str	r0, [r3, #88]	; 0x58
 8001592:	4770      	bx	lr
 8001594:	4310      	orrs	r0, r2
 8001596:	6598      	str	r0, [r3, #88]	; 0x58
 8001598:	4770      	bx	lr
 800159a:	bf00      	nop

0800159c <RCC_APB1PeriphClockLPModeCmd>:
 800159c:	f44f 5360 	mov.w	r3, #14336	; 0x3800
 80015a0:	f2c4 0302 	movt	r3, #16386	; 0x4002
 80015a4:	6e1a      	ldr	r2, [r3, #96]	; 0x60
 80015a6:	b919      	cbnz	r1, 80015b0 <RCC_APB1PeriphClockLPModeCmd+0x14>
 80015a8:	ea22 0000 	bic.w	r0, r2, r0
 80015ac:	6618      	str	r0, [r3, #96]	; 0x60
 80015ae:	4770      	bx	lr
 80015b0:	4310      	orrs	r0, r2
 80015b2:	6618      	str	r0, [r3, #96]	; 0x60
 80015b4:	4770      	bx	lr
 80015b6:	bf00      	nop

080015b8 <RCC_APB2PeriphClockLPModeCmd>:
 80015b8:	f44f 5360 	mov.w	r3, #14336	; 0x3800
 80015bc:	f2c4 0302 	movt	r3, #16386	; 0x4002
 80015c0:	6e5a      	ldr	r2, [r3, #100]	; 0x64
 80015c2:	b919      	cbnz	r1, 80015cc <RCC_APB2PeriphClockLPModeCmd+0x14>
 80015c4:	ea22 0000 	bic.w	r0, r2, r0
 80015c8:	6658      	str	r0, [r3, #100]	; 0x64
 80015ca:	4770      	bx	lr
 80015cc:	4310      	orrs	r0, r2
 80015ce:	6658      	str	r0, [r3, #100]	; 0x64
 80015d0:	4770      	bx	lr
 80015d2:	bf00      	nop

080015d4 <RCC_ITConfig>:
 80015d4:	f643 030d 	movw	r3, #14349	; 0x380d
 80015d8:	f2c4 0302 	movt	r3, #16386	; 0x4002
 80015dc:	781a      	ldrb	r2, [r3, #0]
 80015de:	b919      	cbnz	r1, 80015e8 <RCC_ITConfig+0x14>
 80015e0:	ea22 0000 	bic.w	r0, r2, r0
 80015e4:	7018      	strb	r0, [r3, #0]
 80015e6:	4770      	bx	lr
 80015e8:	4310      	orrs	r0, r2
 80015ea:	7018      	strb	r0, [r3, #0]
 80015ec:	4770      	bx	lr
 80015ee:	bf00      	nop

080015f0 <RCC_GetFlagStatus>:
 80015f0:	0943      	lsrs	r3, r0, #5
 80015f2:	2b01      	cmp	r3, #1
 80015f4:	d00e      	beq.n	8001614 <RCC_GetFlagStatus+0x24>
 80015f6:	f44f 5160 	mov.w	r1, #14336	; 0x3800
 80015fa:	f2c4 0102 	movt	r1, #16386	; 0x4002
 80015fe:	2b02      	cmp	r3, #2
 8001600:	bf0c      	ite	eq
 8001602:	6f09      	ldreq	r1, [r1, #112]	; 0x70
 8001604:	6f49      	ldrne	r1, [r1, #116]	; 0x74
 8001606:	f000 001f 	and.w	r0, r0, #31
 800160a:	fa21 f300 	lsr.w	r3, r1, r0
 800160e:	f003 0001 	and.w	r0, r3, #1
 8001612:	4770      	bx	lr
 8001614:	f44f 5260 	mov.w	r2, #14336	; 0x3800
 8001618:	f2c4 0202 	movt	r2, #16386	; 0x4002
 800161c:	6811      	ldr	r1, [r2, #0]
 800161e:	e7f2      	b.n	8001606 <RCC_GetFlagStatus+0x16>

08001620 <RCC_ClearFlag>:
 8001620:	f44f 5360 	mov.w	r3, #14336	; 0x3800
 8001624:	f2c4 0302 	movt	r3, #16386	; 0x4002
 8001628:	6f5a      	ldr	r2, [r3, #116]	; 0x74
 800162a:	f042 7080 	orr.w	r0, r2, #16777216	; 0x1000000
 800162e:	6758      	str	r0, [r3, #116]	; 0x74
 8001630:	4770      	bx	lr
 8001632:	bf00      	nop

08001634 <RCC_GetITStatus>:
 8001634:	f44f 5360 	mov.w	r3, #14336	; 0x3800
 8001638:	f2c4 0302 	movt	r3, #16386	; 0x4002
 800163c:	68d9      	ldr	r1, [r3, #12]
 800163e:	4208      	tst	r0, r1
 8001640:	bf0c      	ite	eq
 8001642:	2000      	moveq	r0, #0
 8001644:	2001      	movne	r0, #1
 8001646:	4770      	bx	lr

08001648 <RCC_ClearITPendingBit>:
 8001648:	f643 030e 	movw	r3, #14350	; 0x380e
 800164c:	f2c4 0302 	movt	r3, #16386	; 0x4002
 8001650:	7018      	strb	r0, [r3, #0]
 8001652:	4770      	bx	lr

08001654 <PWR_DeInit>:
 8001654:	b508      	push	{r3, lr}
 8001656:	2101      	movs	r1, #1
 8001658:	f04f 5080 	mov.w	r0, #268435456	; 0x10000000
 800165c:	f7ff ff58 	bl	8001510 <RCC_APB1PeriphResetCmd>
 8001660:	f04f 5080 	mov.w	r0, #268435456	; 0x10000000
 8001664:	2100      	movs	r1, #0
 8001666:	e8bd 4008 	ldmia.w	sp!, {r3, lr}
 800166a:	f7ff bf51 	b.w	8001510 <RCC_APB1PeriphResetCmd>
 800166e:	bf00      	nop

08001670 <PWR_BackupAccessCmd>:
 8001670:	2320      	movs	r3, #32
 8001672:	f2c4 230e 	movt	r3, #16910	; 0x420e
 8001676:	6018      	str	r0, [r3, #0]
 8001678:	4770      	bx	lr
 800167a:	bf00      	nop

0800167c <PWR_PVDLevelConfig>:
 800167c:	f44f 43e0 	mov.w	r3, #28672	; 0x7000
 8001680:	f2c4 0300 	movt	r3, #16384	; 0x4000
 8001684:	681a      	ldr	r2, [r3, #0]
 8001686:	f022 01e0 	bic.w	r1, r2, #224	; 0xe0
 800168a:	4308      	orrs	r0, r1
 800168c:	6018      	str	r0, [r3, #0]
 800168e:	4770      	bx	lr

08001690 <PWR_PVDCmd>:
 8001690:	2310      	movs	r3, #16
 8001692:	f2c4 230e 	movt	r3, #16910	; 0x420e
 8001696:	6018      	str	r0, [r3, #0]
 8001698:	4770      	bx	lr
 800169a:	bf00      	nop

0800169c <PWR_WakeUpPinCmd>:
 800169c:	23a0      	movs	r3, #160	; 0xa0
 800169e:	f2c4 230e 	movt	r3, #16910	; 0x420e
 80016a2:	6018      	str	r0, [r3, #0]
 80016a4:	4770      	bx	lr
 80016a6:	bf00      	nop

080016a8 <PWR_BackupRegulatorCmd>:
 80016a8:	23a4      	movs	r3, #164	; 0xa4
 80016aa:	f2c4 230e 	movt	r3, #16910	; 0x420e
 80016ae:	6018      	str	r0, [r3, #0]
 80016b0:	4770      	bx	lr
 80016b2:	bf00      	nop

080016b4 <PWR_MainRegulatorModeConfig>:
 80016b4:	f44f 43e0 	mov.w	r3, #28672	; 0x7000
 80016b8:	f2c4 0300 	movt	r3, #16384	; 0x4000
 80016bc:	681a      	ldr	r2, [r3, #0]
 80016be:	b118      	cbz	r0, 80016c8 <PWR_MainRegulatorModeConfig+0x14>
 80016c0:	f442 4080 	orr.w	r0, r2, #16384	; 0x4000
 80016c4:	6018      	str	r0, [r3, #0]
 80016c6:	4770      	bx	lr
 80016c8:	f422 4180 	bic.w	r1, r2, #16384	; 0x4000
 80016cc:	6019      	str	r1, [r3, #0]
 80016ce:	4770      	bx	lr

080016d0 <PWR_FlashPowerDownCmd>:
 80016d0:	2324      	movs	r3, #36	; 0x24
 80016d2:	f2c4 230e 	movt	r3, #16910	; 0x420e
 80016d6:	6018      	str	r0, [r3, #0]
 80016d8:	4770      	bx	lr
 80016da:	bf00      	nop

080016dc <PWR_EnterSTOPMode>:
 80016dc:	f44f 42e0 	mov.w	r2, #28672	; 0x7000
 80016e0:	f2c4 0200 	movt	r2, #16384	; 0x4000
 80016e4:	b410      	push	{r4}
 80016e6:	6814      	ldr	r4, [r2, #0]
 80016e8:	f44f 436d 	mov.w	r3, #60672	; 0xed00
 80016ec:	f024 0403 	bic.w	r4, r4, #3
 80016f0:	f2ce 0300 	movt	r3, #57344	; 0xe000
 80016f4:	4320      	orrs	r0, r4
 80016f6:	6010      	str	r0, [r2, #0]
 80016f8:	6918      	ldr	r0, [r3, #16]
 80016fa:	2901      	cmp	r1, #1
 80016fc:	f040 0204 	orr.w	r2, r0, #4
 8001700:	611a      	str	r2, [r3, #16]
 8001702:	d00a      	beq.n	800171a <PWR_EnterSTOPMode+0x3e>
 8001704:	bf20      	wfe
 8001706:	f44f 416d 	mov.w	r1, #60672	; 0xed00
 800170a:	f2ce 0100 	movt	r1, #57344	; 0xe000
 800170e:	690b      	ldr	r3, [r1, #16]
 8001710:	f023 0004 	bic.w	r0, r3, #4
 8001714:	6108      	str	r0, [r1, #16]
 8001716:	bc10      	pop	{r4}
 8001718:	4770      	bx	lr
 800171a:	bf30      	wfi
 800171c:	e7f3      	b.n	8001706 <PWR_EnterSTOPMode+0x2a>
 800171e:	bf00      	nop

08001720 <PWR_EnterSTANDBYMode>:
 8001720:	f44f 43e0 	mov.w	r3, #28672	; 0x7000
 8001724:	f2c4 0300 	movt	r3, #16384	; 0x4000
 8001728:	f44f 426d 	mov.w	r2, #60672	; 0xed00
 800172c:	6819      	ldr	r1, [r3, #0]
 800172e:	f041 0004 	orr.w	r0, r1, #4
 8001732:	6018      	str	r0, [r3, #0]
 8001734:	6819      	ldr	r1, [r3, #0]
 8001736:	f2ce 0200 	movt	r2, #57344	; 0xe000
 800173a:	f041 0002 	orr.w	r0, r1, #2
 800173e:	6018      	str	r0, [r3, #0]
 8001740:	6913      	ldr	r3, [r2, #16]
 8001742:	f043 0104 	orr.w	r1, r3, #4
 8001746:	6111      	str	r1, [r2, #16]
 8001748:	bf30      	wfi
 800174a:	4770      	bx	lr

0800174c <PWR_GetFlagStatus>:
 800174c:	f44f 43e0 	mov.w	r3, #28672	; 0x7000
 8001750:	f2c4 0300 	movt	r3, #16384	; 0x4000
 8001754:	6859      	ldr	r1, [r3, #4]
 8001756:	4208      	tst	r0, r1
 8001758:	bf0c      	ite	eq
 800175a:	2000      	moveq	r0, #0
 800175c:	2001      	movne	r0, #1
 800175e:	4770      	bx	lr

08001760 <PWR_ClearFlag>:
 8001760:	f44f 43e0 	mov.w	r3, #28672	; 0x7000
 8001764:	f2c4 0300 	movt	r3, #16384	; 0x4000
 8001768:	681a      	ldr	r2, [r3, #0]
 800176a:	ea42 0080 	orr.w	r0, r2, r0, lsl #2
 800176e:	6018      	str	r0, [r3, #0]
 8001770:	4770      	bx	lr
 8001772:	bf00      	nop

08001774 <SystemInit>:
 8001774:	f44f 426d 	mov.w	r2, #60672	; 0xed00
 8001778:	f2ce 0200 	movt	r2, #57344	; 0xe000
 800177c:	f44f 5360 	mov.w	r3, #14336	; 0x3800
 8001780:	f8d2 1088 	ldr.w	r1, [r2, #136]	; 0x88
 8001784:	f2c4 0302 	movt	r3, #16386	; 0x4002
 8001788:	f441 0070 	orr.w	r0, r1, #15728640	; 0xf00000
 800178c:	f8c2 0088 	str.w	r0, [r2, #136]	; 0x88
 8001790:	6819      	ldr	r1, [r3, #0]
 8001792:	2200      	movs	r2, #0
 8001794:	f041 0001 	orr.w	r0, r1, #1
 8001798:	6018      	str	r0, [r3, #0]
 800179a:	609a      	str	r2, [r3, #8]
 800179c:	6818      	ldr	r0, [r3, #0]
 800179e:	f243 0110 	movw	r1, #12304	; 0x3010
 80017a2:	f020 7084 	bic.w	r0, r0, #17301504	; 0x1080000
 80017a6:	f420 3080 	bic.w	r0, r0, #65536	; 0x10000
 80017aa:	f2c2 4100 	movt	r1, #9216	; 0x2400
 80017ae:	6018      	str	r0, [r3, #0]
 80017b0:	6059      	str	r1, [r3, #4]
 80017b2:	6819      	ldr	r1, [r3, #0]
 80017b4:	b082      	sub	sp, #8
 80017b6:	f421 2080 	bic.w	r0, r1, #262144	; 0x40000
 80017ba:	6018      	str	r0, [r3, #0]
 80017bc:	60da      	str	r2, [r3, #12]
 80017be:	9200      	str	r2, [sp, #0]
 80017c0:	9201      	str	r2, [sp, #4]
 80017c2:	681a      	ldr	r2, [r3, #0]
 80017c4:	f442 3180 	orr.w	r1, r2, #65536	; 0x10000
 80017c8:	6019      	str	r1, [r3, #0]
 80017ca:	4618      	mov	r0, r3
 80017cc:	e003      	b.n	80017d6 <SystemInit+0x62>
 80017ce:	9900      	ldr	r1, [sp, #0]
 80017d0:	f5b1 6fa0 	cmp.w	r1, #1280	; 0x500
 80017d4:	d009      	beq.n	80017ea <SystemInit+0x76>
 80017d6:	6803      	ldr	r3, [r0, #0]
 80017d8:	f403 3200 	and.w	r2, r3, #131072	; 0x20000
 80017dc:	9201      	str	r2, [sp, #4]
 80017de:	9900      	ldr	r1, [sp, #0]
 80017e0:	1c4b      	adds	r3, r1, #1
 80017e2:	9300      	str	r3, [sp, #0]
 80017e4:	9a01      	ldr	r2, [sp, #4]
 80017e6:	2a00      	cmp	r2, #0
 80017e8:	d0f1      	beq.n	80017ce <SystemInit+0x5a>
 80017ea:	f44f 5060 	mov.w	r0, #14336	; 0x3800
 80017ee:	f2c4 0002 	movt	r0, #16386	; 0x4002
 80017f2:	6803      	ldr	r3, [r0, #0]
 80017f4:	f413 3200 	ands.w	r2, r3, #131072	; 0x20000
 80017f8:	d00d      	beq.n	8001816 <SystemInit+0xa2>
 80017fa:	2101      	movs	r1, #1
 80017fc:	9101      	str	r1, [sp, #4]
 80017fe:	9801      	ldr	r0, [sp, #4]
 8001800:	2801      	cmp	r0, #1
 8001802:	d00c      	beq.n	800181e <SystemInit+0xaa>
 8001804:	f44f 436d 	mov.w	r3, #60672	; 0xed00
 8001808:	f2ce 0300 	movt	r3, #57344	; 0xe000
 800180c:	f04f 6100 	mov.w	r1, #134217728	; 0x8000000
 8001810:	6099      	str	r1, [r3, #8]
 8001812:	b002      	add	sp, #8
 8001814:	4770      	bx	lr
 8001816:	9201      	str	r2, [sp, #4]
 8001818:	9801      	ldr	r0, [sp, #4]
 800181a:	2801      	cmp	r0, #1
 800181c:	d1f2      	bne.n	8001804 <SystemInit+0x90>
 800181e:	f44f 5360 	mov.w	r3, #14336	; 0x3800
 8001822:	f2c4 0302 	movt	r3, #16386	; 0x4002
 8001826:	f44f 42e0 	mov.w	r2, #28672	; 0x7000
 800182a:	6c19      	ldr	r1, [r3, #64]	; 0x40
 800182c:	f2c4 0200 	movt	r2, #16384	; 0x4000
 8001830:	f041 5080 	orr.w	r0, r1, #268435456	; 0x10000000
 8001834:	6418      	str	r0, [r3, #64]	; 0x40
 8001836:	6811      	ldr	r1, [r2, #0]
 8001838:	f441 4080 	orr.w	r0, r1, #16384	; 0x4000
 800183c:	6010      	str	r0, [r2, #0]
 800183e:	689a      	ldr	r2, [r3, #8]
 8001840:	609a      	str	r2, [r3, #8]
 8001842:	6899      	ldr	r1, [r3, #8]
 8001844:	f441 4000 	orr.w	r0, r1, #32768	; 0x8000
 8001848:	6098      	str	r0, [r3, #8]
 800184a:	6899      	ldr	r1, [r3, #8]
 800184c:	f245 4208 	movw	r2, #21512	; 0x5408
 8001850:	f441 50a0 	orr.w	r0, r1, #5120	; 0x1400
 8001854:	f2c0 7240 	movt	r2, #1856	; 0x740
 8001858:	6098      	str	r0, [r3, #8]
 800185a:	605a      	str	r2, [r3, #4]
 800185c:	6819      	ldr	r1, [r3, #0]
 800185e:	f041 7280 	orr.w	r2, r1, #16777216	; 0x1000000
 8001862:	601a      	str	r2, [r3, #0]
 8001864:	4618      	mov	r0, r3
 8001866:	6801      	ldr	r1, [r0, #0]
 8001868:	f44f 5360 	mov.w	r3, #14336	; 0x3800
 800186c:	018a      	lsls	r2, r1, #6
 800186e:	f2c4 0302 	movt	r3, #16386	; 0x4002
 8001872:	d5f8      	bpl.n	8001866 <SystemInit+0xf2>
 8001874:	f44f 5270 	mov.w	r2, #15360	; 0x3c00
 8001878:	f2c4 0202 	movt	r2, #16386	; 0x4002
 800187c:	f240 6005 	movw	r0, #1541	; 0x605
 8001880:	6010      	str	r0, [r2, #0]
 8001882:	6899      	ldr	r1, [r3, #8]
 8001884:	f021 0203 	bic.w	r2, r1, #3
 8001888:	609a      	str	r2, [r3, #8]
 800188a:	6898      	ldr	r0, [r3, #8]
 800188c:	f040 0102 	orr.w	r1, r0, #2
 8001890:	6099      	str	r1, [r3, #8]
 8001892:	689a      	ldr	r2, [r3, #8]
 8001894:	f002 000c 	and.w	r0, r2, #12
 8001898:	2808      	cmp	r0, #8
 800189a:	d1fa      	bne.n	8001892 <SystemInit+0x11e>
 800189c:	e7b2      	b.n	8001804 <SystemInit+0x90>
 800189e:	bf00      	nop

080018a0 <SystemCoreClockUpdate>:
 80018a0:	f44f 5360 	mov.w	r3, #14336	; 0x3800
 80018a4:	f2c4 0302 	movt	r3, #16386	; 0x4002
 80018a8:	689a      	ldr	r2, [r3, #8]
 80018aa:	f002 000c 	and.w	r0, r2, #12
 80018ae:	2804      	cmp	r0, #4
 80018b0:	d012      	beq.n	80018d8 <SystemCoreClockUpdate+0x38>
 80018b2:	2808      	cmp	r0, #8
 80018b4:	d015      	beq.n	80018e2 <SystemCoreClockUpdate+0x42>
 80018b6:	f44f 5110 	mov.w	r1, #9216	; 0x2400
 80018ba:	f2c0 01f4 	movt	r1, #244	; 0xf4
 80018be:	f44f 5060 	mov.w	r0, #14336	; 0x3800
 80018c2:	f2c4 0002 	movt	r0, #16386	; 0x4002
 80018c6:	4b18      	ldr	r3, [pc, #96]	; (8001928 <SystemCoreClockUpdate+0x88>)
 80018c8:	6882      	ldr	r2, [r0, #8]
 80018ca:	f3c2 1003 	ubfx	r0, r2, #4, #4
 80018ce:	5c1a      	ldrb	r2, [r3, r0]
 80018d0:	fa21 f102 	lsr.w	r1, r1, r2
 80018d4:	6119      	str	r1, [r3, #16]
 80018d6:	4770      	bx	lr
 80018d8:	f44f 5190 	mov.w	r1, #4608	; 0x1200
 80018dc:	f2c0 017a 	movt	r1, #122	; 0x7a
 80018e0:	e7ed      	b.n	80018be <SystemCoreClockUpdate+0x1e>
 80018e2:	6858      	ldr	r0, [r3, #4]
 80018e4:	685a      	ldr	r2, [r3, #4]
 80018e6:	f410 0f80 	tst.w	r0, #4194304	; 0x400000
 80018ea:	6858      	ldr	r0, [r3, #4]
 80018ec:	f002 013f 	and.w	r1, r2, #63	; 0x3f
 80018f0:	bf14      	ite	ne
 80018f2:	f44f 5390 	movne.w	r3, #4608	; 0x1200
 80018f6:	f44f 5310 	moveq.w	r3, #9216	; 0x2400
 80018fa:	f3c0 1288 	ubfx	r2, r0, #6, #9
 80018fe:	f44f 5060 	mov.w	r0, #14336	; 0x3800
 8001902:	bf14      	ite	ne
 8001904:	f2c0 037a 	movtne	r3, #122	; 0x7a
 8001908:	f2c0 03f4 	movteq	r3, #244	; 0xf4
 800190c:	f2c4 0002 	movt	r0, #16386	; 0x4002
 8001910:	fbb3 f3f1 	udiv	r3, r3, r1
 8001914:	fb03 f102 	mul.w	r1, r3, r2
 8001918:	6842      	ldr	r2, [r0, #4]
 800191a:	f3c2 4301 	ubfx	r3, r2, #16, #2
 800191e:	1c58      	adds	r0, r3, #1
 8001920:	0042      	lsls	r2, r0, #1
 8001922:	fbb1 f1f2 	udiv	r1, r1, r2
 8001926:	e7ca      	b.n	80018be <SystemCoreClockUpdate+0x1e>
 8001928:	20000010 	.word	0x20000010

0800192c <NMI_Handler>:
 800192c:	4770      	bx	lr
 800192e:	bf00      	nop

08001930 <HardFault_Handler>:
 8001930:	e7fe      	b.n	8001930 <HardFault_Handler>
 8001932:	bf00      	nop

08001934 <MemManage_Handler>:
 8001934:	e7fe      	b.n	8001934 <MemManage_Handler>
 8001936:	bf00      	nop

08001938 <BusFault_Handler>:
 8001938:	e7fe      	b.n	8001938 <BusFault_Handler>
 800193a:	bf00      	nop

0800193c <UsageFault_Handler>:
 800193c:	e7fe      	b.n	800193c <UsageFault_Handler>
 800193e:	bf00      	nop

08001940 <SVC_Handler>:
 8001940:	4770      	bx	lr
 8001942:	bf00      	nop

08001944 <DebugMon_Handler>:
 8001944:	4770      	bx	lr
 8001946:	bf00      	nop

08001948 <PendSV_Handler>:
 8001948:	4770      	bx	lr
 800194a:	bf00      	nop

0800194c <SysTick_Handler>:
 800194c:	f000 b800 	b.w	8001950 <rt_OneStep>

08001950 <rt_OneStep>:
 8001950:	f240 0224 	movw	r2, #36	; 0x24
 8001954:	f2c2 0200 	movt	r2, #8192	; 0x2000
 8001958:	f640 03f8 	movw	r3, #2296	; 0x8f8
 800195c:	f2c2 0300 	movt	r3, #8192	; 0x2000
 8001960:	2101      	movs	r1, #1
 8001962:	6011      	str	r1, [r2, #0]
 8001964:	6818      	ldr	r0, [r3, #0]
 8001966:	1842      	adds	r2, r0, r1
 8001968:	601a      	str	r2, [r3, #0]
 800196a:	4770      	bx	lr

0800196c <main>:
 800196c:	b570      	push	{r4, r5, r6, lr}
 800196e:	f001 ff8f 	bl	8003890 <balanceLQR_initialize>
 8001972:	f24e 0310 	movw	r3, #57360	; 0xe010
 8001976:	f44f 416d 	mov.w	r1, #60672	; 0xed00
 800197a:	f2ce 0300 	movt	r3, #57344	; 0xe000
 800197e:	f2ce 0100 	movt	r1, #57344	; 0xe000
 8001982:	f24a 207f 	movw	r0, #41599	; 0xa27f
 8001986:	25f0      	movs	r5, #240	; 0xf0
 8001988:	4c09      	ldr	r4, [pc, #36]	; (80019b0 <main+0x44>)
 800198a:	f2c0 0019 	movt	r0, #25
 800198e:	6058      	str	r0, [r3, #4]
 8001990:	2200      	movs	r2, #0
 8001992:	f881 5023 	strb.w	r5, [r1, #35]	; 0x23
 8001996:	2107      	movs	r1, #7
 8001998:	609a      	str	r2, [r3, #8]
 800199a:	4626      	mov	r6, r4
 800199c:	4615      	mov	r5, r2
 800199e:	6019      	str	r1, [r3, #0]
 80019a0:	6823      	ldr	r3, [r4, #0]
 80019a2:	2b00      	cmp	r3, #0
 80019a4:	d0fc      	beq.n	80019a0 <main+0x34>
 80019a6:	6035      	str	r5, [r6, #0]
 80019a8:	f001 fd18 	bl	80033dc <balanceLQR_step>
 80019ac:	e7f8      	b.n	80019a0 <main+0x34>
 80019ae:	bf00      	nop
 80019b0:	20000024 	.word	0x20000024
 80019b4:	00000000 	.word	0x00000000

080019b8 <pulsetoangle1_Outputs_wrapper>:
 80019b8:	6800      	ldr	r0, [r0, #0]
 80019ba:	b510      	push	{r4, lr}
 80019bc:	0040      	lsls	r0, r0, #1
 80019be:	460c      	mov	r4, r1
 80019c0:	f002 fbb4 	bl	800412c <__aeabi_i2d>
 80019c4:	a306      	add	r3, pc, #24	; (adr r3, 80019e0 <pulsetoangle1_Outputs_wrapper+0x28>)
 80019c6:	e9d3 2300 	ldrd	r2, r3, [r3]
 80019ca:	f002 fc15 	bl	80041f8 <__aeabi_dmul>
 80019ce:	a306      	add	r3, pc, #24	; (adr r3, 80019e8 <pulsetoangle1_Outputs_wrapper+0x30>)
 80019d0:	e9d3 2300 	ldrd	r2, r3, [r3]
 80019d4:	f002 fa5e 	bl	8003e94 <__adddf3>
 80019d8:	e9c4 0100 	strd	r0, r1, [r4]
 80019dc:	bd10      	pop	{r4, pc}
 80019de:	bf00      	nop
 80019e0:	b68b71c3 	.word	0xb68b71c3
 80019e4:	3f49bc65 	.word	0x3f49bc65
 80019e8:	54442d18 	.word	0x54442d18
 80019ec:	400921fb 	.word	0x400921fb

080019f0 <NVIC_PriorityGroupConfig>:
 80019f0:	f44f 436d 	mov.w	r3, #60672	; 0xed00
 80019f4:	f040 60bf 	orr.w	r0, r0, #100139008	; 0x5f80000
 80019f8:	f2ce 0300 	movt	r3, #57344	; 0xe000
 80019fc:	f440 3100 	orr.w	r1, r0, #131072	; 0x20000
 8001a00:	60d9      	str	r1, [r3, #12]
 8001a02:	4770      	bx	lr

08001a04 <NVIC_Init>:
 8001a04:	78c3      	ldrb	r3, [r0, #3]
 8001a06:	b430      	push	{r4, r5}
 8001a08:	b97b      	cbnz	r3, 8001a2a <NVIC_Init+0x26>
 8001a0a:	7802      	ldrb	r2, [r0, #0]
 8001a0c:	f44f 4361 	mov.w	r3, #57600	; 0xe100
 8001a10:	0951      	lsrs	r1, r2, #5
 8001a12:	f2ce 0300 	movt	r3, #57344	; 0xe000
 8001a16:	f002 021f 	and.w	r2, r2, #31
 8001a1a:	3120      	adds	r1, #32
 8001a1c:	2001      	movs	r0, #1
 8001a1e:	fa00 f202 	lsl.w	r2, r0, r2
 8001a22:	f843 2021 	str.w	r2, [r3, r1, lsl #2]
 8001a26:	bc30      	pop	{r4, r5}
 8001a28:	4770      	bx	lr
 8001a2a:	f44f 446d 	mov.w	r4, #60672	; 0xed00
 8001a2e:	f2ce 0400 	movt	r4, #57344	; 0xe000
 8001a32:	7845      	ldrb	r5, [r0, #1]
 8001a34:	68e1      	ldr	r1, [r4, #12]
 8001a36:	7884      	ldrb	r4, [r0, #2]
 8001a38:	7803      	ldrb	r3, [r0, #0]
 8001a3a:	43ca      	mvns	r2, r1
 8001a3c:	f3c2 2202 	ubfx	r2, r2, #8, #3
 8001a40:	f1c2 0104 	rsb	r1, r2, #4
 8001a44:	b2c9      	uxtb	r1, r1
 8001a46:	fa05 f101 	lsl.w	r1, r5, r1
 8001a4a:	250f      	movs	r5, #15
 8001a4c:	fa45 f202 	asr.w	r2, r5, r2
 8001a50:	b2c9      	uxtb	r1, r1
 8001a52:	4022      	ands	r2, r4
 8001a54:	430a      	orrs	r2, r1
 8001a56:	f103 4360 	add.w	r3, r3, #3758096384	; 0xe0000000
 8001a5a:	0111      	lsls	r1, r2, #4
 8001a5c:	f503 4361 	add.w	r3, r3, #57600	; 0xe100
 8001a60:	b2ca      	uxtb	r2, r1
 8001a62:	f883 2300 	strb.w	r2, [r3, #768]	; 0x300
 8001a66:	7800      	ldrb	r0, [r0, #0]
 8001a68:	f44f 4361 	mov.w	r3, #57600	; 0xe100
 8001a6c:	0941      	lsrs	r1, r0, #5
 8001a6e:	f000 021f 	and.w	r2, r0, #31
 8001a72:	f2ce 0300 	movt	r3, #57344	; 0xe000
 8001a76:	2001      	movs	r0, #1
 8001a78:	fa00 f202 	lsl.w	r2, r0, r2
 8001a7c:	f843 2021 	str.w	r2, [r3, r1, lsl #2]
 8001a80:	e7d1      	b.n	8001a26 <NVIC_Init+0x22>
 8001a82:	bf00      	nop

08001a84 <NVIC_SetVectorTable>:
 8001a84:	f021 4160 	bic.w	r1, r1, #3758096384	; 0xe0000000
 8001a88:	f44f 436d 	mov.w	r3, #60672	; 0xed00
 8001a8c:	f021 027f 	bic.w	r2, r1, #127	; 0x7f
 8001a90:	f2ce 0300 	movt	r3, #57344	; 0xe000
 8001a94:	4310      	orrs	r0, r2
 8001a96:	6098      	str	r0, [r3, #8]
 8001a98:	4770      	bx	lr
 8001a9a:	bf00      	nop

08001a9c <NVIC_SystemLPConfig>:
 8001a9c:	f44f 436d 	mov.w	r3, #60672	; 0xed00
 8001aa0:	f2ce 0300 	movt	r3, #57344	; 0xe000
 8001aa4:	691a      	ldr	r2, [r3, #16]
 8001aa6:	b919      	cbnz	r1, 8001ab0 <NVIC_SystemLPConfig+0x14>
 8001aa8:	ea22 0000 	bic.w	r0, r2, r0
 8001aac:	6118      	str	r0, [r3, #16]
 8001aae:	4770      	bx	lr
 8001ab0:	4310      	orrs	r0, r2
 8001ab2:	6118      	str	r0, [r3, #16]
 8001ab4:	4770      	bx	lr
 8001ab6:	bf00      	nop

08001ab8 <SysTick_CLKSourceConfig>:
 8001ab8:	f24e 0310 	movw	r3, #57360	; 0xe010
 8001abc:	f2ce 0300 	movt	r3, #57344	; 0xe000
 8001ac0:	2804      	cmp	r0, #4
 8001ac2:	681a      	ldr	r2, [r3, #0]
 8001ac4:	bf0c      	ite	eq
 8001ac6:	f042 0204 	orreq.w	r2, r2, #4
 8001aca:	f022 0204 	bicne.w	r2, r2, #4
 8001ace:	601a      	str	r2, [r3, #0]
 8001ad0:	4770      	bx	lr
 8001ad2:	bf00      	nop

08001ad4 <DMA_DeInit>:
 8001ad4:	6801      	ldr	r1, [r0, #0]
 8001ad6:	f246 0210 	movw	r2, #24592	; 0x6010
 8001ada:	2300      	movs	r3, #0
 8001adc:	f021 0101 	bic.w	r1, r1, #1
 8001ae0:	f2c4 0202 	movt	r2, #16386	; 0x4002
 8001ae4:	6001      	str	r1, [r0, #0]
 8001ae6:	6003      	str	r3, [r0, #0]
 8001ae8:	6043      	str	r3, [r0, #4]
 8001aea:	6083      	str	r3, [r0, #8]
 8001aec:	60c3      	str	r3, [r0, #12]
 8001aee:	6103      	str	r3, [r0, #16]
 8001af0:	2321      	movs	r3, #33	; 0x21
 8001af2:	4290      	cmp	r0, r2
 8001af4:	6143      	str	r3, [r0, #20]
 8001af6:	d065      	beq.n	8001bc4 <DMA_DeInit+0xf0>
 8001af8:	f246 0228 	movw	r2, #24616	; 0x6028
 8001afc:	f2c4 0202 	movt	r2, #16386	; 0x4002
 8001b00:	4290      	cmp	r0, r2
 8001b02:	d066      	beq.n	8001bd2 <DMA_DeInit+0xfe>
 8001b04:	f246 0140 	movw	r1, #24640	; 0x6040
 8001b08:	f2c4 0102 	movt	r1, #16386	; 0x4002
 8001b0c:	4288      	cmp	r0, r1
 8001b0e:	d068      	beq.n	8001be2 <DMA_DeInit+0x10e>
 8001b10:	f246 0358 	movw	r3, #24664	; 0x6058
 8001b14:	f2c4 0302 	movt	r3, #16386	; 0x4002
 8001b18:	4298      	cmp	r0, r3
 8001b1a:	d06a      	beq.n	8001bf2 <DMA_DeInit+0x11e>
 8001b1c:	f246 0270 	movw	r2, #24688	; 0x6070
 8001b20:	f2c4 0202 	movt	r2, #16386	; 0x4002
 8001b24:	4290      	cmp	r0, r2
 8001b26:	d06c      	beq.n	8001c02 <DMA_DeInit+0x12e>
 8001b28:	f246 0188 	movw	r1, #24712	; 0x6088
 8001b2c:	f2c4 0102 	movt	r1, #16386	; 0x4002
 8001b30:	4288      	cmp	r0, r1
 8001b32:	d06f      	beq.n	8001c14 <DMA_DeInit+0x140>
 8001b34:	f246 03a0 	movw	r3, #24736	; 0x60a0
 8001b38:	f2c4 0302 	movt	r3, #16386	; 0x4002
 8001b3c:	4298      	cmp	r0, r3
 8001b3e:	d038      	beq.n	8001bb2 <DMA_DeInit+0xde>
 8001b40:	f246 02b8 	movw	r2, #24760	; 0x60b8
 8001b44:	f2c4 0202 	movt	r2, #16386	; 0x4002
 8001b48:	4290      	cmp	r0, r2
 8001b4a:	d075      	beq.n	8001c38 <DMA_DeInit+0x164>
 8001b4c:	f246 4110 	movw	r1, #25616	; 0x6410
 8001b50:	f2c4 0102 	movt	r1, #16386	; 0x4002
 8001b54:	4288      	cmp	r0, r1
 8001b56:	d077      	beq.n	8001c48 <DMA_DeInit+0x174>
 8001b58:	f246 4328 	movw	r3, #25640	; 0x6428
 8001b5c:	f2c4 0302 	movt	r3, #16386	; 0x4002
 8001b60:	4298      	cmp	r0, r3
 8001b62:	d078      	beq.n	8001c56 <DMA_DeInit+0x182>
 8001b64:	f246 4240 	movw	r2, #25664	; 0x6440
 8001b68:	f2c4 0202 	movt	r2, #16386	; 0x4002
 8001b6c:	4290      	cmp	r0, r2
 8001b6e:	d07a      	beq.n	8001c66 <DMA_DeInit+0x192>
 8001b70:	f246 4158 	movw	r1, #25688	; 0x6458
 8001b74:	f2c4 0102 	movt	r1, #16386	; 0x4002
 8001b78:	4288      	cmp	r0, r1
 8001b7a:	d07c      	beq.n	8001c76 <DMA_DeInit+0x1a2>
 8001b7c:	f246 4370 	movw	r3, #25712	; 0x6470
 8001b80:	f2c4 0302 	movt	r3, #16386	; 0x4002
 8001b84:	4298      	cmp	r0, r3
 8001b86:	d07e      	beq.n	8001c86 <DMA_DeInit+0x1b2>
 8001b88:	f246 4288 	movw	r2, #25736	; 0x6488
 8001b8c:	f2c4 0202 	movt	r2, #16386	; 0x4002
 8001b90:	4290      	cmp	r0, r2
 8001b92:	f000 8081 	beq.w	8001c98 <DMA_DeInit+0x1c4>
 8001b96:	f246 41a0 	movw	r1, #25760	; 0x64a0
 8001b9a:	f2c4 0102 	movt	r1, #16386	; 0x4002
 8001b9e:	4288      	cmp	r0, r1
 8001ba0:	f000 8084 	beq.w	8001cac <DMA_DeInit+0x1d8>
 8001ba4:	f246 43b8 	movw	r3, #25784	; 0x64b8
 8001ba8:	f2c4 0302 	movt	r3, #16386	; 0x4002
 8001bac:	4298      	cmp	r0, r3
 8001bae:	d03b      	beq.n	8001c28 <DMA_DeInit+0x154>
 8001bb0:	4770      	bx	lr
 8001bb2:	f44f 41c0 	mov.w	r1, #24576	; 0x6000
 8001bb6:	f2c4 0102 	movt	r1, #16386	; 0x4002
 8001bba:	2300      	movs	r3, #0
 8001bbc:	f2c2 033d 	movt	r3, #8253	; 0x203d
 8001bc0:	60cb      	str	r3, [r1, #12]
 8001bc2:	4770      	bx	lr
 8001bc4:	f44f 41c0 	mov.w	r1, #24576	; 0x6000
 8001bc8:	f2c4 0102 	movt	r1, #16386	; 0x4002
 8001bcc:	233d      	movs	r3, #61	; 0x3d
 8001bce:	608b      	str	r3, [r1, #8]
 8001bd0:	4770      	bx	lr
 8001bd2:	f44f 40c0 	mov.w	r0, #24576	; 0x6000
 8001bd6:	f2c4 0002 	movt	r0, #16386	; 0x4002
 8001bda:	f44f 6274 	mov.w	r2, #3904	; 0xf40
 8001bde:	6082      	str	r2, [r0, #8]
 8001be0:	4770      	bx	lr
 8001be2:	f44f 41c0 	mov.w	r1, #24576	; 0x6000
 8001be6:	f2c4 0102 	movt	r1, #16386	; 0x4002
 8001bea:	f44f 1374 	mov.w	r3, #3997696	; 0x3d0000
 8001bee:	608b      	str	r3, [r1, #8]
 8001bf0:	4770      	bx	lr
 8001bf2:	f44f 40c0 	mov.w	r0, #24576	; 0x6000
 8001bf6:	f2c4 0002 	movt	r0, #16386	; 0x4002
 8001bfa:	f04f 6274 	mov.w	r2, #255852544	; 0xf400000
 8001bfe:	6082      	str	r2, [r0, #8]
 8001c00:	4770      	bx	lr
 8001c02:	f44f 41c0 	mov.w	r1, #24576	; 0x6000
 8001c06:	f2c4 0102 	movt	r1, #16386	; 0x4002
 8001c0a:	233d      	movs	r3, #61	; 0x3d
 8001c0c:	f2c2 0300 	movt	r3, #8192	; 0x2000
 8001c10:	60cb      	str	r3, [r1, #12]
 8001c12:	4770      	bx	lr
 8001c14:	f44f 40c0 	mov.w	r0, #24576	; 0x6000
 8001c18:	f2c4 0002 	movt	r0, #16386	; 0x4002
 8001c1c:	f44f 6274 	mov.w	r2, #3904	; 0xf40
 8001c20:	f2c2 0200 	movt	r2, #8192	; 0x2000
 8001c24:	60c2      	str	r2, [r0, #12]
 8001c26:	4770      	bx	lr
 8001c28:	f44f 40c8 	mov.w	r0, #25600	; 0x6400
 8001c2c:	f2c4 0002 	movt	r0, #16386	; 0x4002
 8001c30:	f04f 523d 	mov.w	r2, #792723456	; 0x2f400000
 8001c34:	60c2      	str	r2, [r0, #12]
 8001c36:	e7bb      	b.n	8001bb0 <DMA_DeInit+0xdc>
 8001c38:	f44f 40c0 	mov.w	r0, #24576	; 0x6000
 8001c3c:	f2c4 0002 	movt	r0, #16386	; 0x4002
 8001c40:	f04f 523d 	mov.w	r2, #792723456	; 0x2f400000
 8001c44:	60c2      	str	r2, [r0, #12]
 8001c46:	4770      	bx	lr
 8001c48:	f44f 41c8 	mov.w	r1, #25600	; 0x6400
 8001c4c:	f2c4 0102 	movt	r1, #16386	; 0x4002
 8001c50:	233d      	movs	r3, #61	; 0x3d
 8001c52:	608b      	str	r3, [r1, #8]
 8001c54:	4770      	bx	lr
 8001c56:	f44f 40c8 	mov.w	r0, #25600	; 0x6400
 8001c5a:	f2c4 0002 	movt	r0, #16386	; 0x4002
 8001c5e:	f44f 6274 	mov.w	r2, #3904	; 0xf40
 8001c62:	6082      	str	r2, [r0, #8]
 8001c64:	4770      	bx	lr
 8001c66:	f44f 41c8 	mov.w	r1, #25600	; 0x6400
 8001c6a:	f2c4 0102 	movt	r1, #16386	; 0x4002
 8001c6e:	f44f 1374 	mov.w	r3, #3997696	; 0x3d0000
 8001c72:	608b      	str	r3, [r1, #8]
 8001c74:	4770      	bx	lr
 8001c76:	f44f 40c8 	mov.w	r0, #25600	; 0x6400
 8001c7a:	f2c4 0002 	movt	r0, #16386	; 0x4002
 8001c7e:	f04f 6274 	mov.w	r2, #255852544	; 0xf400000
 8001c82:	6082      	str	r2, [r0, #8]
 8001c84:	4770      	bx	lr
 8001c86:	f44f 41c8 	mov.w	r1, #25600	; 0x6400
 8001c8a:	f2c4 0102 	movt	r1, #16386	; 0x4002
 8001c8e:	233d      	movs	r3, #61	; 0x3d
 8001c90:	f2c2 0300 	movt	r3, #8192	; 0x2000
 8001c94:	60cb      	str	r3, [r1, #12]
 8001c96:	4770      	bx	lr
 8001c98:	f44f 40c8 	mov.w	r0, #25600	; 0x6400
 8001c9c:	f2c4 0002 	movt	r0, #16386	; 0x4002
 8001ca0:	f44f 6274 	mov.w	r2, #3904	; 0xf40
 8001ca4:	f2c2 0200 	movt	r2, #8192	; 0x2000
 8001ca8:	60c2      	str	r2, [r0, #12]
 8001caa:	4770      	bx	lr
 8001cac:	f44f 41c8 	mov.w	r1, #25600	; 0x6400
 8001cb0:	f2c4 0102 	movt	r1, #16386	; 0x4002
 8001cb4:	2300      	movs	r3, #0
 8001cb6:	f2c2 033d 	movt	r3, #8253	; 0x203d
 8001cba:	60cb      	str	r3, [r1, #12]
 8001cbc:	4770      	bx	lr
 8001cbe:	bf00      	nop

08001cc0 <DMA_Init>:
 8001cc0:	e92d 0ff0 	stmdb	sp!, {r4, r5, r6, r7, r8, r9, sl, fp}
 8001cc4:	f8d1 b00c 	ldr.w	fp, [r1, #12]
 8001cc8:	f8d1 a000 	ldr.w	sl, [r1]
 8001ccc:	f8d1 9014 	ldr.w	r9, [r1, #20]
 8001cd0:	f8d1 8018 	ldr.w	r8, [r1, #24]
 8001cd4:	f8d1 c01c 	ldr.w	ip, [r1, #28]
 8001cd8:	6a0f      	ldr	r7, [r1, #32]
 8001cda:	6b4b      	ldr	r3, [r1, #52]	; 0x34
 8001cdc:	6a4e      	ldr	r6, [r1, #36]	; 0x24
 8001cde:	6a8d      	ldr	r5, [r1, #40]	; 0x28
 8001ce0:	6802      	ldr	r2, [r0, #0]
 8001ce2:	6b8c      	ldr	r4, [r1, #56]	; 0x38
 8001ce4:	ea4b 0a0a 	orr.w	sl, fp, sl
 8001ce8:	ea4a 0909 	orr.w	r9, sl, r9
 8001cec:	ea49 0a08 	orr.w	sl, r9, r8
 8001cf0:	b084      	sub	sp, #16
 8001cf2:	ea4a 0a0c 	orr.w	sl, sl, ip
 8001cf6:	ea4a 0707 	orr.w	r7, sl, r7
 8001cfa:	9301      	str	r3, [sp, #4]
 8001cfc:	433e      	orrs	r6, r7
 8001cfe:	4335      	orrs	r5, r6
 8001d00:	9e01      	ldr	r6, [sp, #4]
 8001d02:	9200      	str	r2, [sp, #0]
 8001d04:	4335      	orrs	r5, r6
 8001d06:	f248 0c3f 	movw	ip, #32831	; 0x803f
 8001d0a:	9e00      	ldr	r6, [sp, #0]
 8001d0c:	9402      	str	r4, [sp, #8]
 8001d0e:	f2cf 0c1c 	movt	ip, #61468	; 0xf01c
 8001d12:	ea06 090c 	and.w	r9, r6, ip
 8001d16:	9e02      	ldr	r6, [sp, #8]
 8001d18:	6b0b      	ldr	r3, [r1, #48]	; 0x30
 8001d1a:	6acc      	ldr	r4, [r1, #44]	; 0x2c
 8001d1c:	690a      	ldr	r2, [r1, #16]
 8001d1e:	9303      	str	r3, [sp, #12]
 8001d20:	4335      	orrs	r5, r6
 8001d22:	ea45 0509 	orr.w	r5, r5, r9
 8001d26:	684b      	ldr	r3, [r1, #4]
 8001d28:	6889      	ldr	r1, [r1, #8]
 8001d2a:	6005      	str	r5, [r0, #0]
 8001d2c:	6945      	ldr	r5, [r0, #20]
 8001d2e:	9e03      	ldr	r6, [sp, #12]
 8001d30:	f025 0507 	bic.w	r5, r5, #7
 8001d34:	4334      	orrs	r4, r6
 8001d36:	432c      	orrs	r4, r5
 8001d38:	6144      	str	r4, [r0, #20]
 8001d3a:	6042      	str	r2, [r0, #4]
 8001d3c:	6083      	str	r3, [r0, #8]
 8001d3e:	60c1      	str	r1, [r0, #12]
 8001d40:	b004      	add	sp, #16
 8001d42:	e8bd 0ff0 	ldmia.w	sp!, {r4, r5, r6, r7, r8, r9, sl, fp}
 8001d46:	4770      	bx	lr

08001d48 <DMA_StructInit>:
 8001d48:	2300      	movs	r3, #0
 8001d4a:	6003      	str	r3, [r0, #0]
 8001d4c:	6043      	str	r3, [r0, #4]
 8001d4e:	6083      	str	r3, [r0, #8]
 8001d50:	60c3      	str	r3, [r0, #12]
 8001d52:	6103      	str	r3, [r0, #16]
 8001d54:	6143      	str	r3, [r0, #20]
 8001d56:	6183      	str	r3, [r0, #24]
 8001d58:	61c3      	str	r3, [r0, #28]
 8001d5a:	6203      	str	r3, [r0, #32]
 8001d5c:	6243      	str	r3, [r0, #36]	; 0x24
 8001d5e:	6283      	str	r3, [r0, #40]	; 0x28
 8001d60:	62c3      	str	r3, [r0, #44]	; 0x2c
 8001d62:	6303      	str	r3, [r0, #48]	; 0x30
 8001d64:	6343      	str	r3, [r0, #52]	; 0x34
 8001d66:	6383      	str	r3, [r0, #56]	; 0x38
 8001d68:	4770      	bx	lr
 8001d6a:	bf00      	nop

08001d6c <DMA_Cmd>:
 8001d6c:	6803      	ldr	r3, [r0, #0]
 8001d6e:	b919      	cbnz	r1, 8001d78 <DMA_Cmd+0xc>
 8001d70:	f023 0101 	bic.w	r1, r3, #1
 8001d74:	6001      	str	r1, [r0, #0]
 8001d76:	4770      	bx	lr
 8001d78:	f043 0201 	orr.w	r2, r3, #1
 8001d7c:	6002      	str	r2, [r0, #0]
 8001d7e:	4770      	bx	lr

08001d80 <DMA_PeriphIncOffsetSizeConfig>:
 8001d80:	6803      	ldr	r3, [r0, #0]
 8001d82:	b919      	cbnz	r1, 8001d8c <DMA_PeriphIncOffsetSizeConfig+0xc>
 8001d84:	f423 4100 	bic.w	r1, r3, #32768	; 0x8000
 8001d88:	6001      	str	r1, [r0, #0]
 8001d8a:	4770      	bx	lr
 8001d8c:	f443 4200 	orr.w	r2, r3, #32768	; 0x8000
 8001d90:	6002      	str	r2, [r0, #0]
 8001d92:	4770      	bx	lr

08001d94 <DMA_FlowControllerConfig>:
 8001d94:	6803      	ldr	r3, [r0, #0]
 8001d96:	b919      	cbnz	r1, 8001da0 <DMA_FlowControllerConfig+0xc>
 8001d98:	f023 0120 	bic.w	r1, r3, #32
 8001d9c:	6001      	str	r1, [r0, #0]
 8001d9e:	4770      	bx	lr
 8001da0:	f043 0220 	orr.w	r2, r3, #32
 8001da4:	6002      	str	r2, [r0, #0]
 8001da6:	4770      	bx	lr

08001da8 <DMA_SetCurrDataCounter>:
 8001da8:	6041      	str	r1, [r0, #4]
 8001daa:	4770      	bx	lr

08001dac <DMA_GetCurrDataCounter>:
 8001dac:	6840      	ldr	r0, [r0, #4]
 8001dae:	b280      	uxth	r0, r0
 8001db0:	4770      	bx	lr
 8001db2:	bf00      	nop

08001db4 <DMA_DoubleBufferModeConfig>:
 8001db4:	6803      	ldr	r3, [r0, #0]
 8001db6:	b922      	cbnz	r2, 8001dc2 <DMA_DoubleBufferModeConfig+0xe>
 8001db8:	f423 2200 	bic.w	r2, r3, #524288	; 0x80000
 8001dbc:	6002      	str	r2, [r0, #0]
 8001dbe:	6101      	str	r1, [r0, #16]
 8001dc0:	4770      	bx	lr
 8001dc2:	f443 2300 	orr.w	r3, r3, #524288	; 0x80000
 8001dc6:	6003      	str	r3, [r0, #0]
 8001dc8:	6101      	str	r1, [r0, #16]
 8001dca:	4770      	bx	lr

08001dcc <DMA_DoubleBufferModeCmd>:
 8001dcc:	6803      	ldr	r3, [r0, #0]
 8001dce:	b919      	cbnz	r1, 8001dd8 <DMA_DoubleBufferModeCmd+0xc>
 8001dd0:	f423 2180 	bic.w	r1, r3, #262144	; 0x40000
 8001dd4:	6001      	str	r1, [r0, #0]
 8001dd6:	4770      	bx	lr
 8001dd8:	f443 2280 	orr.w	r2, r3, #262144	; 0x40000
 8001ddc:	6002      	str	r2, [r0, #0]
 8001dde:	4770      	bx	lr

08001de0 <DMA_MemoryTargetConfig>:
 8001de0:	b90a      	cbnz	r2, 8001de6 <DMA_MemoryTargetConfig+0x6>
 8001de2:	60c1      	str	r1, [r0, #12]
 8001de4:	4770      	bx	lr
 8001de6:	6101      	str	r1, [r0, #16]
 8001de8:	4770      	bx	lr
 8001dea:	bf00      	nop

08001dec <DMA_GetCurrentMemoryTarget>:
 8001dec:	6800      	ldr	r0, [r0, #0]
 8001dee:	f3c0 40c0 	ubfx	r0, r0, #19, #1
 8001df2:	4770      	bx	lr

08001df4 <DMA_GetCmdStatus>:
 8001df4:	6800      	ldr	r0, [r0, #0]
 8001df6:	f000 0001 	and.w	r0, r0, #1
 8001dfa:	4770      	bx	lr

08001dfc <DMA_GetFIFOStatus>:
 8001dfc:	6940      	ldr	r0, [r0, #20]
 8001dfe:	f000 0038 	and.w	r0, r0, #56	; 0x38
 8001e02:	4770      	bx	lr

08001e04 <DMA_GetFlagStatus>:
 8001e04:	b410      	push	{r4}
 8001e06:	f44f 42c8 	mov.w	r2, #25600	; 0x6400
 8001e0a:	f246 440f 	movw	r4, #25615	; 0x640f
 8001e0e:	f44f 43c0 	mov.w	r3, #24576	; 0x6000
 8001e12:	f2c4 0202 	movt	r2, #16386	; 0x4002
 8001e16:	f2c4 0402 	movt	r4, #16386	; 0x4002
 8001e1a:	f2c4 0302 	movt	r3, #16386	; 0x4002
 8001e1e:	42a0      	cmp	r0, r4
 8001e20:	bf8c      	ite	hi
 8001e22:	4610      	movhi	r0, r2
 8001e24:	4618      	movls	r0, r3
 8001e26:	008a      	lsls	r2, r1, #2
 8001e28:	bf4c      	ite	mi
 8001e2a:	6842      	ldrmi	r2, [r0, #4]
 8001e2c:	6802      	ldrpl	r2, [r0, #0]
 8001e2e:	f021 21f0 	bic.w	r1, r1, #4026593280	; 0xf000f000
 8001e32:	f021 1382 	bic.w	r3, r1, #8519810	; 0x820082
 8001e36:	4213      	tst	r3, r2
 8001e38:	bf0c      	ite	eq
 8001e3a:	2000      	moveq	r0, #0
 8001e3c:	2001      	movne	r0, #1
 8001e3e:	bc10      	pop	{r4}
 8001e40:	4770      	bx	lr
 8001e42:	bf00      	nop

08001e44 <DMA_ClearFlag>:
 8001e44:	b410      	push	{r4}
 8001e46:	f44f 42c8 	mov.w	r2, #25600	; 0x6400
 8001e4a:	f246 440f 	movw	r4, #25615	; 0x640f
 8001e4e:	f44f 43c0 	mov.w	r3, #24576	; 0x6000
 8001e52:	f2c4 0202 	movt	r2, #16386	; 0x4002
 8001e56:	f2c4 0402 	movt	r4, #16386	; 0x4002
 8001e5a:	f2c4 0302 	movt	r3, #16386	; 0x4002
 8001e5e:	42a0      	cmp	r0, r4
 8001e60:	bf8c      	ite	hi
 8001e62:	4610      	movhi	r0, r2
 8001e64:	4618      	movls	r0, r3
 8001e66:	f011 5f00 	tst.w	r1, #536870912	; 0x20000000
 8001e6a:	f021 21f0 	bic.w	r1, r1, #4026593280	; 0xf000f000
 8001e6e:	f021 1282 	bic.w	r2, r1, #8519810	; 0x820082
 8001e72:	bf14      	ite	ne
 8001e74:	60c2      	strne	r2, [r0, #12]
 8001e76:	6082      	streq	r2, [r0, #8]
 8001e78:	bc10      	pop	{r4}
 8001e7a:	4770      	bx	lr

08001e7c <DMA_ITConfig>:
 8001e7c:	060b      	lsls	r3, r1, #24
 8001e7e:	d50c      	bpl.n	8001e9a <DMA_ITConfig+0x1e>
 8001e80:	6943      	ldr	r3, [r0, #20]
 8001e82:	b1aa      	cbz	r2, 8001eb0 <DMA_ITConfig+0x34>
 8001e84:	f043 0380 	orr.w	r3, r3, #128	; 0x80
 8001e88:	2980      	cmp	r1, #128	; 0x80
 8001e8a:	6143      	str	r3, [r0, #20]
 8001e8c:	d00f      	beq.n	8001eae <DMA_ITConfig+0x32>
 8001e8e:	6802      	ldr	r2, [r0, #0]
 8001e90:	f001 011e 	and.w	r1, r1, #30
 8001e94:	4311      	orrs	r1, r2
 8001e96:	6001      	str	r1, [r0, #0]
 8001e98:	4770      	bx	lr
 8001e9a:	2980      	cmp	r1, #128	; 0x80
 8001e9c:	d007      	beq.n	8001eae <DMA_ITConfig+0x32>
 8001e9e:	2a00      	cmp	r2, #0
 8001ea0:	d1f5      	bne.n	8001e8e <DMA_ITConfig+0x12>
 8001ea2:	6803      	ldr	r3, [r0, #0]
 8001ea4:	f001 011e 	and.w	r1, r1, #30
 8001ea8:	ea23 0201 	bic.w	r2, r3, r1
 8001eac:	6002      	str	r2, [r0, #0]
 8001eae:	4770      	bx	lr
 8001eb0:	f023 0280 	bic.w	r2, r3, #128	; 0x80
 8001eb4:	2980      	cmp	r1, #128	; 0x80
 8001eb6:	6142      	str	r2, [r0, #20]
 8001eb8:	d1f3      	bne.n	8001ea2 <DMA_ITConfig+0x26>
 8001eba:	4770      	bx	lr

08001ebc <DMA_GetITStatus>:
 8001ebc:	b470      	push	{r4, r5, r6}
 8001ebe:	f44f 42c0 	mov.w	r2, #24576	; 0x6000
 8001ec2:	f246 450f 	movw	r5, #25615	; 0x640f
 8001ec6:	f44f 44c8 	mov.w	r4, #25600	; 0x6400
 8001eca:	f021 23f0 	bic.w	r3, r1, #4026593280	; 0xf000f000
 8001ece:	f2c4 0502 	movt	r5, #16386	; 0x4002
 8001ed2:	f2c4 0402 	movt	r4, #16386	; 0x4002
 8001ed6:	f2c4 0202 	movt	r2, #16386	; 0x4002
 8001eda:	f023 16c3 	bic.w	r6, r3, #12779715	; 0xc300c3
 8001ede:	42a8      	cmp	r0, r5
 8001ee0:	bf88      	it	hi
 8001ee2:	4622      	movhi	r2, r4
 8001ee4:	b196      	cbz	r6, 8001f0c <DMA_GetITStatus+0x50>
 8001ee6:	6804      	ldr	r4, [r0, #0]
 8001ee8:	f004 001e 	and.w	r0, r4, #30
 8001eec:	ea00 24d1 	and.w	r4, r0, r1, lsr #11
 8001ef0:	0089      	lsls	r1, r1, #2
 8001ef2:	bf4c      	ite	mi
 8001ef4:	6852      	ldrmi	r2, [r2, #4]
 8001ef6:	6812      	ldrpl	r2, [r2, #0]
 8001ef8:	f023 1182 	bic.w	r1, r3, #8519810	; 0x820082
 8001efc:	ea11 0002 	ands.w	r0, r1, r2
 8001f00:	d002      	beq.n	8001f08 <DMA_GetITStatus+0x4c>
 8001f02:	1c20      	adds	r0, r4, #0
 8001f04:	bf18      	it	ne
 8001f06:	2001      	movne	r0, #1
 8001f08:	bc70      	pop	{r4, r5, r6}
 8001f0a:	4770      	bx	lr
 8001f0c:	6940      	ldr	r0, [r0, #20]
 8001f0e:	f000 0480 	and.w	r4, r0, #128	; 0x80
 8001f12:	e7ed      	b.n	8001ef0 <DMA_GetITStatus+0x34>

08001f14 <DMA_ClearITPendingBit>:
 8001f14:	b410      	push	{r4}
 8001f16:	f44f 42c8 	mov.w	r2, #25600	; 0x6400
 8001f1a:	f246 440f 	movw	r4, #25615	; 0x640f
 8001f1e:	f44f 43c0 	mov.w	r3, #24576	; 0x6000
 8001f22:	f2c4 0202 	movt	r2, #16386	; 0x4002
 8001f26:	f2c4 0402 	movt	r4, #16386	; 0x4002
 8001f2a:	f2c4 0302 	movt	r3, #16386	; 0x4002
 8001f2e:	42a0      	cmp	r0, r4
 8001f30:	bf8c      	ite	hi
 8001f32:	4610      	movhi	r0, r2
 8001f34:	4618      	movls	r0, r3
 8001f36:	f011 5f00 	tst.w	r1, #536870912	; 0x20000000
 8001f3a:	f021 21f0 	bic.w	r1, r1, #4026593280	; 0xf000f000
 8001f3e:	f021 1282 	bic.w	r2, r1, #8519810	; 0x820082
 8001f42:	bf14      	ite	ne
 8001f44:	60c2      	strne	r2, [r0, #12]
 8001f46:	6082      	streq	r2, [r0, #8]
 8001f48:	bc10      	pop	{r4}
 8001f4a:	4770      	bx	lr
 8001f4c:	0000      	movs	r0, r0
	...

08001f50 <rtGetNaN>:
 8001f50:	ed9f 0b01 	vldr	d0, [pc, #4]	; 8001f58 <rtGetNaN+0x8>
 8001f54:	4770      	bx	lr
 8001f56:	bf00      	nop
 8001f58:	00000000 	.word	0x00000000
 8001f5c:	fff80000 	.word	0xfff80000

08001f60 <rtGetNaNF>:
 8001f60:	ed9f 0a01 	vldr	s0, [pc, #4]	; 8001f68 <rtGetNaNF+0x8>
 8001f64:	4770      	bx	lr
 8001f66:	bf00      	nop
 8001f68:	ffc00000 	.word	0xffc00000
 8001f6c:	f3af 8000 	nop.w

08001f70 <enable_customio>:
 8001f70:	b5f0      	push	{r4, r5, r6, r7, lr}
 8001f72:	2010      	movs	r0, #16
 8001f74:	b083      	sub	sp, #12
 8001f76:	2101      	movs	r1, #1
 8001f78:	f7ff fa5a 	bl	8001430 <RCC_AHB1PeriphClockCmd>
 8001f7c:	2010      	movs	r0, #16
 8001f7e:	2101      	movs	r1, #1
 8001f80:	f7ff fa56 	bl	8001430 <RCC_AHB1PeriphClockCmd>
 8001f84:	2001      	movs	r0, #1
 8001f86:	4601      	mov	r1, r0
 8001f88:	f7ff fa52 	bl	8001430 <RCC_AHB1PeriphClockCmd>
 8001f8c:	f44f 5580 	mov.w	r5, #4096	; 0x1000
 8001f90:	2101      	movs	r1, #1
 8001f92:	2002      	movs	r0, #2
 8001f94:	f7ff fa4c 	bl	8001430 <RCC_AHB1PeriphClockCmd>
 8001f98:	f2c4 0502 	movt	r5, #16386	; 0x4002
 8001f9c:	4668      	mov	r0, sp
 8001f9e:	2401      	movs	r4, #1
 8001fa0:	f001 fdfe 	bl	8003ba0 <GPIO_StructInit>
 8001fa4:	2700      	movs	r7, #0
 8001fa6:	2302      	movs	r3, #2
 8001fa8:	f44f 7200 	mov.w	r2, #512	; 0x200
 8001fac:	4628      	mov	r0, r5
 8001fae:	4669      	mov	r1, sp
 8001fb0:	9200      	str	r2, [sp, #0]
 8001fb2:	f2c4 0702 	movt	r7, #16386	; 0x4002
 8001fb6:	f88d 3004 	strb.w	r3, [sp, #4]
 8001fba:	f88d 4007 	strb.w	r4, [sp, #7]
 8001fbe:	f44f 6680 	mov.w	r6, #1024	; 0x400
 8001fc2:	f001 fd45 	bl	8003a50 <GPIO_Init>
 8001fc6:	f44f 6300 	mov.w	r3, #2048	; 0x800
 8001fca:	4628      	mov	r0, r5
 8001fcc:	4669      	mov	r1, sp
 8001fce:	9300      	str	r3, [sp, #0]
 8001fd0:	f2c4 0602 	movt	r6, #16386	; 0x4002
 8001fd4:	f001 fd3c 	bl	8003a50 <GPIO_Init>
 8001fd8:	2220      	movs	r2, #32
 8001fda:	4638      	mov	r0, r7
 8001fdc:	4669      	mov	r1, sp
 8001fde:	9200      	str	r2, [sp, #0]
 8001fe0:	f001 fd36 	bl	8003a50 <GPIO_Init>
 8001fe4:	2308      	movs	r3, #8
 8001fe6:	4669      	mov	r1, sp
 8001fe8:	4630      	mov	r0, r6
 8001fea:	9300      	str	r3, [sp, #0]
 8001fec:	f001 fd30 	bl	8003a50 <GPIO_Init>
 8001ff0:	4628      	mov	r0, r5
 8001ff2:	4622      	mov	r2, r4
 8001ff4:	2109      	movs	r1, #9
 8001ff6:	f001 fe15 	bl	8003c24 <GPIO_PinAFConfig>
 8001ffa:	4628      	mov	r0, r5
 8001ffc:	4622      	mov	r2, r4
 8001ffe:	210b      	movs	r1, #11
 8002000:	f001 fe10 	bl	8003c24 <GPIO_PinAFConfig>
 8002004:	4638      	mov	r0, r7
 8002006:	4622      	mov	r2, r4
 8002008:	2105      	movs	r1, #5
 800200a:	f001 fe0b 	bl	8003c24 <GPIO_PinAFConfig>
 800200e:	4622      	mov	r2, r4
 8002010:	4630      	mov	r0, r6
 8002012:	2103      	movs	r1, #3
 8002014:	f001 fe06 	bl	8003c24 <GPIO_PinAFConfig>
 8002018:	4620      	mov	r0, r4
 800201a:	4621      	mov	r1, r4
 800201c:	f7ff fa40 	bl	80014a0 <RCC_APB2PeriphClockCmd>
 8002020:	4620      	mov	r0, r4
 8002022:	4621      	mov	r1, r4
 8002024:	f7ff fa2e 	bl	8001484 <RCC_APB1PeriphClockCmd>
 8002028:	2300      	movs	r3, #0
 800202a:	f2c4 0301 	movt	r3, #16385	; 0x4001
 800202e:	f04f 4280 	mov.w	r2, #1073741824	; 0x40000000
 8002032:	891d      	ldrh	r5, [r3, #8]
 8002034:	8b19      	ldrh	r1, [r3, #24]
 8002036:	8c18      	ldrh	r0, [r3, #32]
 8002038:	f421 7440 	bic.w	r4, r1, #768	; 0x300
 800203c:	f024 0603 	bic.w	r6, r4, #3
 8002040:	f025 0507 	bic.w	r5, r5, #7
 8002044:	0431      	lsls	r1, r6, #16
 8002046:	0c0e      	lsrs	r6, r1, #16
 8002048:	f020 0022 	bic.w	r0, r0, #34	; 0x22
 800204c:	042c      	lsls	r4, r5, #16
 800204e:	0c24      	lsrs	r4, r4, #16
 8002050:	f446 7180 	orr.w	r1, r6, #256	; 0x100
 8002054:	0406      	lsls	r6, r0, #16
 8002056:	0c30      	lsrs	r0, r6, #16
 8002058:	f64f 75ff 	movw	r5, #65535	; 0xffff
 800205c:	f044 0403 	orr.w	r4, r4, #3
 8002060:	f041 0101 	orr.w	r1, r1, #1
 8002064:	811c      	strh	r4, [r3, #8]
 8002066:	8319      	strh	r1, [r3, #24]
 8002068:	8418      	strh	r0, [r3, #32]
 800206a:	62dd      	str	r5, [r3, #44]	; 0x2c
 800206c:	8916      	ldrh	r6, [r2, #8]
 800206e:	8b14      	ldrh	r4, [r2, #24]
 8002070:	8c10      	ldrh	r0, [r2, #32]
 8002072:	f424 7140 	bic.w	r1, r4, #768	; 0x300
 8002076:	f021 0103 	bic.w	r1, r1, #3
 800207a:	040c      	lsls	r4, r1, #16
 800207c:	f026 0607 	bic.w	r6, r6, #7
 8002080:	0c21      	lsrs	r1, r4, #16
 8002082:	0436      	lsls	r6, r6, #16
 8002084:	f020 0022 	bic.w	r0, r0, #34	; 0x22
 8002088:	0c34      	lsrs	r4, r6, #16
 800208a:	0400      	lsls	r0, r0, #16
 800208c:	f441 7180 	orr.w	r1, r1, #256	; 0x100
 8002090:	f044 0603 	orr.w	r6, r4, #3
 8002094:	f041 0401 	orr.w	r4, r1, #1
 8002098:	0c01      	lsrs	r1, r0, #16
 800209a:	8116      	strh	r6, [r2, #8]
 800209c:	8314      	strh	r4, [r2, #24]
 800209e:	8411      	strh	r1, [r2, #32]
 80020a0:	62d5      	str	r5, [r2, #44]	; 0x2c
 80020a2:	881d      	ldrh	r5, [r3, #0]
 80020a4:	b2a8      	uxth	r0, r5
 80020a6:	f040 0601 	orr.w	r6, r0, #1
 80020aa:	801e      	strh	r6, [r3, #0]
 80020ac:	8814      	ldrh	r4, [r2, #0]
 80020ae:	b2a1      	uxth	r1, r4
 80020b0:	f041 0501 	orr.w	r5, r1, #1
 80020b4:	8015      	strh	r5, [r2, #0]
 80020b6:	b672      	cpsid	i
 80020b8:	f640 163e 	movw	r6, #2366	; 0x93e
 80020bc:	f640 1540 	movw	r5, #2368	; 0x940
 80020c0:	f640 1438 	movw	r4, #2360	; 0x938
 80020c4:	f640 1044 	movw	r0, #2372	; 0x944
 80020c8:	f2c2 0600 	movt	r6, #8192	; 0x2000
 80020cc:	f2c2 0500 	movt	r5, #8192	; 0x2000
 80020d0:	f2c2 0400 	movt	r4, #8192	; 0x2000
 80020d4:	f2c2 0000 	movt	r0, #8192	; 0x2000
 80020d8:	2100      	movs	r1, #0
 80020da:	8031      	strh	r1, [r6, #0]
 80020dc:	8029      	strh	r1, [r5, #0]
 80020de:	6021      	str	r1, [r4, #0]
 80020e0:	6001      	str	r1, [r0, #0]
 80020e2:	6259      	str	r1, [r3, #36]	; 0x24
 80020e4:	6251      	str	r1, [r2, #36]	; 0x24
 80020e6:	b662      	cpsie	i
 80020e8:	b003      	add	sp, #12
 80020ea:	bdf0      	pop	{r4, r5, r6, r7, pc}

080020ec <disable_customio>:
 80020ec:	4770      	bx	lr
 80020ee:	bf00      	nop

080020f0 <output_customio>:
 80020f0:	2801      	cmp	r0, #1
 80020f2:	e92d 01f0 	stmdb	sp!, {r4, r5, r6, r7, r8}
 80020f6:	d043      	beq.n	8002180 <output_customio+0x90>
 80020f8:	2901      	cmp	r1, #1
 80020fa:	d103      	bne.n	8002104 <output_customio+0x14>
 80020fc:	f04f 4180 	mov.w	r1, #1073741824	; 0x40000000
 8002100:	2500      	movs	r5, #0
 8002102:	624d      	str	r5, [r1, #36]	; 0x24
 8002104:	4d21      	ldr	r5, [pc, #132]	; (800218c <output_customio+0x9c>)
 8002106:	4f22      	ldr	r7, [pc, #136]	; (8002190 <output_customio+0xa0>)
 8002108:	f8b5 c000 	ldrh.w	ip, [r5]
 800210c:	4c21      	ldr	r4, [pc, #132]	; (8002194 <output_customio+0xa4>)
 800210e:	4e22      	ldr	r6, [pc, #136]	; (8002198 <output_customio+0xa8>)
 8002110:	4822      	ldr	r0, [pc, #136]	; (800219c <output_customio+0xac>)
 8002112:	4923      	ldr	r1, [pc, #140]	; (80021a0 <output_customio+0xb0>)
 8002114:	fa1f f88c 	uxth.w	r8, ip
 8002118:	f8a7 8000 	strh.w	r8, [r7]
 800211c:	f8b4 8000 	ldrh.w	r8, [r4]
 8002120:	f04f 0c00 	mov.w	ip, #0
 8002124:	fa1f f888 	uxth.w	r8, r8
 8002128:	f2c4 0c01 	movt	ip, #16385	; 0x4001
 800212c:	f8a6 8000 	strh.w	r8, [r6]
 8002130:	f8dc c024 	ldr.w	ip, [ip, #36]	; 0x24
 8002134:	fa1f fc8c 	uxth.w	ip, ip
 8002138:	f8a5 c000 	strh.w	ip, [r5]
 800213c:	f04f 4c80 	mov.w	ip, #1073741824	; 0x40000000
 8002140:	f8dc c024 	ldr.w	ip, [ip, #36]	; 0x24
 8002144:	fa1f fc8c 	uxth.w	ip, ip
 8002148:	f8a4 c000 	strh.w	ip, [r4]
 800214c:	f8b5 c000 	ldrh.w	ip, [r5]
 8002150:	883d      	ldrh	r5, [r7, #0]
 8002152:	6807      	ldr	r7, [r0, #0]
 8002154:	fa0f fc8c 	sxth.w	ip, ip
 8002158:	b22d      	sxth	r5, r5
 800215a:	ebc5 050c 	rsb	r5, r5, ip
 800215e:	19ef      	adds	r7, r5, r7
 8002160:	6007      	str	r7, [r0, #0]
 8002162:	8827      	ldrh	r7, [r4, #0]
 8002164:	8834      	ldrh	r4, [r6, #0]
 8002166:	680d      	ldr	r5, [r1, #0]
 8002168:	b23e      	sxth	r6, r7
 800216a:	b224      	sxth	r4, r4
 800216c:	1b34      	subs	r4, r6, r4
 800216e:	1964      	adds	r4, r4, r5
 8002170:	600c      	str	r4, [r1, #0]
 8002172:	6800      	ldr	r0, [r0, #0]
 8002174:	6809      	ldr	r1, [r1, #0]
 8002176:	6010      	str	r0, [r2, #0]
 8002178:	6019      	str	r1, [r3, #0]
 800217a:	e8bd 01f0 	ldmia.w	sp!, {r4, r5, r6, r7, r8}
 800217e:	4770      	bx	lr
 8002180:	2000      	movs	r0, #0
 8002182:	f2c4 0001 	movt	r0, #16385	; 0x4001
 8002186:	2400      	movs	r4, #0
 8002188:	6244      	str	r4, [r0, #36]	; 0x24
 800218a:	e7b5      	b.n	80020f8 <output_customio+0x8>
 800218c:	2000093c 	.word	0x2000093c
 8002190:	2000093e 	.word	0x2000093e
 8002194:	20000942 	.word	0x20000942
 8002198:	20000940 	.word	0x20000940
 800219c:	20000938 	.word	0x20000938
 80021a0:	20000944 	.word	0x20000944

080021a4 <TIM_EncoderInterfaceConfig2>:
 80021a4:	b470      	push	{r4, r5, r6}
 80021a6:	8905      	ldrh	r5, [r0, #8]
 80021a8:	8b04      	ldrh	r4, [r0, #24]
 80021aa:	8c06      	ldrh	r6, [r0, #32]
 80021ac:	f424 7440 	bic.w	r4, r4, #768	; 0x300
 80021b0:	f026 0622 	bic.w	r6, r6, #34	; 0x22
 80021b4:	f024 0403 	bic.w	r4, r4, #3
 80021b8:	0436      	lsls	r6, r6, #16
 80021ba:	0c36      	lsrs	r6, r6, #16
 80021bc:	f025 0507 	bic.w	r5, r5, #7
 80021c0:	0424      	lsls	r4, r4, #16
 80021c2:	0c24      	lsrs	r4, r4, #16
 80021c4:	4332      	orrs	r2, r6
 80021c6:	042d      	lsls	r5, r5, #16
 80021c8:	f444 7680 	orr.w	r6, r4, #256	; 0x100
 80021cc:	0c2d      	lsrs	r5, r5, #16
 80021ce:	ea42 1303 	orr.w	r3, r2, r3, lsl #4
 80021d2:	f046 0401 	orr.w	r4, r6, #1
 80021d6:	4329      	orrs	r1, r5
 80021d8:	b29e      	uxth	r6, r3
 80021da:	8101      	strh	r1, [r0, #8]
 80021dc:	8304      	strh	r4, [r0, #24]
 80021de:	8406      	strh	r6, [r0, #32]
 80021e0:	bc70      	pop	{r4, r5, r6}
 80021e2:	4770      	bx	lr

080021e4 <TIM_SetAutoreload2>:
 80021e4:	62c1      	str	r1, [r0, #44]	; 0x2c
 80021e6:	4770      	bx	lr

080021e8 <TIM_Cmd2>:
 80021e8:	8803      	ldrh	r3, [r0, #0]
 80021ea:	b929      	cbnz	r1, 80021f8 <TIM_Cmd2+0x10>
 80021ec:	f023 0101 	bic.w	r1, r3, #1
 80021f0:	040a      	lsls	r2, r1, #16
 80021f2:	0c13      	lsrs	r3, r2, #16
 80021f4:	8003      	strh	r3, [r0, #0]
 80021f6:	4770      	bx	lr
 80021f8:	b299      	uxth	r1, r3
 80021fa:	f041 0201 	orr.w	r2, r1, #1
 80021fe:	8002      	strh	r2, [r0, #0]
 8002200:	4770      	bx	lr
 8002202:	bf00      	nop

08002204 <encodersReset>:
 8002204:	b430      	push	{r4, r5}
 8002206:	b672      	cpsid	i
 8002208:	f640 143e 	movw	r4, #2366	; 0x93e
 800220c:	f640 1040 	movw	r0, #2368	; 0x940
 8002210:	f2c2 0400 	movt	r4, #8192	; 0x2000
 8002214:	f2c2 0000 	movt	r0, #8192	; 0x2000
 8002218:	2300      	movs	r3, #0
 800221a:	2500      	movs	r5, #0
 800221c:	f640 1138 	movw	r1, #2360	; 0x938
 8002220:	f640 1244 	movw	r2, #2372	; 0x944
 8002224:	8023      	strh	r3, [r4, #0]
 8002226:	f2c2 0100 	movt	r1, #8192	; 0x2000
 800222a:	8003      	strh	r3, [r0, #0]
 800222c:	f2c2 0200 	movt	r2, #8192	; 0x2000
 8002230:	f2c4 0501 	movt	r5, #16385	; 0x4001
 8002234:	f04f 4080 	mov.w	r0, #1073741824	; 0x40000000
 8002238:	600b      	str	r3, [r1, #0]
 800223a:	6013      	str	r3, [r2, #0]
 800223c:	626b      	str	r3, [r5, #36]	; 0x24
 800223e:	6243      	str	r3, [r0, #36]	; 0x24
 8002240:	b662      	cpsie	i
 8002242:	bc30      	pop	{r4, r5}
 8002244:	4770      	bx	lr
 8002246:	bf00      	nop

08002248 <TIM_GetCounter2>:
 8002248:	6a40      	ldr	r0, [r0, #36]	; 0x24
 800224a:	4770      	bx	lr

0800224c <TIM_SetCounter2>:
 800224c:	6241      	str	r1, [r0, #36]	; 0x24
 800224e:	4770      	bx	lr

08002250 <enable_EncoderDigitalInput>:
 8002250:	b500      	push	{lr}
 8002252:	2001      	movs	r0, #1
 8002254:	b083      	sub	sp, #12
 8002256:	4601      	mov	r1, r0
 8002258:	f7ff f8ea 	bl	8001430 <RCC_AHB1PeriphClockCmd>
 800225c:	2000      	movs	r0, #0
 800225e:	4603      	mov	r3, r0
 8002260:	2201      	movs	r2, #1
 8002262:	f88d 3004 	strb.w	r3, [sp, #4]
 8002266:	f88d 3007 	strb.w	r3, [sp, #7]
 800226a:	f2c4 0002 	movt	r0, #16386	; 0x4002
 800226e:	2303      	movs	r3, #3
 8002270:	4669      	mov	r1, sp
 8002272:	9200      	str	r2, [sp, #0]
 8002274:	f88d 3005 	strb.w	r3, [sp, #5]
 8002278:	f001 fbea 	bl	8003a50 <GPIO_Init>
 800227c:	b003      	add	sp, #12
 800227e:	bd00      	pop	{pc}

08002280 <enable_EncoderQuadraturEncoder>:
 8002280:	f7ff be76 	b.w	8001f70 <enable_customio>

08002284 <disable_EncoderQuadraturEncoder>:
 8002284:	f7ff bf32 	b.w	80020ec <disable_customio>

08002288 <enable_BasicPWM>:
 8002288:	e92d 41f0 	stmdb	sp!, {r4, r5, r6, r7, r8, lr}
 800228c:	2002      	movs	r0, #2
 800228e:	b08a      	sub	sp, #40	; 0x28
 8002290:	2101      	movs	r1, #1
 8002292:	f7ff f8f7 	bl	8001484 <RCC_APB1PeriphClockCmd>
 8002296:	2700      	movs	r7, #0
 8002298:	2001      	movs	r0, #1
 800229a:	4601      	mov	r1, r0
 800229c:	f2c4 0702 	movt	r7, #16386	; 0x4002
 80022a0:	f7ff f8c6 	bl	8001430 <RCC_AHB1PeriphClockCmd>
 80022a4:	2500      	movs	r5, #0
 80022a6:	2340      	movs	r3, #64	; 0x40
 80022a8:	2601      	movs	r6, #1
 80022aa:	2203      	movs	r2, #3
 80022ac:	f04f 0802 	mov.w	r8, #2
 80022b0:	4669      	mov	r1, sp
 80022b2:	4638      	mov	r0, r7
 80022b4:	f44f 6480 	mov.w	r4, #1024	; 0x400
 80022b8:	f2c4 0400 	movt	r4, #16384	; 0x4000
 80022bc:	9300      	str	r3, [sp, #0]
 80022be:	f88d 2005 	strb.w	r2, [sp, #5]
 80022c2:	f88d 8004 	strb.w	r8, [sp, #4]
 80022c6:	f88d 5006 	strb.w	r5, [sp, #6]
 80022ca:	f88d 6007 	strb.w	r6, [sp, #7]
 80022ce:	f001 fbbf 	bl	8003a50 <GPIO_Init>
 80022d2:	4638      	mov	r0, r7
 80022d4:	4642      	mov	r2, r8
 80022d6:	2106      	movs	r1, #6
 80022d8:	f001 fca4 	bl	8003c24 <GPIO_PinAFConfig>
 80022dc:	f241 0267 	movw	r2, #4199	; 0x1067
 80022e0:	a902      	add	r1, sp, #8
 80022e2:	4620      	mov	r0, r4
 80022e4:	9203      	str	r2, [sp, #12]
 80022e6:	f8ad 5008 	strh.w	r5, [sp, #8]
 80022ea:	f8ad 5010 	strh.w	r5, [sp, #16]
 80022ee:	f8ad 500a 	strh.w	r5, [sp, #10]
 80022f2:	f88d 5012 	strb.w	r5, [sp, #18]
 80022f6:	f7fe f8ad 	bl	8000454 <TIM_TimeBaseInit>
 80022fa:	a805      	add	r0, sp, #20
 80022fc:	f7fe fa90 	bl	8000820 <TIM_OCStructInit>
 8002300:	2360      	movs	r3, #96	; 0x60
 8002302:	a905      	add	r1, sp, #20
 8002304:	4620      	mov	r0, r4
 8002306:	f8ad 3014 	strh.w	r3, [sp, #20]
 800230a:	f8ad 6016 	strh.w	r6, [sp, #22]
 800230e:	f8ad 5020 	strh.w	r5, [sp, #32]
 8002312:	f7fe f967 	bl	80005e4 <TIM_OC1Init>
 8002316:	4620      	mov	r0, r4
 8002318:	2108      	movs	r1, #8
 800231a:	f7fe fadf 	bl	80008dc <TIM_OC1PreloadConfig>
 800231e:	4620      	mov	r0, r4
 8002320:	4631      	mov	r1, r6
 8002322:	f7fe f92b 	bl	800057c <TIM_ARRPreloadConfig>
 8002326:	4620      	mov	r0, r4
 8002328:	4631      	mov	r1, r6
 800232a:	f7fe f94d 	bl	80005c8 <TIM_Cmd>
 800232e:	b00a      	add	sp, #40	; 0x28
 8002330:	e8bd 81f0 	ldmia.w	sp!, {r4, r5, r6, r7, r8, pc}

08002334 <disable_BasicPWM>:
 8002334:	f44f 6080 	mov.w	r0, #1024	; 0x400
 8002338:	f2c4 0000 	movt	r0, #16384	; 0x4000
 800233c:	2100      	movs	r1, #0
 800233e:	f7fe b943 	b.w	80005c8 <TIM_Cmd>
 8002342:	bf00      	nop

08002344 <terminate_BasicPWM>:
 8002344:	f44f 6080 	mov.w	r0, #1024	; 0x400
 8002348:	f2c4 0000 	movt	r0, #16384	; 0x4000
 800234c:	2100      	movs	r1, #0
 800234e:	f7fe b93b 	b.w	80005c8 <TIM_Cmd>
 8002352:	bf00      	nop

08002354 <enable_DigitalOutput>:
 8002354:	b500      	push	{lr}
 8002356:	2008      	movs	r0, #8
 8002358:	b083      	sub	sp, #12
 800235a:	2101      	movs	r1, #1
 800235c:	f7ff f868 	bl	8001430 <RCC_AHB1PeriphClockCmd>
 8002360:	2201      	movs	r2, #1
 8002362:	f44f 5380 	mov.w	r3, #4096	; 0x1000
 8002366:	f44f 6040 	mov.w	r0, #3072	; 0xc00
 800236a:	9300      	str	r3, [sp, #0]
 800236c:	f88d 2004 	strb.w	r2, [sp, #4]
 8002370:	2300      	movs	r3, #0
 8002372:	2203      	movs	r2, #3
 8002374:	f2c4 0002 	movt	r0, #16386	; 0x4002
 8002378:	4669      	mov	r1, sp
 800237a:	f88d 3006 	strb.w	r3, [sp, #6]
 800237e:	f88d 2005 	strb.w	r2, [sp, #5]
 8002382:	f001 fb65 	bl	8003a50 <GPIO_Init>
 8002386:	b003      	add	sp, #12
 8002388:	bd00      	pop	{pc}
 800238a:	bf00      	nop

0800238c <Uart_rxascii_proc>:
 800238c:	e92d 01f0 	stmdb	sp!, {r4, r5, r6, r7, r8}
 8002390:	2900      	cmp	r1, #0
 8002392:	d042      	beq.n	800241a <Uart_rxascii_proc+0x8e>
 8002394:	4603      	mov	r3, r0
 8002396:	6894      	ldr	r4, [r2, #8]
 8002398:	8b95      	ldrh	r5, [r2, #28]
 800239a:	f813 6b01 	ldrb.w	r6, [r3], #1
 800239e:	5d67      	ldrb	r7, [r4, r5]
 80023a0:	3901      	subs	r1, #1
 80023a2:	42b7      	cmp	r7, r6
 80023a4:	f04f 0c00 	mov.w	ip, #0
 80023a8:	f001 0801 	and.w	r8, r1, #1
 80023ac:	b288      	uxth	r0, r1
 80023ae:	d038      	beq.n	8002422 <Uart_rxascii_proc+0x96>
 80023b0:	f8a2 c01c 	strh.w	ip, [r2, #28]
 80023b4:	4661      	mov	r1, ip
 80023b6:	b380      	cbz	r0, 800241a <Uart_rxascii_proc+0x8e>
 80023b8:	f1b8 0f00 	cmp.w	r8, #0
 80023bc:	d00a      	beq.n	80023d4 <Uart_rxascii_proc+0x48>
 80023be:	f813 5b01 	ldrb.w	r5, [r3], #1
 80023c2:	5c66      	ldrb	r6, [r4, r1]
 80023c4:	3801      	subs	r0, #1
 80023c6:	42ae      	cmp	r6, r5
 80023c8:	b280      	uxth	r0, r0
 80023ca:	d014      	beq.n	80023f6 <Uart_rxascii_proc+0x6a>
 80023cc:	f8a2 c01c 	strh.w	ip, [r2, #28]
 80023d0:	2100      	movs	r1, #0
 80023d2:	b310      	cbz	r0, 800241a <Uart_rxascii_proc+0x8e>
 80023d4:	1e47      	subs	r7, r0, #1
 80023d6:	5c66      	ldrb	r6, [r4, r1]
 80023d8:	f813 5b01 	ldrb.w	r5, [r3], #1
 80023dc:	b2b8      	uxth	r0, r7
 80023de:	1e47      	subs	r7, r0, #1
 80023e0:	42ae      	cmp	r6, r5
 80023e2:	d013      	beq.n	800240c <Uart_rxascii_proc+0x80>
 80023e4:	f8a2 c01c 	strh.w	ip, [r2, #28]
 80023e8:	2100      	movs	r1, #0
 80023ea:	f813 5b01 	ldrb.w	r5, [r3], #1
 80023ee:	5c66      	ldrb	r6, [r4, r1]
 80023f0:	42ae      	cmp	r6, r5
 80023f2:	b2b8      	uxth	r0, r7
 80023f4:	d1ea      	bne.n	80023cc <Uart_rxascii_proc+0x40>
 80023f6:	3101      	adds	r1, #1
 80023f8:	7b15      	ldrb	r5, [r2, #12]
 80023fa:	b289      	uxth	r1, r1
 80023fc:	428d      	cmp	r5, r1
 80023fe:	8391      	strh	r1, [r2, #28]
 8002400:	d8e7      	bhi.n	80023d2 <Uart_rxascii_proc+0x46>
 8002402:	2301      	movs	r3, #1
 8002404:	2100      	movs	r1, #0
 8002406:	7793      	strb	r3, [r2, #30]
 8002408:	8391      	strh	r1, [r2, #28]
 800240a:	e007      	b.n	800241c <Uart_rxascii_proc+0x90>
 800240c:	3101      	adds	r1, #1
 800240e:	7b15      	ldrb	r5, [r2, #12]
 8002410:	b289      	uxth	r1, r1
 8002412:	428d      	cmp	r5, r1
 8002414:	8391      	strh	r1, [r2, #28]
 8002416:	d8e8      	bhi.n	80023ea <Uart_rxascii_proc+0x5e>
 8002418:	e7f3      	b.n	8002402 <Uart_rxascii_proc+0x76>
 800241a:	2000      	movs	r0, #0
 800241c:	e8bd 01f0 	ldmia.w	sp!, {r4, r5, r6, r7, r8}
 8002420:	4770      	bx	lr
 8002422:	1c69      	adds	r1, r5, #1
 8002424:	7b16      	ldrb	r6, [r2, #12]
 8002426:	b289      	uxth	r1, r1
 8002428:	428e      	cmp	r6, r1
 800242a:	8391      	strh	r1, [r2, #28]
 800242c:	d8c3      	bhi.n	80023b6 <Uart_rxascii_proc+0x2a>
 800242e:	e7e8      	b.n	8002402 <Uart_rxascii_proc+0x76>

08002430 <Uart_rxpacket_proc>:
 8002430:	e92d 47f0 	stmdb	sp!, {r4, r5, r6, r7, r8, r9, sl, lr}
 8002434:	460d      	mov	r5, r1
 8002436:	4606      	mov	r6, r0
 8002438:	4614      	mov	r4, r2
 800243a:	b1e9      	cbz	r1, 8002478 <Uart_rxpacket_proc+0x48>
 800243c:	f04f 0a00 	mov.w	sl, #0
 8002440:	f04f 0903 	mov.w	r9, #3
 8002444:	f04f 0802 	mov.w	r8, #2
 8002448:	2701      	movs	r7, #1
 800244a:	3d01      	subs	r5, #1
 800244c:	f816 2b01 	ldrb.w	r2, [r6], #1
 8002450:	7da3      	ldrb	r3, [r4, #22]
 8002452:	b2ad      	uxth	r5, r5
 8002454:	2b03      	cmp	r3, #3
 8002456:	d808      	bhi.n	800246a <Uart_rxpacket_proc+0x3a>
 8002458:	e8df f003 	tbb	[pc, r3]
 800245c:	122b023d 	.word	0x122b023d
 8002460:	8ba0      	ldrh	r0, [r4, #28]
 8002462:	6823      	ldr	r3, [r4, #0]
 8002464:	5c19      	ldrb	r1, [r3, r0]
 8002466:	4291      	cmp	r1, r2
 8002468:	d03c      	beq.n	80024e4 <Uart_rxpacket_proc+0xb4>
 800246a:	f884 a016 	strb.w	sl, [r4, #22]
 800246e:	7fa2      	ldrb	r2, [r4, #30]
 8002470:	2a01      	cmp	r2, #1
 8002472:	d013      	beq.n	800249c <Uart_rxpacket_proc+0x6c>
 8002474:	2d00      	cmp	r5, #0
 8002476:	d1e8      	bne.n	800244a <Uart_rxpacket_proc+0x1a>
 8002478:	2500      	movs	r5, #0
 800247a:	4628      	mov	r0, r5
 800247c:	e8bd 87f0 	ldmia.w	sp!, {r4, r5, r6, r7, r8, r9, sl, pc}
 8002480:	8ba1      	ldrh	r1, [r4, #28]
 8002482:	68a3      	ldr	r3, [r4, #8]
 8002484:	5c58      	ldrb	r0, [r3, r1]
 8002486:	4290      	cmp	r0, r2
 8002488:	d1ef      	bne.n	800246a <Uart_rxpacket_proc+0x3a>
 800248a:	1c4a      	adds	r2, r1, #1
 800248c:	7b23      	ldrb	r3, [r4, #12]
 800248e:	b291      	uxth	r1, r2
 8002490:	428b      	cmp	r3, r1
 8002492:	83a1      	strh	r1, [r4, #28]
 8002494:	d8eb      	bhi.n	800246e <Uart_rxpacket_proc+0x3e>
 8002496:	f884 a016 	strb.w	sl, [r4, #22]
 800249a:	77a7      	strb	r7, [r4, #30]
 800249c:	69a3      	ldr	r3, [r4, #24]
 800249e:	2b00      	cmp	r3, #0
 80024a0:	d0eb      	beq.n	800247a <Uart_rxpacket_proc+0x4a>
 80024a2:	6920      	ldr	r0, [r4, #16]
 80024a4:	8aa1      	ldrh	r1, [r4, #20]
 80024a6:	4798      	blx	r3
 80024a8:	f884 a01e 	strb.w	sl, [r4, #30]
 80024ac:	2d00      	cmp	r5, #0
 80024ae:	d1cc      	bne.n	800244a <Uart_rxpacket_proc+0x1a>
 80024b0:	e7e2      	b.n	8002478 <Uart_rxpacket_proc+0x48>
 80024b2:	8ba0      	ldrh	r0, [r4, #28]
 80024b4:	6923      	ldr	r3, [r4, #16]
 80024b6:	541a      	strb	r2, [r3, r0]
 80024b8:	8ba1      	ldrh	r1, [r4, #28]
 80024ba:	f9b4 2014 	ldrsh.w	r2, [r4, #20]
 80024be:	1c48      	adds	r0, r1, #1
 80024c0:	b283      	uxth	r3, r0
 80024c2:	4293      	cmp	r3, r2
 80024c4:	83a3      	strh	r3, [r4, #28]
 80024c6:	dbd2      	blt.n	800246e <Uart_rxpacket_proc+0x3e>
 80024c8:	7b21      	ldrb	r1, [r4, #12]
 80024ca:	f8a4 a01c 	strh.w	sl, [r4, #28]
 80024ce:	b301      	cbz	r1, 8002512 <Uart_rxpacket_proc+0xe2>
 80024d0:	f884 9016 	strb.w	r9, [r4, #22]
 80024d4:	e7cb      	b.n	800246e <Uart_rxpacket_proc+0x3e>
 80024d6:	7923      	ldrb	r3, [r4, #4]
 80024d8:	f8a4 a01c 	strh.w	sl, [r4, #28]
 80024dc:	b18b      	cbz	r3, 8002502 <Uart_rxpacket_proc+0xd2>
 80024de:	75a7      	strb	r7, [r4, #22]
 80024e0:	2301      	movs	r3, #1
 80024e2:	e7b7      	b.n	8002454 <Uart_rxpacket_proc+0x24>
 80024e4:	1c42      	adds	r2, r0, #1
 80024e6:	7920      	ldrb	r0, [r4, #4]
 80024e8:	b293      	uxth	r3, r2
 80024ea:	4298      	cmp	r0, r3
 80024ec:	83a3      	strh	r3, [r4, #28]
 80024ee:	d8be      	bhi.n	800246e <Uart_rxpacket_proc+0x3e>
 80024f0:	f9b4 1014 	ldrsh.w	r1, [r4, #20]
 80024f4:	f8a4 a01c 	strh.w	sl, [r4, #28]
 80024f8:	2900      	cmp	r1, #0
 80024fa:	dd15      	ble.n	8002528 <Uart_rxpacket_proc+0xf8>
 80024fc:	f884 8016 	strb.w	r8, [r4, #22]
 8002500:	e7b5      	b.n	800246e <Uart_rxpacket_proc+0x3e>
 8002502:	f9b4 1014 	ldrsh.w	r1, [r4, #20]
 8002506:	2900      	cmp	r1, #0
 8002508:	dd07      	ble.n	800251a <Uart_rxpacket_proc+0xea>
 800250a:	f884 8016 	strb.w	r8, [r4, #22]
 800250e:	2302      	movs	r3, #2
 8002510:	e7a0      	b.n	8002454 <Uart_rxpacket_proc+0x24>
 8002512:	2200      	movs	r2, #0
 8002514:	75a2      	strb	r2, [r4, #22]
 8002516:	77a7      	strb	r7, [r4, #30]
 8002518:	e7c0      	b.n	800249c <Uart_rxpacket_proc+0x6c>
 800251a:	7b20      	ldrb	r0, [r4, #12]
 800251c:	2800      	cmp	r0, #0
 800251e:	d0a6      	beq.n	800246e <Uart_rxpacket_proc+0x3e>
 8002520:	f884 9016 	strb.w	r9, [r4, #22]
 8002524:	2303      	movs	r3, #3
 8002526:	e795      	b.n	8002454 <Uart_rxpacket_proc+0x24>
 8002528:	7b22      	ldrb	r2, [r4, #12]
 800252a:	2a00      	cmp	r2, #0
 800252c:	d1d0      	bne.n	80024d0 <Uart_rxpacket_proc+0xa0>
 800252e:	2000      	movs	r0, #0
 8002530:	75a0      	strb	r0, [r4, #22]
 8002532:	e79c      	b.n	800246e <Uart_rxpacket_proc+0x3e>

08002534 <UARTTxBlockingWrite>:
 8002534:	b570      	push	{r4, r5, r6, lr}
 8002536:	4c43      	ldr	r4, [pc, #268]	; (8002644 <UARTTxBlockingWrite+0x110>)
 8002538:	460d      	mov	r5, r1
 800253a:	4606      	mov	r6, r0
 800253c:	7823      	ldrb	r3, [r4, #0]
 800253e:	bb69      	cbnz	r1, 800259c <UARTTxBlockingWrite+0x68>
 8002540:	b35b      	cbz	r3, 800259a <UARTTxBlockingWrite+0x66>
 8002542:	f246 40b8 	movw	r0, #25784	; 0x64b8
 8002546:	f04f 5120 	mov.w	r1, #671088640	; 0x28000000
 800254a:	f2c4 0002 	movt	r0, #16386	; 0x4002
 800254e:	f7ff fc59 	bl	8001e04 <DMA_GetFlagStatus>
 8002552:	2800      	cmp	r0, #0
 8002554:	d0f5      	beq.n	8002542 <UARTTxBlockingWrite+0xe>
 8002556:	f44f 5080 	mov.w	r0, #4096	; 0x1000
 800255a:	f2c4 0001 	movt	r0, #16385	; 0x4001
 800255e:	2140      	movs	r1, #64	; 0x40
 8002560:	f000 fce2 	bl	8002f28 <USART_GetFlagStatus>
 8002564:	2800      	cmp	r0, #0
 8002566:	d0ec      	beq.n	8002542 <UARTTxBlockingWrite+0xe>
 8002568:	f246 40b8 	movw	r0, #25784	; 0x64b8
 800256c:	f2c4 0002 	movt	r0, #16386	; 0x4002
 8002570:	f04f 5130 	mov.w	r1, #738197504	; 0x2c000000
 8002574:	f7ff fc66 	bl	8001e44 <DMA_ClearFlag>
 8002578:	f246 40b8 	movw	r0, #25784	; 0x64b8
 800257c:	f2c4 0002 	movt	r0, #16386	; 0x4002
 8002580:	2100      	movs	r1, #0
 8002582:	f7ff fbf3 	bl	8001d6c <DMA_Cmd>
 8002586:	f44f 5080 	mov.w	r0, #4096	; 0x1000
 800258a:	f2c4 0001 	movt	r0, #16385	; 0x4001
 800258e:	2180      	movs	r1, #128	; 0x80
 8002590:	2200      	movs	r2, #0
 8002592:	f000 fca3 	bl	8002edc <USART_DMACmd>
 8002596:	2300      	movs	r3, #0
 8002598:	7023      	strb	r3, [r4, #0]
 800259a:	bd70      	pop	{r4, r5, r6, pc}
 800259c:	b35b      	cbz	r3, 80025f6 <UARTTxBlockingWrite+0xc2>
 800259e:	f246 40b8 	movw	r0, #25784	; 0x64b8
 80025a2:	f04f 5120 	mov.w	r1, #671088640	; 0x28000000
 80025a6:	f2c4 0002 	movt	r0, #16386	; 0x4002
 80025aa:	f7ff fc2b 	bl	8001e04 <DMA_GetFlagStatus>
 80025ae:	2800      	cmp	r0, #0
 80025b0:	d0f5      	beq.n	800259e <UARTTxBlockingWrite+0x6a>
 80025b2:	f44f 5080 	mov.w	r0, #4096	; 0x1000
 80025b6:	f2c4 0001 	movt	r0, #16385	; 0x4001
 80025ba:	2140      	movs	r1, #64	; 0x40
 80025bc:	f000 fcb4 	bl	8002f28 <USART_GetFlagStatus>
 80025c0:	2800      	cmp	r0, #0
 80025c2:	d0ec      	beq.n	800259e <UARTTxBlockingWrite+0x6a>
 80025c4:	f246 40b8 	movw	r0, #25784	; 0x64b8
 80025c8:	f2c4 0002 	movt	r0, #16386	; 0x4002
 80025cc:	f04f 5130 	mov.w	r1, #738197504	; 0x2c000000
 80025d0:	f7ff fc38 	bl	8001e44 <DMA_ClearFlag>
 80025d4:	f246 40b8 	movw	r0, #25784	; 0x64b8
 80025d8:	f2c4 0002 	movt	r0, #16386	; 0x4002
 80025dc:	2100      	movs	r1, #0
 80025de:	f7ff fbc5 	bl	8001d6c <DMA_Cmd>
 80025e2:	f44f 5080 	mov.w	r0, #4096	; 0x1000
 80025e6:	f2c4 0001 	movt	r0, #16385	; 0x4001
 80025ea:	2180      	movs	r1, #128	; 0x80
 80025ec:	2200      	movs	r2, #0
 80025ee:	f000 fc75 	bl	8002edc <USART_DMACmd>
 80025f2:	2000      	movs	r0, #0
 80025f4:	7020      	strb	r0, [r4, #0]
 80025f6:	462a      	mov	r2, r5
 80025f8:	4631      	mov	r1, r6
 80025fa:	4813      	ldr	r0, [pc, #76]	; (8002648 <UARTTxBlockingWrite+0x114>)
 80025fc:	f002 f8b6 	bl	800476c <memcpy>
 8002600:	4a12      	ldr	r2, [pc, #72]	; (800264c <UARTTxBlockingWrite+0x118>)
 8002602:	f246 40b8 	movw	r0, #25784	; 0x64b8
 8002606:	4611      	mov	r1, r2
 8002608:	f2c4 0002 	movt	r0, #16386	; 0x4002
 800260c:	6115      	str	r5, [r2, #16]
 800260e:	f7ff fb57 	bl	8001cc0 <DMA_Init>
 8002612:	f44f 5080 	mov.w	r0, #4096	; 0x1000
 8002616:	2201      	movs	r2, #1
 8002618:	f2c4 0001 	movt	r0, #16385	; 0x4001
 800261c:	2180      	movs	r1, #128	; 0x80
 800261e:	f000 fc5d 	bl	8002edc <USART_DMACmd>
 8002622:	f44f 5080 	mov.w	r0, #4096	; 0x1000
 8002626:	f2c4 0001 	movt	r0, #16385	; 0x4001
 800262a:	2140      	movs	r1, #64	; 0x40
 800262c:	f000 fc82 	bl	8002f34 <USART_ClearFlag>
 8002630:	f246 40b8 	movw	r0, #25784	; 0x64b8
 8002634:	2101      	movs	r1, #1
 8002636:	f2c4 0002 	movt	r0, #16386	; 0x4002
 800263a:	f7ff fb97 	bl	8001d6c <DMA_Cmd>
 800263e:	2101      	movs	r1, #1
 8002640:	7021      	strb	r1, [r4, #0]
 8002642:	e77e      	b.n	8002542 <UARTTxBlockingWrite+0xe>
 8002644:	2000097e 	.word	0x2000097e
 8002648:	200009bc 	.word	0x200009bc
 800264c:	20000980 	.word	0x20000980

08002650 <enable_UARTTx>:
 8002650:	4770      	bx	lr
 8002652:	bf00      	nop

08002654 <UARTSetup_WaitTx>:
 8002654:	b510      	push	{r4, lr}
 8002656:	4c18      	ldr	r4, [pc, #96]	; (80026b8 <UARTSetup_WaitTx+0x64>)
 8002658:	7823      	ldrb	r3, [r4, #0]
 800265a:	b35b      	cbz	r3, 80026b4 <UARTSetup_WaitTx+0x60>
 800265c:	f246 40b8 	movw	r0, #25784	; 0x64b8
 8002660:	f04f 5120 	mov.w	r1, #671088640	; 0x28000000
 8002664:	f2c4 0002 	movt	r0, #16386	; 0x4002
 8002668:	f7ff fbcc 	bl	8001e04 <DMA_GetFlagStatus>
 800266c:	2800      	cmp	r0, #0
 800266e:	d0f5      	beq.n	800265c <UARTSetup_WaitTx+0x8>
 8002670:	f44f 5080 	mov.w	r0, #4096	; 0x1000
 8002674:	f2c4 0001 	movt	r0, #16385	; 0x4001
 8002678:	2140      	movs	r1, #64	; 0x40
 800267a:	f000 fc55 	bl	8002f28 <USART_GetFlagStatus>
 800267e:	2800      	cmp	r0, #0
 8002680:	d0ec      	beq.n	800265c <UARTSetup_WaitTx+0x8>
 8002682:	f246 40b8 	movw	r0, #25784	; 0x64b8
 8002686:	f2c4 0002 	movt	r0, #16386	; 0x4002
 800268a:	f04f 5130 	mov.w	r1, #738197504	; 0x2c000000
 800268e:	f7ff fbd9 	bl	8001e44 <DMA_ClearFlag>
 8002692:	f246 40b8 	movw	r0, #25784	; 0x64b8
 8002696:	f2c4 0002 	movt	r0, #16386	; 0x4002
 800269a:	2100      	movs	r1, #0
 800269c:	f7ff fb66 	bl	8001d6c <DMA_Cmd>
 80026a0:	f44f 5080 	mov.w	r0, #4096	; 0x1000
 80026a4:	f2c4 0001 	movt	r0, #16385	; 0x4001
 80026a8:	2180      	movs	r1, #128	; 0x80
 80026aa:	2200      	movs	r2, #0
 80026ac:	f000 fc16 	bl	8002edc <USART_DMACmd>
 80026b0:	2000      	movs	r0, #0
 80026b2:	7020      	strb	r0, [r4, #0]
 80026b4:	2000      	movs	r0, #0
 80026b6:	bd10      	pop	{r4, pc}
 80026b8:	2000097e 	.word	0x2000097e

080026bc <UART1_Write>:
 80026bc:	b570      	push	{r4, r5, r6, lr}
 80026be:	460c      	mov	r4, r1
 80026c0:	4606      	mov	r6, r0
 80026c2:	b901      	cbnz	r1, 80026c6 <UART1_Write+0xa>
 80026c4:	bd70      	pop	{r4, r5, r6, pc}
 80026c6:	4d2b      	ldr	r5, [pc, #172]	; (8002774 <UART1_Write+0xb8>)
 80026c8:	782b      	ldrb	r3, [r5, #0]
 80026ca:	b35b      	cbz	r3, 8002724 <UART1_Write+0x68>
 80026cc:	f246 40b8 	movw	r0, #25784	; 0x64b8
 80026d0:	f04f 5120 	mov.w	r1, #671088640	; 0x28000000
 80026d4:	f2c4 0002 	movt	r0, #16386	; 0x4002
 80026d8:	f7ff fb94 	bl	8001e04 <DMA_GetFlagStatus>
 80026dc:	2800      	cmp	r0, #0
 80026de:	d0f5      	beq.n	80026cc <UART1_Write+0x10>
 80026e0:	f44f 5080 	mov.w	r0, #4096	; 0x1000
 80026e4:	f2c4 0001 	movt	r0, #16385	; 0x4001
 80026e8:	2140      	movs	r1, #64	; 0x40
 80026ea:	f000 fc1d 	bl	8002f28 <USART_GetFlagStatus>
 80026ee:	2800      	cmp	r0, #0
 80026f0:	d0ec      	beq.n	80026cc <UART1_Write+0x10>
 80026f2:	f246 40b8 	movw	r0, #25784	; 0x64b8
 80026f6:	f2c4 0002 	movt	r0, #16386	; 0x4002
 80026fa:	f04f 5130 	mov.w	r1, #738197504	; 0x2c000000
 80026fe:	f7ff fba1 	bl	8001e44 <DMA_ClearFlag>
 8002702:	f246 40b8 	movw	r0, #25784	; 0x64b8
 8002706:	f2c4 0002 	movt	r0, #16386	; 0x4002
 800270a:	2100      	movs	r1, #0
 800270c:	f7ff fb2e 	bl	8001d6c <DMA_Cmd>
 8002710:	f44f 5080 	mov.w	r0, #4096	; 0x1000
 8002714:	f2c4 0001 	movt	r0, #16385	; 0x4001
 8002718:	2180      	movs	r1, #128	; 0x80
 800271a:	2200      	movs	r2, #0
 800271c:	f000 fbde 	bl	8002edc <USART_DMACmd>
 8002720:	2000      	movs	r0, #0
 8002722:	7028      	strb	r0, [r5, #0]
 8002724:	4622      	mov	r2, r4
 8002726:	4631      	mov	r1, r6
 8002728:	4813      	ldr	r0, [pc, #76]	; (8002778 <UART1_Write+0xbc>)
 800272a:	f002 f81f 	bl	800476c <memcpy>
 800272e:	4a13      	ldr	r2, [pc, #76]	; (800277c <UART1_Write+0xc0>)
 8002730:	f246 40b8 	movw	r0, #25784	; 0x64b8
 8002734:	4611      	mov	r1, r2
 8002736:	f2c4 0002 	movt	r0, #16386	; 0x4002
 800273a:	6114      	str	r4, [r2, #16]
 800273c:	f7ff fac0 	bl	8001cc0 <DMA_Init>
 8002740:	f44f 5080 	mov.w	r0, #4096	; 0x1000
 8002744:	2201      	movs	r2, #1
 8002746:	f2c4 0001 	movt	r0, #16385	; 0x4001
 800274a:	2180      	movs	r1, #128	; 0x80
 800274c:	f000 fbc6 	bl	8002edc <USART_DMACmd>
 8002750:	f44f 5080 	mov.w	r0, #4096	; 0x1000
 8002754:	f2c4 0001 	movt	r0, #16385	; 0x4001
 8002758:	2140      	movs	r1, #64	; 0x40
 800275a:	f000 fbeb 	bl	8002f34 <USART_ClearFlag>
 800275e:	f246 40b8 	movw	r0, #25784	; 0x64b8
 8002762:	2101      	movs	r1, #1
 8002764:	f2c4 0002 	movt	r0, #16386	; 0x4002
 8002768:	f7ff fb00 	bl	8001d6c <DMA_Cmd>
 800276c:	2101      	movs	r1, #1
 800276e:	7029      	strb	r1, [r5, #0]
 8002770:	bd70      	pop	{r4, r5, r6, pc}
 8002772:	bf00      	nop
 8002774:	2000097e 	.word	0x2000097e
 8002778:	200009bc 	.word	0x200009bc
 800277c:	20000980 	.word	0x20000980

08002780 <UART1_TxUpdate>:
 8002780:	b538      	push	{r3, r4, r5, lr}
 8002782:	4604      	mov	r4, r0
 8002784:	b900      	cbnz	r0, 8002788 <UART1_TxUpdate+0x8>
 8002786:	bd38      	pop	{r3, r4, r5, pc}
 8002788:	4d28      	ldr	r5, [pc, #160]	; (800282c <UART1_TxUpdate+0xac>)
 800278a:	782b      	ldrb	r3, [r5, #0]
 800278c:	b35b      	cbz	r3, 80027e6 <UART1_TxUpdate+0x66>
 800278e:	f246 40b8 	movw	r0, #25784	; 0x64b8
 8002792:	f04f 5120 	mov.w	r1, #671088640	; 0x28000000
 8002796:	f2c4 0002 	movt	r0, #16386	; 0x4002
 800279a:	f7ff fb33 	bl	8001e04 <DMA_GetFlagStatus>
 800279e:	2800      	cmp	r0, #0
 80027a0:	d0f5      	beq.n	800278e <UART1_TxUpdate+0xe>
 80027a2:	f44f 5080 	mov.w	r0, #4096	; 0x1000
 80027a6:	f2c4 0001 	movt	r0, #16385	; 0x4001
 80027aa:	2140      	movs	r1, #64	; 0x40
 80027ac:	f000 fbbc 	bl	8002f28 <USART_GetFlagStatus>
 80027b0:	2800      	cmp	r0, #0
 80027b2:	d0ec      	beq.n	800278e <UART1_TxUpdate+0xe>
 80027b4:	f246 40b8 	movw	r0, #25784	; 0x64b8
 80027b8:	f2c4 0002 	movt	r0, #16386	; 0x4002
 80027bc:	f04f 5130 	mov.w	r1, #738197504	; 0x2c000000
 80027c0:	f7ff fb40 	bl	8001e44 <DMA_ClearFlag>
 80027c4:	f246 40b8 	movw	r0, #25784	; 0x64b8
 80027c8:	f2c4 0002 	movt	r0, #16386	; 0x4002
 80027cc:	2100      	movs	r1, #0
 80027ce:	f7ff facd 	bl	8001d6c <DMA_Cmd>
 80027d2:	f44f 5080 	mov.w	r0, #4096	; 0x1000
 80027d6:	f2c4 0001 	movt	r0, #16385	; 0x4001
 80027da:	2180      	movs	r1, #128	; 0x80
 80027dc:	2200      	movs	r2, #0
 80027de:	f000 fb7d 	bl	8002edc <USART_DMACmd>
 80027e2:	2000      	movs	r0, #0
 80027e4:	7028      	strb	r0, [r5, #0]
 80027e6:	4a12      	ldr	r2, [pc, #72]	; (8002830 <UART1_TxUpdate+0xb0>)
 80027e8:	f246 40b8 	movw	r0, #25784	; 0x64b8
 80027ec:	4611      	mov	r1, r2
 80027ee:	f2c4 0002 	movt	r0, #16386	; 0x4002
 80027f2:	6114      	str	r4, [r2, #16]
 80027f4:	f7ff fa64 	bl	8001cc0 <DMA_Init>
 80027f8:	f44f 5080 	mov.w	r0, #4096	; 0x1000
 80027fc:	2201      	movs	r2, #1
 80027fe:	f2c4 0001 	movt	r0, #16385	; 0x4001
 8002802:	2180      	movs	r1, #128	; 0x80
 8002804:	f000 fb6a 	bl	8002edc <USART_DMACmd>
 8002808:	f44f 5080 	mov.w	r0, #4096	; 0x1000
 800280c:	f2c4 0001 	movt	r0, #16385	; 0x4001
 8002810:	2140      	movs	r1, #64	; 0x40
 8002812:	f000 fb8f 	bl	8002f34 <USART_ClearFlag>
 8002816:	f246 40b8 	movw	r0, #25784	; 0x64b8
 800281a:	2101      	movs	r1, #1
 800281c:	f2c4 0002 	movt	r0, #16386	; 0x4002
 8002820:	f7ff faa4 	bl	8001d6c <DMA_Cmd>
 8002824:	2101      	movs	r1, #1
 8002826:	7029      	strb	r1, [r5, #0]
 8002828:	bd38      	pop	{r3, r4, r5, pc}
 800282a:	bf00      	nop
 800282c:	2000097e 	.word	0x2000097e
 8002830:	20000980 	.word	0x20000980

08002834 <UART1_FlushTxBuffer>:
 8002834:	b510      	push	{r4, lr}
 8002836:	4c18      	ldr	r4, [pc, #96]	; (8002898 <UART1_FlushTxBuffer+0x64>)
 8002838:	7823      	ldrb	r3, [r4, #0]
 800283a:	b35b      	cbz	r3, 8002894 <UART1_FlushTxBuffer+0x60>
 800283c:	f246 40b8 	movw	r0, #25784	; 0x64b8
 8002840:	f04f 5120 	mov.w	r1, #671088640	; 0x28000000
 8002844:	f2c4 0002 	movt	r0, #16386	; 0x4002
 8002848:	f7ff fadc 	bl	8001e04 <DMA_GetFlagStatus>
 800284c:	2800      	cmp	r0, #0
 800284e:	d0f5      	beq.n	800283c <UART1_FlushTxBuffer+0x8>
 8002850:	f44f 5080 	mov.w	r0, #4096	; 0x1000
 8002854:	f2c4 0001 	movt	r0, #16385	; 0x4001
 8002858:	2140      	movs	r1, #64	; 0x40
 800285a:	f000 fb65 	bl	8002f28 <USART_GetFlagStatus>
 800285e:	2800      	cmp	r0, #0
 8002860:	d0ec      	beq.n	800283c <UART1_FlushTxBuffer+0x8>
 8002862:	f246 40b8 	movw	r0, #25784	; 0x64b8
 8002866:	f2c4 0002 	movt	r0, #16386	; 0x4002
 800286a:	f04f 5130 	mov.w	r1, #738197504	; 0x2c000000
 800286e:	f7ff fae9 	bl	8001e44 <DMA_ClearFlag>
 8002872:	f246 40b8 	movw	r0, #25784	; 0x64b8
 8002876:	f2c4 0002 	movt	r0, #16386	; 0x4002
 800287a:	2100      	movs	r1, #0
 800287c:	f7ff fa76 	bl	8001d6c <DMA_Cmd>
 8002880:	f44f 5080 	mov.w	r0, #4096	; 0x1000
 8002884:	f2c4 0001 	movt	r0, #16385	; 0x4001
 8002888:	2180      	movs	r1, #128	; 0x80
 800288a:	2200      	movs	r2, #0
 800288c:	f000 fb26 	bl	8002edc <USART_DMACmd>
 8002890:	2000      	movs	r0, #0
 8002892:	7020      	strb	r0, [r4, #0]
 8002894:	bd10      	pop	{r4, pc}
 8002896:	bf00      	nop
 8002898:	2000097e 	.word	0x2000097e

0800289c <enable_UARTSetup>:
 800289c:	e92d 43f0 	stmdb	sp!, {r4, r5, r6, r7, r8, r9, lr}
 80028a0:	2002      	movs	r0, #2
 80028a2:	b087      	sub	sp, #28
 80028a4:	2101      	movs	r1, #1
 80028a6:	f7fe fdc3 	bl	8001430 <RCC_AHB1PeriphClockCmd>
 80028aa:	f44f 6680 	mov.w	r6, #1024	; 0x400
 80028ae:	2010      	movs	r0, #16
 80028b0:	2101      	movs	r1, #1
 80028b2:	f7fe fdf5 	bl	80014a0 <RCC_APB2PeriphClockCmd>
 80028b6:	f2c4 0602 	movt	r6, #16386	; 0x4002
 80028ba:	f44f 0080 	mov.w	r0, #4194304	; 0x400000
 80028be:	2101      	movs	r1, #1
 80028c0:	f7fe fdb6 	bl	8001430 <RCC_AHB1PeriphClockCmd>
 80028c4:	2207      	movs	r2, #7
 80028c6:	4630      	mov	r0, r6
 80028c8:	2106      	movs	r1, #6
 80028ca:	f001 f9ab 	bl	8003c24 <GPIO_PinAFConfig>
 80028ce:	a906      	add	r1, sp, #24
 80028d0:	f04f 0840 	mov.w	r8, #64	; 0x40
 80028d4:	f44f 5580 	mov.w	r5, #4096	; 0x1000
 80028d8:	2400      	movs	r4, #0
 80028da:	2701      	movs	r7, #1
 80028dc:	f2c4 0501 	movt	r5, #16385	; 0x4001
 80028e0:	2302      	movs	r3, #2
 80028e2:	f841 8d18 	str.w	r8, [r1, #-24]!
 80028e6:	f04f 0903 	mov.w	r9, #3
 80028ea:	4630      	mov	r0, r6
 80028ec:	4669      	mov	r1, sp
 80028ee:	f88d 3004 	strb.w	r3, [sp, #4]
 80028f2:	f88d 4006 	strb.w	r4, [sp, #6]
 80028f6:	f88d 7007 	strb.w	r7, [sp, #7]
 80028fa:	f88d 9005 	strb.w	r9, [sp, #5]
 80028fe:	f001 f8a7 	bl	8003a50 <GPIO_Init>
 8002902:	f44f 32e1 	mov.w	r2, #115200	; 0x1c200
 8002906:	2308      	movs	r3, #8
 8002908:	4639      	mov	r1, r7
 800290a:	4628      	mov	r0, r5
 800290c:	9202      	str	r2, [sp, #8]
 800290e:	f8ad 3012 	strh.w	r3, [sp, #18]
 8002912:	f8ad 400c 	strh.w	r4, [sp, #12]
 8002916:	f8ad 400e 	strh.w	r4, [sp, #14]
 800291a:	f8ad 4010 	strh.w	r4, [sp, #16]
 800291e:	f8ad 4014 	strh.w	r4, [sp, #20]
 8002922:	f000 fa23 	bl	8002d6c <USART_OverSampling8Cmd>
 8002926:	4628      	mov	r0, r5
 8002928:	a902      	add	r1, sp, #8
 800292a:	f000 f971 	bl	8002c10 <USART_Init>
 800292e:	4639      	mov	r1, r7
 8002930:	4628      	mov	r0, r5
 8002932:	f000 fa03 	bl	8002d3c <USART_Cmd>
 8002936:	f640 1380 	movw	r3, #2432	; 0x980
 800293a:	f2c2 0300 	movt	r3, #8192	; 0x2000
 800293e:	f241 0104 	movw	r1, #4100	; 0x1004
 8002942:	f2c4 0101 	movt	r1, #16385	; 0x4001
 8002946:	6059      	str	r1, [r3, #4]
 8002948:	f44f 6180 	mov.w	r1, #1024	; 0x400
 800294c:	6199      	str	r1, [r3, #24]
 800294e:	f04f 6100 	mov.w	r1, #134217728	; 0x8000000
 8002952:	6019      	str	r1, [r3, #0]
 8002954:	f640 11bc 	movw	r1, #2492	; 0x9bc
 8002958:	f2c2 0100 	movt	r1, #8192	; 0x2000
 800295c:	f640 127e 	movw	r2, #2430	; 0x97e
 8002960:	f2c2 0200 	movt	r2, #8192	; 0x2000
 8002964:	6099      	str	r1, [r3, #8]
 8002966:	f44f 7100 	mov.w	r1, #512	; 0x200
 800296a:	6119      	str	r1, [r3, #16]
 800296c:	f44f 3100 	mov.w	r1, #131072	; 0x20000
 8002970:	615c      	str	r4, [r3, #20]
 8002972:	61dc      	str	r4, [r3, #28]
 8002974:	621c      	str	r4, [r3, #32]
 8002976:	62dc      	str	r4, [r3, #44]	; 0x2c
 8002978:	f8c3 9030 	str.w	r9, [r3, #48]	; 0x30
 800297c:	635c      	str	r4, [r3, #52]	; 0x34
 800297e:	639c      	str	r4, [r3, #56]	; 0x38
 8002980:	f8c3 800c 	str.w	r8, [r3, #12]
 8002984:	625c      	str	r4, [r3, #36]	; 0x24
 8002986:	6299      	str	r1, [r3, #40]	; 0x28
 8002988:	7014      	strb	r4, [r2, #0]
 800298a:	b007      	add	sp, #28
 800298c:	e8bd 83f0 	ldmia.w	sp!, {r4, r5, r6, r7, r8, r9, pc}

08002990 <SysTimer_Start>:
 8002990:	ee07 1a90 	vmov	s15, r1
 8002994:	ed9f 0a08 	vldr	s0, [pc, #32]	; 80029b8 <SysTimer_Start+0x28>
 8002998:	eeb8 7a67 	vcvt.f32.u32	s14, s15
 800299c:	f640 03f8 	movw	r3, #2296	; 0x8f8
 80029a0:	ee67 0a00 	vmul.f32	s1, s14, s0
 80029a4:	f2c2 0300 	movt	r3, #8192	; 0x2000
 80029a8:	eebc 1ae0 	vcvt.u32.f32	s2, s1
 80029ac:	6819      	ldr	r1, [r3, #0]
 80029ae:	ed80 1a01 	vstr	s2, [r0, #4]
 80029b2:	6001      	str	r1, [r0, #0]
 80029b4:	4770      	bx	lr
 80029b6:	bf00      	nop
 80029b8:	3dcccccd 	.word	0x3dcccccd

080029bc <SysTimer_IsTimeout>:
 80029bc:	4b08      	ldr	r3, [pc, #32]	; (80029e0 <SysTimer_IsTimeout+0x24>)
 80029be:	6802      	ldr	r2, [r0, #0]
 80029c0:	681b      	ldr	r3, [r3, #0]
 80029c2:	4293      	cmp	r3, r2
 80029c4:	d305      	bcc.n	80029d2 <SysTimer_IsTimeout+0x16>
 80029c6:	6841      	ldr	r1, [r0, #4]
 80029c8:	1a9b      	subs	r3, r3, r2
 80029ca:	428b      	cmp	r3, r1
 80029cc:	d206      	bcs.n	80029dc <SysTimer_IsTimeout+0x20>
 80029ce:	2000      	movs	r0, #0
 80029d0:	4770      	bx	lr
 80029d2:	43d2      	mvns	r2, r2
 80029d4:	6841      	ldr	r1, [r0, #4]
 80029d6:	18d0      	adds	r0, r2, r3
 80029d8:	4288      	cmp	r0, r1
 80029da:	d3f8      	bcc.n	80029ce <SysTimer_IsTimeout+0x12>
 80029dc:	2001      	movs	r0, #1
 80029de:	4770      	bx	lr
 80029e0:	200008f8 	.word	0x200008f8

080029e4 <SysTimer_uS_Start>:
 80029e4:	f24e 0210 	movw	r2, #57360	; 0xe010
 80029e8:	f640 03f8 	movw	r3, #2296	; 0x8f8
 80029ec:	f2ce 0200 	movt	r2, #57344	; 0xe000
 80029f0:	f2c2 0300 	movt	r3, #8192	; 0x2000
 80029f4:	6892      	ldr	r2, [r2, #8]
 80029f6:	681b      	ldr	r3, [r3, #0]
 80029f8:	6082      	str	r2, [r0, #8]
 80029fa:	b410      	push	{r4}
 80029fc:	24a8      	movs	r4, #168	; 0xa8
 80029fe:	fb04 f101 	mul.w	r1, r4, r1
 8002a02:	6043      	str	r3, [r0, #4]
 8002a04:	60c1      	str	r1, [r0, #12]
 8002a06:	bc10      	pop	{r4}
 8002a08:	4770      	bx	lr
 8002a0a:	bf00      	nop

08002a0c <SysTimer_uS_IsTimeout>:
 8002a0c:	68c3      	ldr	r3, [r0, #12]
 8002a0e:	b4f0      	push	{r4, r5, r6, r7}
 8002a10:	2b00      	cmp	r3, #0
 8002a12:	d03f      	beq.n	8002a94 <SysTimer_uS_IsTimeout+0x88>
 8002a14:	f24e 0210 	movw	r2, #57360	; 0xe010
 8002a18:	f2ce 0200 	movt	r2, #57344	; 0xe000
 8002a1c:	4922      	ldr	r1, [pc, #136]	; (8002aa8 <SysTimer_uS_IsTimeout+0x9c>)
 8002a1e:	6897      	ldr	r7, [r2, #8]
 8002a20:	6842      	ldr	r2, [r0, #4]
 8002a22:	680e      	ldr	r6, [r1, #0]
 8002a24:	42b2      	cmp	r2, r6
 8002a26:	d03c      	beq.n	8002aa2 <SysTimer_uS_IsTimeout+0x96>
 8002a28:	6881      	ldr	r1, [r0, #8]
 8002a2a:	428b      	cmp	r3, r1
 8002a2c:	d92d      	bls.n	8002a8a <SysTimer_uS_IsTimeout+0x7e>
 8002a2e:	3201      	adds	r2, #1
 8002a30:	1ab5      	subs	r5, r6, r2
 8002a32:	f24a 247f 	movw	r4, #41599	; 0xa27f
 8002a36:	07ed      	lsls	r5, r5, #31
 8002a38:	f2c0 0419 	movt	r4, #25
 8002a3c:	d510      	bpl.n	8002a60 <SysTimer_uS_IsTimeout+0x54>
 8002a3e:	1a5b      	subs	r3, r3, r1
 8002a40:	1c55      	adds	r5, r2, #1
 8002a42:	42a3      	cmp	r3, r4
 8002a44:	4621      	mov	r1, r4
 8002a46:	d927      	bls.n	8002a98 <SysTimer_uS_IsTimeout+0x8c>
 8002a48:	462a      	mov	r2, r5
 8002a4a:	e009      	b.n	8002a60 <SysTimer_uS_IsTimeout+0x54>
 8002a4c:	42a3      	cmp	r3, r4
 8002a4e:	f5a3 13cd 	sub.w	r3, r3, #1679360	; 0x19a000
 8002a52:	f2a3 237f 	subw	r3, r3, #639	; 0x27f
 8002a56:	d91f      	bls.n	8002a98 <SysTimer_uS_IsTimeout+0x8c>
 8002a58:	42a3      	cmp	r3, r4
 8002a5a:	462a      	mov	r2, r5
 8002a5c:	d91c      	bls.n	8002a98 <SysTimer_uS_IsTimeout+0x8c>
 8002a5e:	1c6a      	adds	r2, r5, #1
 8002a60:	1a5b      	subs	r3, r3, r1
 8002a62:	42b2      	cmp	r2, r6
 8002a64:	f24a 217f 	movw	r1, #41599	; 0xa27f
 8002a68:	f102 0501 	add.w	r5, r2, #1
 8002a6c:	f2c0 0119 	movt	r1, #25
 8002a70:	d1ec      	bne.n	8002a4c <SysTimer_uS_IsTimeout+0x40>
 8002a72:	f24a 217f 	movw	r1, #41599	; 0xa27f
 8002a76:	f2c0 0119 	movt	r1, #25
 8002a7a:	60c3      	str	r3, [r0, #12]
 8002a7c:	6042      	str	r2, [r0, #4]
 8002a7e:	6081      	str	r1, [r0, #8]
 8002a80:	428f      	cmp	r7, r1
 8002a82:	d20c      	bcs.n	8002a9e <SysTimer_uS_IsTimeout+0x92>
 8002a84:	1bca      	subs	r2, r1, r7
 8002a86:	429a      	cmp	r2, r3
 8002a88:	d909      	bls.n	8002a9e <SysTimer_uS_IsTimeout+0x92>
 8002a8a:	2100      	movs	r1, #0
 8002a8c:	60c1      	str	r1, [r0, #12]
 8002a8e:	2001      	movs	r0, #1
 8002a90:	bcf0      	pop	{r4, r5, r6, r7}
 8002a92:	4770      	bx	lr
 8002a94:	2001      	movs	r0, #1
 8002a96:	e7fb      	b.n	8002a90 <SysTimer_uS_IsTimeout+0x84>
 8002a98:	6042      	str	r2, [r0, #4]
 8002a9a:	6081      	str	r1, [r0, #8]
 8002a9c:	e7f5      	b.n	8002a8a <SysTimer_uS_IsTimeout+0x7e>
 8002a9e:	2000      	movs	r0, #0
 8002aa0:	e7f6      	b.n	8002a90 <SysTimer_uS_IsTimeout+0x84>
 8002aa2:	6881      	ldr	r1, [r0, #8]
 8002aa4:	e7ec      	b.n	8002a80 <SysTimer_uS_IsTimeout+0x74>
 8002aa6:	bf00      	nop
 8002aa8:	200008f8 	.word	0x200008f8

08002aac <SysTimer_delay_us>:
 8002aac:	f24e 0c10 	movw	ip, #57360	; 0xe010
 8002ab0:	b4f0      	push	{r4, r5, r6, r7}
 8002ab2:	f2ce 0c00 	movt	ip, #57344	; 0xe000
 8002ab6:	4f1f      	ldr	r7, [pc, #124]	; (8002b34 <SysTimer_delay_us+0x88>)
 8002ab8:	f8dc 3008 	ldr.w	r3, [ip, #8]
 8002abc:	683a      	ldr	r2, [r7, #0]
 8002abe:	f24a 217f 	movw	r1, #41599	; 0xa27f
 8002ac2:	24a8      	movs	r4, #168	; 0xa8
 8002ac4:	fb04 f000 	mul.w	r0, r4, r0
 8002ac8:	f2c0 0119 	movt	r1, #25
 8002acc:	b380      	cbz	r0, 8002b30 <SysTimer_delay_us+0x84>
 8002ace:	f8dc 6008 	ldr.w	r6, [ip, #8]
 8002ad2:	683d      	ldr	r5, [r7, #0]
 8002ad4:	4295      	cmp	r5, r2
 8002ad6:	d026      	beq.n	8002b26 <SysTimer_delay_us+0x7a>
 8002ad8:	4298      	cmp	r0, r3
 8002ada:	d929      	bls.n	8002b30 <SysTimer_delay_us+0x84>
 8002adc:	3201      	adds	r2, #1
 8002ade:	1aac      	subs	r4, r5, r2
 8002ae0:	f014 0f01 	tst.w	r4, #1
 8002ae4:	d012      	beq.n	8002b0c <SysTimer_delay_us+0x60>
 8002ae6:	1ac0      	subs	r0, r0, r3
 8002ae8:	3201      	adds	r2, #1
 8002aea:	f24a 237f 	movw	r3, #41599	; 0xa27f
 8002aee:	4288      	cmp	r0, r1
 8002af0:	f2c0 0319 	movt	r3, #25
 8002af4:	d80a      	bhi.n	8002b0c <SysTimer_delay_us+0x60>
 8002af6:	e01b      	b.n	8002b30 <SysTimer_delay_us+0x84>
 8002af8:	4288      	cmp	r0, r1
 8002afa:	f5a0 10cd 	sub.w	r0, r0, #1679360	; 0x19a000
 8002afe:	f2a0 207f 	subw	r0, r0, #639	; 0x27f
 8002b02:	f104 0201 	add.w	r2, r4, #1
 8002b06:	d913      	bls.n	8002b30 <SysTimer_delay_us+0x84>
 8002b08:	4288      	cmp	r0, r1
 8002b0a:	d911      	bls.n	8002b30 <SysTimer_delay_us+0x84>
 8002b0c:	1ac0      	subs	r0, r0, r3
 8002b0e:	42aa      	cmp	r2, r5
 8002b10:	f24a 237f 	movw	r3, #41599	; 0xa27f
 8002b14:	f102 0401 	add.w	r4, r2, #1
 8002b18:	f2c0 0319 	movt	r3, #25
 8002b1c:	d1ec      	bne.n	8002af8 <SysTimer_delay_us+0x4c>
 8002b1e:	f24a 237f 	movw	r3, #41599	; 0xa27f
 8002b22:	f2c0 0319 	movt	r3, #25
 8002b26:	429e      	cmp	r6, r3
 8002b28:	d2d0      	bcs.n	8002acc <SysTimer_delay_us+0x20>
 8002b2a:	1b9e      	subs	r6, r3, r6
 8002b2c:	42b0      	cmp	r0, r6
 8002b2e:	d2cd      	bcs.n	8002acc <SysTimer_delay_us+0x20>
 8002b30:	bcf0      	pop	{r4, r5, r6, r7}
 8002b32:	4770      	bx	lr
 8002b34:	200008f8 	.word	0x200008f8

08002b38 <output_EncoderQuadraturEncoder>:
 8002b38:	f7ff bada 	b.w	80020f0 <output_customio>

08002b3c <USART_DeInit>:
 8002b3c:	b508      	push	{r3, lr}
 8002b3e:	f44f 5380 	mov.w	r3, #4096	; 0x1000
 8002b42:	f2c4 0301 	movt	r3, #16385	; 0x4001
 8002b46:	4298      	cmp	r0, r3
 8002b48:	d028      	beq.n	8002b9c <USART_DeInit+0x60>
 8002b4a:	f44f 4188 	mov.w	r1, #17408	; 0x4400
 8002b4e:	f2c4 0100 	movt	r1, #16384	; 0x4000
 8002b52:	4288      	cmp	r0, r1
 8002b54:	d02c      	beq.n	8002bb0 <USART_DeInit+0x74>
 8002b56:	f44f 4290 	mov.w	r2, #18432	; 0x4800
 8002b5a:	f2c4 0200 	movt	r2, #16384	; 0x4000
 8002b5e:	4290      	cmp	r0, r2
 8002b60:	d032      	beq.n	8002bc8 <USART_DeInit+0x8c>
 8002b62:	f44f 4398 	mov.w	r3, #19456	; 0x4c00
 8002b66:	f2c4 0300 	movt	r3, #16384	; 0x4000
 8002b6a:	4298      	cmp	r0, r3
 8002b6c:	d038      	beq.n	8002be0 <USART_DeInit+0xa4>
 8002b6e:	f44f 41a0 	mov.w	r1, #20480	; 0x5000
 8002b72:	f2c4 0100 	movt	r1, #16384	; 0x4000
 8002b76:	4288      	cmp	r0, r1
 8002b78:	d03e      	beq.n	8002bf8 <USART_DeInit+0xbc>
 8002b7a:	f44f 52a0 	mov.w	r2, #5120	; 0x1400
 8002b7e:	f2c4 0201 	movt	r2, #16385	; 0x4001
 8002b82:	4290      	cmp	r0, r2
 8002b84:	d000      	beq.n	8002b88 <USART_DeInit+0x4c>
 8002b86:	bd08      	pop	{r3, pc}
 8002b88:	2020      	movs	r0, #32
 8002b8a:	2101      	movs	r1, #1
 8002b8c:	f7fe fcce 	bl	800152c <RCC_APB2PeriphResetCmd>
 8002b90:	2020      	movs	r0, #32
 8002b92:	2100      	movs	r1, #0
 8002b94:	e8bd 4008 	ldmia.w	sp!, {r3, lr}
 8002b98:	f7fe bcc8 	b.w	800152c <RCC_APB2PeriphResetCmd>
 8002b9c:	2010      	movs	r0, #16
 8002b9e:	2101      	movs	r1, #1
 8002ba0:	f7fe fcc4 	bl	800152c <RCC_APB2PeriphResetCmd>
 8002ba4:	2010      	movs	r0, #16
 8002ba6:	2100      	movs	r1, #0
 8002ba8:	e8bd 4008 	ldmia.w	sp!, {r3, lr}
 8002bac:	f7fe bcbe 	b.w	800152c <RCC_APB2PeriphResetCmd>
 8002bb0:	2101      	movs	r1, #1
 8002bb2:	f44f 3000 	mov.w	r0, #131072	; 0x20000
 8002bb6:	f7fe fcab 	bl	8001510 <RCC_APB1PeriphResetCmd>
 8002bba:	f44f 3000 	mov.w	r0, #131072	; 0x20000
 8002bbe:	2100      	movs	r1, #0
 8002bc0:	e8bd 4008 	ldmia.w	sp!, {r3, lr}
 8002bc4:	f7fe bca4 	b.w	8001510 <RCC_APB1PeriphResetCmd>
 8002bc8:	2101      	movs	r1, #1
 8002bca:	f44f 2080 	mov.w	r0, #262144	; 0x40000
 8002bce:	f7fe fc9f 	bl	8001510 <RCC_APB1PeriphResetCmd>
 8002bd2:	f44f 2080 	mov.w	r0, #262144	; 0x40000
 8002bd6:	2100      	movs	r1, #0
 8002bd8:	e8bd 4008 	ldmia.w	sp!, {r3, lr}
 8002bdc:	f7fe bc98 	b.w	8001510 <RCC_APB1PeriphResetCmd>
 8002be0:	2101      	movs	r1, #1
 8002be2:	f44f 2000 	mov.w	r0, #524288	; 0x80000
 8002be6:	f7fe fc93 	bl	8001510 <RCC_APB1PeriphResetCmd>
 8002bea:	f44f 2000 	mov.w	r0, #524288	; 0x80000
 8002bee:	2100      	movs	r1, #0
 8002bf0:	e8bd 4008 	ldmia.w	sp!, {r3, lr}
 8002bf4:	f7fe bc8c 	b.w	8001510 <RCC_APB1PeriphResetCmd>
 8002bf8:	2101      	movs	r1, #1
 8002bfa:	f44f 1080 	mov.w	r0, #1048576	; 0x100000
 8002bfe:	f7fe fc87 	bl	8001510 <RCC_APB1PeriphResetCmd>
 8002c02:	f44f 1080 	mov.w	r0, #1048576	; 0x100000
 8002c06:	2100      	movs	r1, #0
 8002c08:	e8bd 4008 	ldmia.w	sp!, {r3, lr}
 8002c0c:	f7fe bc80 	b.w	8001510 <RCC_APB1PeriphResetCmd>

08002c10 <USART_Init>:
 8002c10:	8a02      	ldrh	r2, [r0, #16]
 8002c12:	88cb      	ldrh	r3, [r1, #6]
 8002c14:	f422 5240 	bic.w	r2, r2, #12288	; 0x3000
 8002c18:	0412      	lsls	r2, r2, #16
 8002c1a:	b5f0      	push	{r4, r5, r6, r7, lr}
 8002c1c:	0c12      	lsrs	r2, r2, #16
 8002c1e:	4604      	mov	r4, r0
 8002c20:	431a      	orrs	r2, r3
 8002c22:	8948      	ldrh	r0, [r1, #10]
 8002c24:	890f      	ldrh	r7, [r1, #8]
 8002c26:	888e      	ldrh	r6, [r1, #4]
 8002c28:	460d      	mov	r5, r1
 8002c2a:	8989      	ldrh	r1, [r1, #12]
 8002c2c:	8222      	strh	r2, [r4, #16]
 8002c2e:	89a3      	ldrh	r3, [r4, #12]
 8002c30:	f423 52b0 	bic.w	r2, r3, #5632	; 0x1600
 8002c34:	f022 030c 	bic.w	r3, r2, #12
 8002c38:	433e      	orrs	r6, r7
 8002c3a:	041a      	lsls	r2, r3, #16
 8002c3c:	4306      	orrs	r6, r0
 8002c3e:	b2b3      	uxth	r3, r6
 8002c40:	0c10      	lsrs	r0, r2, #16
 8002c42:	ea43 0600 	orr.w	r6, r3, r0
 8002c46:	81a6      	strh	r6, [r4, #12]
 8002c48:	8aa2      	ldrh	r2, [r4, #20]
 8002c4a:	f422 7040 	bic.w	r0, r2, #768	; 0x300
 8002c4e:	0403      	lsls	r3, r0, #16
 8002c50:	0c1e      	lsrs	r6, r3, #16
 8002c52:	430e      	orrs	r6, r1
 8002c54:	b085      	sub	sp, #20
 8002c56:	82a6      	strh	r6, [r4, #20]
 8002c58:	4668      	mov	r0, sp
 8002c5a:	f7fe fb61 	bl	8001320 <RCC_GetClocksFreq>
 8002c5e:	f44f 5180 	mov.w	r1, #4096	; 0x1000
 8002c62:	f2c4 0101 	movt	r1, #16385	; 0x4001
 8002c66:	428c      	cmp	r4, r1
 8002c68:	d02c      	beq.n	8002cc4 <USART_Init+0xb4>
 8002c6a:	f44f 52a0 	mov.w	r2, #5120	; 0x1400
 8002c6e:	f2c4 0201 	movt	r2, #16385	; 0x4001
 8002c72:	4294      	cmp	r4, r2
 8002c74:	d026      	beq.n	8002cc4 <USART_Init+0xb4>
 8002c76:	89a0      	ldrh	r0, [r4, #12]
 8002c78:	9b02      	ldr	r3, [sp, #8]
 8002c7a:	b206      	sxth	r6, r0
 8002c7c:	2e00      	cmp	r6, #0
 8002c7e:	db26      	blt.n	8002cce <USART_Init+0xbe>
 8002c80:	682d      	ldr	r5, [r5, #0]
 8002c82:	eb03 0183 	add.w	r1, r3, r3, lsl #2
 8002c86:	eb01 0281 	add.w	r2, r1, r1, lsl #2
 8002c8a:	00ab      	lsls	r3, r5, #2
 8002c8c:	fbb2 f1f3 	udiv	r1, r2, r3
 8002c90:	f248 531f 	movw	r3, #34079	; 0x851f
 8002c94:	89a0      	ldrh	r0, [r4, #12]
 8002c96:	f2c5 13eb 	movt	r3, #20971	; 0x51eb
 8002c9a:	fba3 5601 	umull	r5, r6, r3, r1
 8002c9e:	0972      	lsrs	r2, r6, #5
 8002ca0:	b200      	sxth	r0, r0
 8002ca2:	2564      	movs	r5, #100	; 0x64
 8002ca4:	0116      	lsls	r6, r2, #4
 8002ca6:	2800      	cmp	r0, #0
 8002ca8:	fb02 1115 	mls	r1, r2, r5, r1
 8002cac:	db18      	blt.n	8002ce0 <USART_Init+0xd0>
 8002cae:	010d      	lsls	r5, r1, #4
 8002cb0:	3532      	adds	r5, #50	; 0x32
 8002cb2:	fba3 5305 	umull	r5, r3, r3, r5
 8002cb6:	f3c3 1243 	ubfx	r2, r3, #5, #4
 8002cba:	4332      	orrs	r2, r6
 8002cbc:	b291      	uxth	r1, r2
 8002cbe:	8121      	strh	r1, [r4, #8]
 8002cc0:	b005      	add	sp, #20
 8002cc2:	bdf0      	pop	{r4, r5, r6, r7, pc}
 8002cc4:	89a0      	ldrh	r0, [r4, #12]
 8002cc6:	9b03      	ldr	r3, [sp, #12]
 8002cc8:	b206      	sxth	r6, r0
 8002cca:	2e00      	cmp	r6, #0
 8002ccc:	dad8      	bge.n	8002c80 <USART_Init+0x70>
 8002cce:	6828      	ldr	r0, [r5, #0]
 8002cd0:	eb03 0683 	add.w	r6, r3, r3, lsl #2
 8002cd4:	eb06 0586 	add.w	r5, r6, r6, lsl #2
 8002cd8:	0042      	lsls	r2, r0, #1
 8002cda:	fbb5 f1f2 	udiv	r1, r5, r2
 8002cde:	e7d7      	b.n	8002c90 <USART_Init+0x80>
 8002ce0:	00c8      	lsls	r0, r1, #3
 8002ce2:	3032      	adds	r0, #50	; 0x32
 8002ce4:	fba3 1300 	umull	r1, r3, r3, r0
 8002ce8:	f3c3 1242 	ubfx	r2, r3, #5, #3
 8002cec:	4332      	orrs	r2, r6
 8002cee:	e7e5      	b.n	8002cbc <USART_Init+0xac>

08002cf0 <USART_StructInit>:
 8002cf0:	2300      	movs	r3, #0
 8002cf2:	f44f 5216 	mov.w	r2, #9600	; 0x2580
 8002cf6:	210c      	movs	r1, #12
 8002cf8:	6002      	str	r2, [r0, #0]
 8002cfa:	8083      	strh	r3, [r0, #4]
 8002cfc:	80c3      	strh	r3, [r0, #6]
 8002cfe:	8103      	strh	r3, [r0, #8]
 8002d00:	8141      	strh	r1, [r0, #10]
 8002d02:	8183      	strh	r3, [r0, #12]
 8002d04:	4770      	bx	lr
 8002d06:	bf00      	nop

08002d08 <USART_ClockInit>:
 8002d08:	880a      	ldrh	r2, [r1, #0]
 8002d0a:	8a03      	ldrh	r3, [r0, #16]
 8002d0c:	b430      	push	{r4, r5}
 8002d0e:	884d      	ldrh	r5, [r1, #2]
 8002d10:	888c      	ldrh	r4, [r1, #4]
 8002d12:	88c9      	ldrh	r1, [r1, #6]
 8002d14:	432a      	orrs	r2, r5
 8002d16:	f423 6370 	bic.w	r3, r3, #3840	; 0xf00
 8002d1a:	4322      	orrs	r2, r4
 8002d1c:	041b      	lsls	r3, r3, #16
 8002d1e:	430a      	orrs	r2, r1
 8002d20:	b292      	uxth	r2, r2
 8002d22:	0c19      	lsrs	r1, r3, #16
 8002d24:	ea42 0301 	orr.w	r3, r2, r1
 8002d28:	8203      	strh	r3, [r0, #16]
 8002d2a:	bc30      	pop	{r4, r5}
 8002d2c:	4770      	bx	lr
 8002d2e:	bf00      	nop

08002d30 <USART_ClockStructInit>:
 8002d30:	2300      	movs	r3, #0
 8002d32:	8003      	strh	r3, [r0, #0]
 8002d34:	8043      	strh	r3, [r0, #2]
 8002d36:	8083      	strh	r3, [r0, #4]
 8002d38:	80c3      	strh	r3, [r0, #6]
 8002d3a:	4770      	bx	lr

08002d3c <USART_Cmd>:
 8002d3c:	8983      	ldrh	r3, [r0, #12]
 8002d3e:	b929      	cbnz	r1, 8002d4c <USART_Cmd+0x10>
 8002d40:	f423 5100 	bic.w	r1, r3, #8192	; 0x2000
 8002d44:	040a      	lsls	r2, r1, #16
 8002d46:	0c13      	lsrs	r3, r2, #16
 8002d48:	8183      	strh	r3, [r0, #12]
 8002d4a:	4770      	bx	lr
 8002d4c:	b299      	uxth	r1, r3
 8002d4e:	f441 5200 	orr.w	r2, r1, #8192	; 0x2000
 8002d52:	8182      	strh	r2, [r0, #12]
 8002d54:	4770      	bx	lr
 8002d56:	bf00      	nop

08002d58 <USART_SetPrescaler>:
 8002d58:	8b03      	ldrh	r3, [r0, #24]
 8002d5a:	f403 427f 	and.w	r2, r3, #65280	; 0xff00
 8002d5e:	8302      	strh	r2, [r0, #24]
 8002d60:	8b03      	ldrh	r3, [r0, #24]
 8002d62:	b29a      	uxth	r2, r3
 8002d64:	4311      	orrs	r1, r2
 8002d66:	8301      	strh	r1, [r0, #24]
 8002d68:	4770      	bx	lr
 8002d6a:	bf00      	nop

08002d6c <USART_OverSampling8Cmd>:
 8002d6c:	8983      	ldrh	r3, [r0, #12]
 8002d6e:	b919      	cbnz	r1, 8002d78 <USART_OverSampling8Cmd+0xc>
 8002d70:	0459      	lsls	r1, r3, #17
 8002d72:	0c4a      	lsrs	r2, r1, #17
 8002d74:	8182      	strh	r2, [r0, #12]
 8002d76:	4770      	bx	lr
 8002d78:	ea6f 4343 	mvn.w	r3, r3, lsl #17
 8002d7c:	ea6f 4153 	mvn.w	r1, r3, lsr #17
 8002d80:	b28a      	uxth	r2, r1
 8002d82:	8182      	strh	r2, [r0, #12]
 8002d84:	4770      	bx	lr
 8002d86:	bf00      	nop

08002d88 <USART_OneBitMethodCmd>:
 8002d88:	8a83      	ldrh	r3, [r0, #20]
 8002d8a:	b929      	cbnz	r1, 8002d98 <USART_OneBitMethodCmd+0x10>
 8002d8c:	f423 6100 	bic.w	r1, r3, #2048	; 0x800
 8002d90:	040a      	lsls	r2, r1, #16
 8002d92:	0c13      	lsrs	r3, r2, #16
 8002d94:	8283      	strh	r3, [r0, #20]
 8002d96:	4770      	bx	lr
 8002d98:	b299      	uxth	r1, r3
 8002d9a:	f441 6200 	orr.w	r2, r1, #2048	; 0x800
 8002d9e:	8282      	strh	r2, [r0, #20]
 8002da0:	4770      	bx	lr
 8002da2:	bf00      	nop

08002da4 <USART_SendData>:
 8002da4:	05c9      	lsls	r1, r1, #23
 8002da6:	0dca      	lsrs	r2, r1, #23
 8002da8:	8082      	strh	r2, [r0, #4]
 8002daa:	4770      	bx	lr

08002dac <USART_ReceiveData>:
 8002dac:	8880      	ldrh	r0, [r0, #4]
 8002dae:	05c1      	lsls	r1, r0, #23
 8002db0:	0dc8      	lsrs	r0, r1, #23
 8002db2:	4770      	bx	lr

08002db4 <USART_SetAddress>:
 8002db4:	8a03      	ldrh	r3, [r0, #16]
 8002db6:	f023 020f 	bic.w	r2, r3, #15
 8002dba:	0413      	lsls	r3, r2, #16
 8002dbc:	0c1a      	lsrs	r2, r3, #16
 8002dbe:	8202      	strh	r2, [r0, #16]
 8002dc0:	8a03      	ldrh	r3, [r0, #16]
 8002dc2:	b29a      	uxth	r2, r3
 8002dc4:	4311      	orrs	r1, r2
 8002dc6:	8201      	strh	r1, [r0, #16]
 8002dc8:	4770      	bx	lr
 8002dca:	bf00      	nop

08002dcc <USART_ReceiverWakeUpCmd>:
 8002dcc:	8983      	ldrh	r3, [r0, #12]
 8002dce:	b929      	cbnz	r1, 8002ddc <USART_ReceiverWakeUpCmd+0x10>
 8002dd0:	f023 0102 	bic.w	r1, r3, #2
 8002dd4:	040a      	lsls	r2, r1, #16
 8002dd6:	0c13      	lsrs	r3, r2, #16
 8002dd8:	8183      	strh	r3, [r0, #12]
 8002dda:	4770      	bx	lr
 8002ddc:	b299      	uxth	r1, r3
 8002dde:	f041 0202 	orr.w	r2, r1, #2
 8002de2:	8182      	strh	r2, [r0, #12]
 8002de4:	4770      	bx	lr
 8002de6:	bf00      	nop

08002de8 <USART_WakeUpConfig>:
 8002de8:	8983      	ldrh	r3, [r0, #12]
 8002dea:	f423 6200 	bic.w	r2, r3, #2048	; 0x800
 8002dee:	0413      	lsls	r3, r2, #16
 8002df0:	0c1a      	lsrs	r2, r3, #16
 8002df2:	8182      	strh	r2, [r0, #12]
 8002df4:	8983      	ldrh	r3, [r0, #12]
 8002df6:	b29a      	uxth	r2, r3
 8002df8:	4311      	orrs	r1, r2
 8002dfa:	8181      	strh	r1, [r0, #12]
 8002dfc:	4770      	bx	lr
 8002dfe:	bf00      	nop

08002e00 <USART_LINBreakDetectLengthConfig>:
 8002e00:	8a03      	ldrh	r3, [r0, #16]
 8002e02:	f023 0220 	bic.w	r2, r3, #32
 8002e06:	0413      	lsls	r3, r2, #16
 8002e08:	0c1a      	lsrs	r2, r3, #16
 8002e0a:	8202      	strh	r2, [r0, #16]
 8002e0c:	8a03      	ldrh	r3, [r0, #16]
 8002e0e:	b29a      	uxth	r2, r3
 8002e10:	4311      	orrs	r1, r2
 8002e12:	8201      	strh	r1, [r0, #16]
 8002e14:	4770      	bx	lr
 8002e16:	bf00      	nop

08002e18 <USART_LINCmd>:
 8002e18:	8a03      	ldrh	r3, [r0, #16]
 8002e1a:	b929      	cbnz	r1, 8002e28 <USART_LINCmd+0x10>
 8002e1c:	f423 4180 	bic.w	r1, r3, #16384	; 0x4000
 8002e20:	040a      	lsls	r2, r1, #16
 8002e22:	0c13      	lsrs	r3, r2, #16
 8002e24:	8203      	strh	r3, [r0, #16]
 8002e26:	4770      	bx	lr
 8002e28:	b299      	uxth	r1, r3
 8002e2a:	f441 4280 	orr.w	r2, r1, #16384	; 0x4000
 8002e2e:	8202      	strh	r2, [r0, #16]
 8002e30:	4770      	bx	lr
 8002e32:	bf00      	nop

08002e34 <USART_SendBreak>:
 8002e34:	8983      	ldrh	r3, [r0, #12]
 8002e36:	b299      	uxth	r1, r3
 8002e38:	f041 0201 	orr.w	r2, r1, #1
 8002e3c:	8182      	strh	r2, [r0, #12]
 8002e3e:	4770      	bx	lr

08002e40 <USART_HalfDuplexCmd>:
 8002e40:	8a83      	ldrh	r3, [r0, #20]
 8002e42:	b929      	cbnz	r1, 8002e50 <USART_HalfDuplexCmd+0x10>
 8002e44:	f023 0108 	bic.w	r1, r3, #8
 8002e48:	040a      	lsls	r2, r1, #16
 8002e4a:	0c13      	lsrs	r3, r2, #16
 8002e4c:	8283      	strh	r3, [r0, #20]
 8002e4e:	4770      	bx	lr
 8002e50:	b299      	uxth	r1, r3
 8002e52:	f041 0208 	orr.w	r2, r1, #8
 8002e56:	8282      	strh	r2, [r0, #20]
 8002e58:	4770      	bx	lr
 8002e5a:	bf00      	nop

08002e5c <USART_SetGuardTime>:
 8002e5c:	8b03      	ldrh	r3, [r0, #24]
 8002e5e:	b2da      	uxtb	r2, r3
 8002e60:	8302      	strh	r2, [r0, #24]
 8002e62:	8b03      	ldrh	r3, [r0, #24]
 8002e64:	b29a      	uxth	r2, r3
 8002e66:	ea42 2101 	orr.w	r1, r2, r1, lsl #8
 8002e6a:	8301      	strh	r1, [r0, #24]
 8002e6c:	4770      	bx	lr
 8002e6e:	bf00      	nop

08002e70 <USART_SmartCardCmd>:
 8002e70:	8a83      	ldrh	r3, [r0, #20]
 8002e72:	b929      	cbnz	r1, 8002e80 <USART_SmartCardCmd+0x10>
 8002e74:	f023 0120 	bic.w	r1, r3, #32
 8002e78:	040a      	lsls	r2, r1, #16
 8002e7a:	0c13      	lsrs	r3, r2, #16
 8002e7c:	8283      	strh	r3, [r0, #20]
 8002e7e:	4770      	bx	lr
 8002e80:	b299      	uxth	r1, r3
 8002e82:	f041 0220 	orr.w	r2, r1, #32
 8002e86:	8282      	strh	r2, [r0, #20]
 8002e88:	4770      	bx	lr
 8002e8a:	bf00      	nop

08002e8c <USART_SmartCardNACKCmd>:
 8002e8c:	8a83      	ldrh	r3, [r0, #20]
 8002e8e:	b929      	cbnz	r1, 8002e9c <USART_SmartCardNACKCmd+0x10>
 8002e90:	f023 0110 	bic.w	r1, r3, #16
 8002e94:	040a      	lsls	r2, r1, #16
 8002e96:	0c13      	lsrs	r3, r2, #16
 8002e98:	8283      	strh	r3, [r0, #20]
 8002e9a:	4770      	bx	lr
 8002e9c:	b299      	uxth	r1, r3
 8002e9e:	f041 0210 	orr.w	r2, r1, #16
 8002ea2:	8282      	strh	r2, [r0, #20]
 8002ea4:	4770      	bx	lr
 8002ea6:	bf00      	nop

08002ea8 <USART_IrDAConfig>:
 8002ea8:	8a83      	ldrh	r3, [r0, #20]
 8002eaa:	f023 0204 	bic.w	r2, r3, #4
 8002eae:	0413      	lsls	r3, r2, #16
 8002eb0:	0c1a      	lsrs	r2, r3, #16
 8002eb2:	8282      	strh	r2, [r0, #20]
 8002eb4:	8a83      	ldrh	r3, [r0, #20]
 8002eb6:	b29a      	uxth	r2, r3
 8002eb8:	4311      	orrs	r1, r2
 8002eba:	8281      	strh	r1, [r0, #20]
 8002ebc:	4770      	bx	lr
 8002ebe:	bf00      	nop

08002ec0 <USART_IrDACmd>:
 8002ec0:	8a83      	ldrh	r3, [r0, #20]
 8002ec2:	b929      	cbnz	r1, 8002ed0 <USART_IrDACmd+0x10>
 8002ec4:	f023 0102 	bic.w	r1, r3, #2
 8002ec8:	040a      	lsls	r2, r1, #16
 8002eca:	0c13      	lsrs	r3, r2, #16
 8002ecc:	8283      	strh	r3, [r0, #20]
 8002ece:	4770      	bx	lr
 8002ed0:	b299      	uxth	r1, r3
 8002ed2:	f041 0202 	orr.w	r2, r1, #2
 8002ed6:	8282      	strh	r2, [r0, #20]
 8002ed8:	4770      	bx	lr
 8002eda:	bf00      	nop

08002edc <USART_DMACmd>:
 8002edc:	8a83      	ldrh	r3, [r0, #20]
 8002ede:	b29b      	uxth	r3, r3
 8002ee0:	b91a      	cbnz	r2, 8002eea <USART_DMACmd+0xe>
 8002ee2:	ea23 0101 	bic.w	r1, r3, r1
 8002ee6:	8281      	strh	r1, [r0, #20]
 8002ee8:	4770      	bx	lr
 8002eea:	4319      	orrs	r1, r3
 8002eec:	8281      	strh	r1, [r0, #20]
 8002eee:	4770      	bx	lr

08002ef0 <USART_ITConfig>:
 8002ef0:	f001 031f 	and.w	r3, r1, #31
 8002ef4:	b410      	push	{r4}
 8002ef6:	f3c1 1142 	ubfx	r1, r1, #5, #3
 8002efa:	2401      	movs	r4, #1
 8002efc:	42a1      	cmp	r1, r4
 8002efe:	fa04 f303 	lsl.w	r3, r4, r3
 8002f02:	d00d      	beq.n	8002f20 <USART_ITConfig+0x30>
 8002f04:	2902      	cmp	r1, #2
 8002f06:	d00d      	beq.n	8002f24 <USART_ITConfig+0x34>
 8002f08:	3014      	adds	r0, #20
 8002f0a:	b92a      	cbnz	r2, 8002f18 <USART_ITConfig+0x28>
 8002f0c:	6802      	ldr	r2, [r0, #0]
 8002f0e:	ea22 0103 	bic.w	r1, r2, r3
 8002f12:	6001      	str	r1, [r0, #0]
 8002f14:	bc10      	pop	{r4}
 8002f16:	4770      	bx	lr
 8002f18:	6802      	ldr	r2, [r0, #0]
 8002f1a:	4313      	orrs	r3, r2
 8002f1c:	6003      	str	r3, [r0, #0]
 8002f1e:	e7f9      	b.n	8002f14 <USART_ITConfig+0x24>
 8002f20:	300c      	adds	r0, #12
 8002f22:	e7f2      	b.n	8002f0a <USART_ITConfig+0x1a>
 8002f24:	3010      	adds	r0, #16
 8002f26:	e7f0      	b.n	8002f0a <USART_ITConfig+0x1a>

08002f28 <USART_GetFlagStatus>:
 8002f28:	8803      	ldrh	r3, [r0, #0]
 8002f2a:	4219      	tst	r1, r3
 8002f2c:	bf0c      	ite	eq
 8002f2e:	2000      	moveq	r0, #0
 8002f30:	2001      	movne	r0, #1
 8002f32:	4770      	bx	lr

08002f34 <USART_ClearFlag>:
 8002f34:	43c9      	mvns	r1, r1
 8002f36:	b28a      	uxth	r2, r1
 8002f38:	8002      	strh	r2, [r0, #0]
 8002f3a:	4770      	bx	lr

08002f3c <USART_GetITStatus>:
 8002f3c:	b410      	push	{r4}
 8002f3e:	f3c1 1342 	ubfx	r3, r1, #5, #3
 8002f42:	2401      	movs	r4, #1
 8002f44:	f001 021f 	and.w	r2, r1, #31
 8002f48:	42a3      	cmp	r3, r4
 8002f4a:	fa04 f202 	lsl.w	r2, r4, r2
 8002f4e:	d014      	beq.n	8002f7a <USART_GetITStatus+0x3e>
 8002f50:	2b02      	cmp	r3, #2
 8002f52:	bf0c      	ite	eq
 8002f54:	8a03      	ldrheq	r3, [r0, #16]
 8002f56:	8a83      	ldrhne	r3, [r0, #20]
 8002f58:	b29b      	uxth	r3, r3
 8002f5a:	4013      	ands	r3, r2
 8002f5c:	8800      	ldrh	r0, [r0, #0]
 8002f5e:	b282      	uxth	r2, r0
 8002f60:	b14b      	cbz	r3, 8002f76 <USART_GetITStatus+0x3a>
 8002f62:	0a09      	lsrs	r1, r1, #8
 8002f64:	2301      	movs	r3, #1
 8002f66:	fa03 f001 	lsl.w	r0, r3, r1
 8002f6a:	4210      	tst	r0, r2
 8002f6c:	bf0c      	ite	eq
 8002f6e:	2000      	moveq	r0, #0
 8002f70:	2001      	movne	r0, #1
 8002f72:	bc10      	pop	{r4}
 8002f74:	4770      	bx	lr
 8002f76:	4618      	mov	r0, r3
 8002f78:	e7fb      	b.n	8002f72 <USART_GetITStatus+0x36>
 8002f7a:	8983      	ldrh	r3, [r0, #12]
 8002f7c:	b29b      	uxth	r3, r3
 8002f7e:	4013      	ands	r3, r2
 8002f80:	e7ec      	b.n	8002f5c <USART_GetITStatus+0x20>
 8002f82:	bf00      	nop

08002f84 <USART_ClearITPendingBit>:
 8002f84:	0a09      	lsrs	r1, r1, #8
 8002f86:	2301      	movs	r3, #1
 8002f88:	fa03 f201 	lsl.w	r2, r3, r1
 8002f8c:	43d1      	mvns	r1, r2
 8002f8e:	b28b      	uxth	r3, r1
 8002f90:	8003      	strh	r3, [r0, #0]
 8002f92:	4770      	bx	lr

08002f94 <_exit>:
 8002f94:	e7fe      	b.n	8002f94 <_exit>
 8002f96:	bf00      	nop

08002f98 <_close>:
 8002f98:	f04f 30ff 	mov.w	r0, #4294967295
 8002f9c:	4770      	bx	lr
 8002f9e:	bf00      	nop

08002fa0 <_execve>:
 8002fa0:	f640 4360 	movw	r3, #3168	; 0xc60
 8002fa4:	f2c2 0300 	movt	r3, #8192	; 0x2000
 8002fa8:	220c      	movs	r2, #12
 8002faa:	601a      	str	r2, [r3, #0]
 8002fac:	f04f 30ff 	mov.w	r0, #4294967295
 8002fb0:	4770      	bx	lr
 8002fb2:	bf00      	nop

08002fb4 <_fork>:
 8002fb4:	f640 4360 	movw	r3, #3168	; 0xc60
 8002fb8:	f2c2 0300 	movt	r3, #8192	; 0x2000
 8002fbc:	220b      	movs	r2, #11
 8002fbe:	601a      	str	r2, [r3, #0]
 8002fc0:	f04f 30ff 	mov.w	r0, #4294967295
 8002fc4:	4770      	bx	lr
 8002fc6:	bf00      	nop

08002fc8 <_fstat>:
 8002fc8:	f44f 5300 	mov.w	r3, #8192	; 0x2000
 8002fcc:	604b      	str	r3, [r1, #4]
 8002fce:	2000      	movs	r0, #0
 8002fd0:	4770      	bx	lr
 8002fd2:	bf00      	nop

08002fd4 <_getpid>:
 8002fd4:	2001      	movs	r0, #1
 8002fd6:	4770      	bx	lr

08002fd8 <_isatty>:
 8002fd8:	2000      	movs	r0, #0
 8002fda:	4770      	bx	lr

08002fdc <_kill>:
 8002fdc:	f640 4360 	movw	r3, #3168	; 0xc60
 8002fe0:	f2c2 0300 	movt	r3, #8192	; 0x2000
 8002fe4:	2216      	movs	r2, #22
 8002fe6:	601a      	str	r2, [r3, #0]
 8002fe8:	f04f 30ff 	mov.w	r0, #4294967295
 8002fec:	4770      	bx	lr
 8002fee:	bf00      	nop

08002ff0 <_link>:
 8002ff0:	f640 4360 	movw	r3, #3168	; 0xc60
 8002ff4:	f2c2 0300 	movt	r3, #8192	; 0x2000
 8002ff8:	221f      	movs	r2, #31
 8002ffa:	601a      	str	r2, [r3, #0]
 8002ffc:	f04f 30ff 	mov.w	r0, #4294967295
 8003000:	4770      	bx	lr
 8003002:	bf00      	nop

08003004 <_lseek>:
 8003004:	2000      	movs	r0, #0
 8003006:	4770      	bx	lr

08003008 <_sbrk>:
 8003008:	4a0a      	ldr	r2, [pc, #40]	; (8003034 <_sbrk+0x2c>)
 800300a:	6813      	ldr	r3, [r2, #0]
 800300c:	b173      	cbz	r3, 800302c <_sbrk+0x24>
 800300e:	f3ef 8108 	mrs	r1, MSP
 8003012:	1818      	adds	r0, r3, r0
 8003014:	4288      	cmp	r0, r1
 8003016:	d802      	bhi.n	800301e <_sbrk+0x16>
 8003018:	6010      	str	r0, [r2, #0]
 800301a:	4618      	mov	r0, r3
 800301c:	4770      	bx	lr
 800301e:	4b06      	ldr	r3, [pc, #24]	; (8003038 <_sbrk+0x30>)
 8003020:	220c      	movs	r2, #12
 8003022:	601a      	str	r2, [r3, #0]
 8003024:	f04f 33ff 	mov.w	r3, #4294967295
 8003028:	4618      	mov	r0, r3
 800302a:	4770      	bx	lr
 800302c:	4b03      	ldr	r3, [pc, #12]	; (800303c <_sbrk+0x34>)
 800302e:	6013      	str	r3, [r2, #0]
 8003030:	e7ed      	b.n	800300e <_sbrk+0x6>
 8003032:	bf00      	nop
 8003034:	200008fc 	.word	0x200008fc
 8003038:	20000c60 	.word	0x20000c60
 800303c:	20000c64 	.word	0x20000c64

08003040 <_read>:
 8003040:	2000      	movs	r0, #0
 8003042:	4770      	bx	lr

08003044 <_stat>:
 8003044:	f44f 5300 	mov.w	r3, #8192	; 0x2000
 8003048:	604b      	str	r3, [r1, #4]
 800304a:	2000      	movs	r0, #0
 800304c:	4770      	bx	lr
 800304e:	bf00      	nop

08003050 <_times>:
 8003050:	f04f 30ff 	mov.w	r0, #4294967295
 8003054:	4770      	bx	lr
 8003056:	bf00      	nop

08003058 <_unlink>:
 8003058:	f640 4360 	movw	r3, #3168	; 0xc60
 800305c:	f2c2 0300 	movt	r3, #8192	; 0x2000
 8003060:	2202      	movs	r2, #2
 8003062:	601a      	str	r2, [r3, #0]
 8003064:	f04f 30ff 	mov.w	r0, #4294967295
 8003068:	4770      	bx	lr
 800306a:	bf00      	nop

0800306c <_wait>:
 800306c:	f640 4360 	movw	r3, #3168	; 0xc60
 8003070:	f2c2 0300 	movt	r3, #8192	; 0x2000
 8003074:	220a      	movs	r2, #10
 8003076:	601a      	str	r2, [r3, #0]
 8003078:	f04f 30ff 	mov.w	r0, #4294967295
 800307c:	4770      	bx	lr
 800307e:	bf00      	nop

08003080 <_write>:
 8003080:	2000      	movs	r0, #0
 8003082:	4770      	bx	lr

08003084 <rt_InitInfAndNaN>:
 8003084:	b508      	push	{r3, lr}
 8003086:	f7fe ff63 	bl	8001f50 <rtGetNaN>
 800308a:	f640 33d0 	movw	r3, #3024	; 0xbd0
 800308e:	f2c2 0300 	movt	r3, #8192	; 0x2000
 8003092:	ed83 0b00 	vstr	d0, [r3]
 8003096:	f7fe ff63 	bl	8001f60 <rtGetNaNF>
 800309a:	f640 30c0 	movw	r0, #3008	; 0xbc0
 800309e:	f2c2 0000 	movt	r0, #8192	; 0x2000
 80030a2:	ed80 0a00 	vstr	s0, [r0]
 80030a6:	f000 f85f 	bl	8003168 <rtGetInf>
 80030aa:	f640 31c8 	movw	r1, #3016	; 0xbc8
 80030ae:	f2c2 0100 	movt	r1, #8192	; 0x2000
 80030b2:	ed81 0b00 	vstr	d0, [r1]
 80030b6:	f000 f85f 	bl	8003178 <rtGetInfF>
 80030ba:	f640 32c4 	movw	r2, #3012	; 0xbc4
 80030be:	f2c2 0200 	movt	r2, #8192	; 0x2000
 80030c2:	ed82 0a00 	vstr	s0, [r2]
 80030c6:	f000 f85d 	bl	8003184 <rtGetMinusInf>
 80030ca:	f640 33d8 	movw	r3, #3032	; 0xbd8
 80030ce:	f2c2 0300 	movt	r3, #8192	; 0x2000
 80030d2:	ed83 0b00 	vstr	d0, [r3]
 80030d6:	f000 f85f 	bl	8003198 <rtGetMinusInfF>
 80030da:	f640 30e0 	movw	r0, #3040	; 0xbe0
 80030de:	f2c2 0000 	movt	r0, #8192	; 0x2000
 80030e2:	ed80 0a00 	vstr	s0, [r0]
 80030e6:	bd08      	pop	{r3, pc}

080030e8 <rtIsInf>:
 80030e8:	b538      	push	{r3, r4, r5, lr}
 80030ea:	ec55 4b10 	vmov	r4, r5, d0
 80030ee:	4b0c      	ldr	r3, [pc, #48]	; (8003120 <rtIsInf+0x38>)
 80030f0:	ee10 0a10 	vmov	r0, s0
 80030f4:	4629      	mov	r1, r5
 80030f6:	e9d3 2300 	ldrd	r2, r3, [r3]
 80030fa:	f001 fae5 	bl	80046c8 <__aeabi_dcmpeq>
 80030fe:	b968      	cbnz	r0, 800311c <rtIsInf+0x34>
 8003100:	4a08      	ldr	r2, [pc, #32]	; (8003124 <rtIsInf+0x3c>)
 8003102:	4629      	mov	r1, r5
 8003104:	4620      	mov	r0, r4
 8003106:	e9d2 2300 	ldrd	r2, r3, [r2]
 800310a:	f001 fadd 	bl	80046c8 <__aeabi_dcmpeq>
 800310e:	2101      	movs	r1, #1
 8003110:	b108      	cbz	r0, 8003116 <rtIsInf+0x2e>
 8003112:	b2c8      	uxtb	r0, r1
 8003114:	bd38      	pop	{r3, r4, r5, pc}
 8003116:	4601      	mov	r1, r0
 8003118:	b2c8      	uxtb	r0, r1
 800311a:	bd38      	pop	{r3, r4, r5, pc}
 800311c:	2001      	movs	r0, #1
 800311e:	bd38      	pop	{r3, r4, r5, pc}
 8003120:	20000bc8 	.word	0x20000bc8
 8003124:	20000bd8 	.word	0x20000bd8

08003128 <rtIsInfF>:
 8003128:	4b0a      	ldr	r3, [pc, #40]	; (8003154 <rtIsInfF+0x2c>)
 800312a:	edd3 7a00 	vldr	s15, [r3]
 800312e:	eeb4 0a67 	vcmp.f32	s0, s15
 8003132:	eef1 fa10 	vmrs	APSR_nzcv, fpscr
 8003136:	d00a      	beq.n	800314e <rtIsInfF+0x26>
 8003138:	4807      	ldr	r0, [pc, #28]	; (8003158 <rtIsInfF+0x30>)
 800313a:	edd0 0a00 	vldr	s1, [r0]
 800313e:	eeb4 0a60 	vcmp.f32	s0, s1
 8003142:	eef1 fa10 	vmrs	APSR_nzcv, fpscr
 8003146:	bf14      	ite	ne
 8003148:	2000      	movne	r0, #0
 800314a:	2001      	moveq	r0, #1
 800314c:	4770      	bx	lr
 800314e:	2001      	movs	r0, #1
 8003150:	4770      	bx	lr
 8003152:	bf00      	nop
 8003154:	20000bc4 	.word	0x20000bc4
 8003158:	20000be0 	.word	0x20000be0

0800315c <rtIsNaN>:
 800315c:	2000      	movs	r0, #0
 800315e:	4770      	bx	lr

08003160 <rtIsNaNF>:
 8003160:	2000      	movs	r0, #0
 8003162:	4770      	bx	lr
 8003164:	0000      	movs	r0, r0
	...

08003168 <rtGetInf>:
 8003168:	ed9f 0b01 	vldr	d0, [pc, #4]	; 8003170 <rtGetInf+0x8>
 800316c:	4770      	bx	lr
 800316e:	bf00      	nop
 8003170:	00000000 	.word	0x00000000
 8003174:	7ff00000 	.word	0x7ff00000

08003178 <rtGetInfF>:
 8003178:	ed9f 0a01 	vldr	s0, [pc, #4]	; 8003180 <rtGetInfF+0x8>
 800317c:	4770      	bx	lr
 800317e:	bf00      	nop
 8003180:	7f800000 	.word	0x7f800000

08003184 <rtGetMinusInf>:
 8003184:	ed9f 0b02 	vldr	d0, [pc, #8]	; 8003190 <rtGetMinusInf+0xc>
 8003188:	4770      	bx	lr
 800318a:	bf00      	nop
 800318c:	f3af 8000 	nop.w
 8003190:	00000000 	.word	0x00000000
 8003194:	fff00000 	.word	0xfff00000

08003198 <rtGetMinusInfF>:
 8003198:	ed9f 0a01 	vldr	s0, [pc, #4]	; 80031a0 <rtGetMinusInfF+0x8>
 800319c:	4770      	bx	lr
 800319e:	bf00      	nop
 80031a0:	ff800000 	.word	0xff800000
 80031a4:	f3af 8000 	nop.w

080031a8 <rt_modd_snf.part.0>:
 80031a8:	e92d 47f0 	stmdb	sp!, {r4, r5, r6, r7, r8, r9, sl, lr}
 80031ac:	4614      	mov	r4, r2
 80031ae:	461d      	mov	r5, r3
 80031b0:	4606      	mov	r6, r0
 80031b2:	460f      	mov	r7, r1
 80031b4:	f001 f94a 	bl	800444c <__aeabi_ddiv>
 80031b8:	ec45 4b10 	vmov	d0, r4, r5
 80031bc:	4680      	mov	r8, r0
 80031be:	4689      	mov	r9, r1
 80031c0:	f000 fdda 	bl	8003d78 <floor>
 80031c4:	4620      	mov	r0, r4
 80031c6:	4629      	mov	r1, r5
 80031c8:	ec53 2b10 	vmov	r2, r3, d0
 80031cc:	f001 fa90 	bl	80046f0 <__aeabi_dcmple>
 80031d0:	2800      	cmp	r0, #0
 80031d2:	d155      	bne.n	8003280 <rt_modd_snf.part.0+0xd8>
 80031d4:	f029 4600 	bic.w	r6, r9, #2147483648	; 0x80000000
 80031d8:	2300      	movs	r3, #0
 80031da:	4640      	mov	r0, r8
 80031dc:	4631      	mov	r1, r6
 80031de:	2200      	movs	r2, #0
 80031e0:	f2c4 3330 	movt	r3, #17200	; 0x4330
 80031e4:	f001 fa7a 	bl	80046dc <__aeabi_dcmplt>
 80031e8:	b348      	cbz	r0, 800323e <rt_modd_snf.part.0+0x96>
 80031ea:	2300      	movs	r3, #0
 80031ec:	4640      	mov	r0, r8
 80031ee:	4649      	mov	r1, r9
 80031f0:	2200      	movs	r2, #0
 80031f2:	f6c3 73e0 	movt	r3, #16352	; 0x3fe0
 80031f6:	f001 fa85 	bl	8004704 <__aeabi_dcmpge>
 80031fa:	2800      	cmp	r0, #0
 80031fc:	d15b      	bne.n	80032b6 <rt_modd_snf.part.0+0x10e>
 80031fe:	2300      	movs	r3, #0
 8003200:	4640      	mov	r0, r8
 8003202:	4649      	mov	r1, r9
 8003204:	2200      	movs	r2, #0
 8003206:	f6cb 73e0 	movt	r3, #49120	; 0xbfe0
 800320a:	f001 fa85 	bl	8004718 <__aeabi_dcmpgt>
 800320e:	2800      	cmp	r0, #0
 8003210:	d14e      	bne.n	80032b0 <rt_modd_snf.part.0+0x108>
 8003212:	2300      	movs	r3, #0
 8003214:	4640      	mov	r0, r8
 8003216:	4649      	mov	r1, r9
 8003218:	2200      	movs	r2, #0
 800321a:	f6c3 73e0 	movt	r3, #16352	; 0x3fe0
 800321e:	f000 fe37 	bl	8003e90 <__aeabi_dsub>
 8003222:	ec41 0b10 	vmov	d0, r0, r1
 8003226:	f000 fd17 	bl	8003c58 <ceil>
 800322a:	4640      	mov	r0, r8
 800322c:	4649      	mov	r1, r9
 800322e:	ec53 2b10 	vmov	r2, r3, d0
 8003232:	f000 fe2d 	bl	8003e90 <__aeabi_dsub>
 8003236:	4682      	mov	sl, r0
 8003238:	f021 4700 	bic.w	r7, r1, #2147483648	; 0x80000000
 800323c:	e001      	b.n	8003242 <rt_modd_snf.part.0+0x9a>
 800323e:	4682      	mov	sl, r0
 8003240:	4607      	mov	r7, r0
 8003242:	2300      	movs	r3, #0
 8003244:	2200      	movs	r2, #0
 8003246:	f6c3 43b0 	movt	r3, #15536	; 0x3cb0
 800324a:	4640      	mov	r0, r8
 800324c:	4631      	mov	r1, r6
 800324e:	f000 ffd3 	bl	80041f8 <__aeabi_dmul>
 8003252:	4652      	mov	r2, sl
 8003254:	463b      	mov	r3, r7
 8003256:	f001 fa55 	bl	8004704 <__aeabi_dcmpge>
 800325a:	bb28      	cbnz	r0, 80032a8 <rt_modd_snf.part.0+0x100>
 800325c:	4642      	mov	r2, r8
 800325e:	464b      	mov	r3, r9
 8003260:	ec43 2b10 	vmov	d0, r2, r3
 8003264:	f000 fd88 	bl	8003d78 <floor>
 8003268:	4640      	mov	r0, r8
 800326a:	ec53 2b10 	vmov	r2, r3, d0
 800326e:	4649      	mov	r1, r9
 8003270:	f000 fe0e 	bl	8003e90 <__aeabi_dsub>
 8003274:	4622      	mov	r2, r4
 8003276:	462b      	mov	r3, r5
 8003278:	f000 ffbe 	bl	80041f8 <__aeabi_dmul>
 800327c:	e8bd 87f0 	ldmia.w	sp!, {r4, r5, r6, r7, r8, r9, sl, pc}
 8003280:	4642      	mov	r2, r8
 8003282:	464b      	mov	r3, r9
 8003284:	ec43 2b10 	vmov	d0, r2, r3
 8003288:	f000 fd76 	bl	8003d78 <floor>
 800328c:	4622      	mov	r2, r4
 800328e:	462b      	mov	r3, r5
 8003290:	ec51 0b10 	vmov	r0, r1, d0
 8003294:	f000 ffb0 	bl	80041f8 <__aeabi_dmul>
 8003298:	4602      	mov	r2, r0
 800329a:	460b      	mov	r3, r1
 800329c:	4630      	mov	r0, r6
 800329e:	4639      	mov	r1, r7
 80032a0:	f000 fdf6 	bl	8003e90 <__aeabi_dsub>
 80032a4:	e8bd 87f0 	ldmia.w	sp!, {r4, r5, r6, r7, r8, r9, sl, pc}
 80032a8:	2000      	movs	r0, #0
 80032aa:	2100      	movs	r1, #0
 80032ac:	e8bd 87f0 	ldmia.w	sp!, {r4, r5, r6, r7, r8, r9, sl, pc}
 80032b0:	46c2      	mov	sl, r8
 80032b2:	4637      	mov	r7, r6
 80032b4:	e7c5      	b.n	8003242 <rt_modd_snf.part.0+0x9a>
 80032b6:	2300      	movs	r3, #0
 80032b8:	4640      	mov	r0, r8
 80032ba:	4649      	mov	r1, r9
 80032bc:	2200      	movs	r2, #0
 80032be:	f6c3 73e0 	movt	r3, #16352	; 0x3fe0
 80032c2:	f000 fde7 	bl	8003e94 <__adddf3>
 80032c6:	ec41 0b10 	vmov	d0, r0, r1
 80032ca:	f000 fd55 	bl	8003d78 <floor>
 80032ce:	e7ac      	b.n	800322a <rt_modd_snf.part.0+0x82>

080032d0 <rt_roundd_snf>:
 80032d0:	b570      	push	{r4, r5, r6, lr}
 80032d2:	ee10 4a90 	vmov	r4, s1
 80032d6:	2300      	movs	r3, #0
 80032d8:	ee10 0a10 	vmov	r0, s0
 80032dc:	f024 4100 	bic.w	r1, r4, #2147483648	; 0x80000000
 80032e0:	2200      	movs	r2, #0
 80032e2:	f2c4 3330 	movt	r3, #17200	; 0x4330
 80032e6:	ee10 5a10 	vmov	r5, s0
 80032ea:	f001 f9f7 	bl	80046dc <__aeabi_dcmplt>
 80032ee:	b310      	cbz	r0, 8003336 <rt_roundd_snf+0x66>
 80032f0:	2300      	movs	r3, #0
 80032f2:	4621      	mov	r1, r4
 80032f4:	2200      	movs	r2, #0
 80032f6:	f6c3 73e0 	movt	r3, #16352	; 0x3fe0
 80032fa:	4628      	mov	r0, r5
 80032fc:	f001 fa02 	bl	8004704 <__aeabi_dcmpge>
 8003300:	4606      	mov	r6, r0
 8003302:	4621      	mov	r1, r4
 8003304:	4628      	mov	r0, r5
 8003306:	2200      	movs	r2, #0
 8003308:	2300      	movs	r3, #0
 800330a:	b9ce      	cbnz	r6, 8003340 <rt_roundd_snf+0x70>
 800330c:	f6cb 73e0 	movt	r3, #49120	; 0xbfe0
 8003310:	f001 fa02 	bl	8004718 <__aeabi_dcmpgt>
 8003314:	b968      	cbnz	r0, 8003332 <rt_roundd_snf+0x62>
 8003316:	2300      	movs	r3, #0
 8003318:	4628      	mov	r0, r5
 800331a:	4621      	mov	r1, r4
 800331c:	2200      	movs	r2, #0
 800331e:	f6c3 73e0 	movt	r3, #16352	; 0x3fe0
 8003322:	f000 fdb5 	bl	8003e90 <__aeabi_dsub>
 8003326:	ec41 0b10 	vmov	d0, r0, r1
 800332a:	e8bd 4070 	ldmia.w	sp!, {r4, r5, r6, lr}
 800332e:	f000 bc93 	b.w	8003c58 <ceil>
 8003332:	4635      	mov	r5, r6
 8003334:	4634      	mov	r4, r6
 8003336:	462a      	mov	r2, r5
 8003338:	4623      	mov	r3, r4
 800333a:	ec43 2b10 	vmov	d0, r2, r3
 800333e:	bd70      	pop	{r4, r5, r6, pc}
 8003340:	f6c3 73e0 	movt	r3, #16352	; 0x3fe0
 8003344:	f000 fda6 	bl	8003e94 <__adddf3>
 8003348:	ec41 0b10 	vmov	d0, r0, r1
 800334c:	e8bd 4070 	ldmia.w	sp!, {r4, r5, r6, lr}
 8003350:	f000 bd12 	b.w	8003d78 <floor>

08003354 <rt_modd_snf>:
 8003354:	b508      	push	{r3, lr}
 8003356:	2200      	movs	r2, #0
 8003358:	ed2d 8b04 	vpush	{d8-d9}
 800335c:	eeb0 8a40 	vmov.f32	s16, s0
 8003360:	eef0 8a60 	vmov.f32	s17, s1
 8003364:	eeb0 9a41 	vmov.f32	s18, s2
 8003368:	eef0 9a61 	vmov.f32	s19, s3
 800336c:	2300      	movs	r3, #0
 800336e:	ec51 0b11 	vmov	r0, r1, d1
 8003372:	f001 f9a9 	bl	80046c8 <__aeabi_dcmpeq>
 8003376:	eeb0 0a48 	vmov.f32	s0, s16
 800337a:	eef0 0a68 	vmov.f32	s1, s17
 800337e:	b110      	cbz	r0, 8003386 <rt_modd_snf+0x32>
 8003380:	ecbd 8b04 	vpop	{d8-d9}
 8003384:	bd08      	pop	{r3, pc}
 8003386:	f7ff fee9 	bl	800315c <rtIsNaN>
 800338a:	b118      	cbz	r0, 8003394 <rt_modd_snf+0x40>
 800338c:	4b12      	ldr	r3, [pc, #72]	; (80033d8 <rt_modd_snf+0x84>)
 800338e:	ed93 0b00 	vldr	d0, [r3]
 8003392:	e7f5      	b.n	8003380 <rt_modd_snf+0x2c>
 8003394:	eeb0 0a48 	vmov.f32	s0, s16
 8003398:	eef0 0a68 	vmov.f32	s1, s17
 800339c:	f7ff fea4 	bl	80030e8 <rtIsInf>
 80033a0:	2800      	cmp	r0, #0
 80033a2:	d1f3      	bne.n	800338c <rt_modd_snf+0x38>
 80033a4:	eeb0 0a49 	vmov.f32	s0, s18
 80033a8:	eef0 0a69 	vmov.f32	s1, s19
 80033ac:	f7ff fed6 	bl	800315c <rtIsNaN>
 80033b0:	2800      	cmp	r0, #0
 80033b2:	d1eb      	bne.n	800338c <rt_modd_snf+0x38>
 80033b4:	eeb0 0a49 	vmov.f32	s0, s18
 80033b8:	eef0 0a69 	vmov.f32	s1, s19
 80033bc:	f7ff fe94 	bl	80030e8 <rtIsInf>
 80033c0:	2800      	cmp	r0, #0
 80033c2:	d1e3      	bne.n	800338c <rt_modd_snf+0x38>
 80033c4:	ec51 0b18 	vmov	r0, r1, d8
 80033c8:	ec53 2b19 	vmov	r2, r3, d9
 80033cc:	f7ff feec 	bl	80031a8 <rt_modd_snf.part.0>
 80033d0:	ec41 0b10 	vmov	d0, r0, r1
 80033d4:	e7d4      	b.n	8003380 <rt_modd_snf+0x2c>
 80033d6:	bf00      	nop
 80033d8:	20000bd0 	.word	0x20000bd0

080033dc <balanceLQR_step>:
 80033dc:	f44f 7300 	mov.w	r3, #512	; 0x200
 80033e0:	e92d 4ff0 	stmdb	sp!, {r4, r5, r6, r7, r8, r9, sl, fp, lr}
 80033e4:	f2c4 2340 	movt	r3, #16960	; 0x4240
 80033e8:	4ead      	ldr	r6, [pc, #692]	; (80036a0 <balanceLQR_step+0x2c4>)
 80033ea:	681c      	ldr	r4, [r3, #0]
 80033ec:	4fad      	ldr	r7, [pc, #692]	; (80036a4 <balanceLQR_step+0x2c8>)
 80033ee:	b2e5      	uxtb	r5, r4
 80033f0:	b08b      	sub	sp, #44	; 0x2c
 80033f2:	4628      	mov	r0, r5
 80033f4:	4629      	mov	r1, r5
 80033f6:	f106 0248 	add.w	r2, r6, #72	; 0x48
 80033fa:	f106 034c 	add.w	r3, r6, #76	; 0x4c
 80033fe:	f886 5050 	strb.w	r5, [r6, #80]	; 0x50
 8003402:	f7ff fb99 	bl	8002b38 <output_EncoderQuadraturEncoder>
 8003406:	f106 0048 	add.w	r0, r6, #72	; 0x48
 800340a:	4631      	mov	r1, r6
 800340c:	f000 fa78 	bl	8003900 <pulsetoangle_Outputs_wrapper>
 8003410:	e9d7 8908 	ldrd	r8, r9, [r7, #32]
 8003414:	2200      	movs	r2, #0
 8003416:	2300      	movs	r3, #0
 8003418:	4640      	mov	r0, r8
 800341a:	4649      	mov	r1, r9
 800341c:	e9d6 4500 	ldrd	r4, r5, [r6]
 8003420:	f001 f952 	bl	80046c8 <__aeabi_dcmpeq>
 8003424:	2800      	cmp	r0, #0
 8003426:	f000 81c4 	beq.w	80037b2 <balanceLQR_step+0x3d6>
 800342a:	e9d7 230a 	ldrd	r2, r3, [r7, #40]	; 0x28
 800342e:	4620      	mov	r0, r4
 8003430:	4629      	mov	r1, r5
 8003432:	f000 fd2d 	bl	8003e90 <__aeabi_dsub>
 8003436:	f8df a27c 	ldr.w	sl, [pc, #636]	; 80036b4 <balanceLQR_step+0x2d8>
 800343a:	4604      	mov	r4, r0
 800343c:	460d      	mov	r5, r1
 800343e:	e9da 2300 	ldrd	r2, r3, [sl]
 8003442:	e9c6 4502 	strd	r4, r5, [r6, #8]
 8003446:	f000 fd23 	bl	8003e90 <__aeabi_dsub>
 800344a:	e9d7 230e 	ldrd	r2, r3, [r7, #56]	; 0x38
 800344e:	f000 fed3 	bl	80041f8 <__aeabi_dmul>
 8003452:	a385      	add	r3, pc, #532	; (adr r3, 8003668 <balanceLQR_step+0x28c>)
 8003454:	e9d3 2300 	ldrd	r2, r3, [r3]
 8003458:	4680      	mov	r8, r0
 800345a:	4689      	mov	r9, r1
 800345c:	4620      	mov	r0, r4
 800345e:	4629      	mov	r1, r5
 8003460:	e9c6 8904 	strd	r8, r9, [r6, #16]
 8003464:	f001 f94e 	bl	8004704 <__aeabi_dcmpge>
 8003468:	b180      	cbz	r0, 800348c <balanceLQR_step+0xb0>
 800346a:	4620      	mov	r0, r4
 800346c:	4629      	mov	r1, r5
 800346e:	a380      	add	r3, pc, #512	; (adr r3, 8003670 <balanceLQR_step+0x294>)
 8003470:	e9d3 2300 	ldrd	r2, r3, [r3]
 8003474:	f001 f932 	bl	80046dc <__aeabi_dcmplt>
 8003478:	b140      	cbz	r0, 800348c <balanceLQR_step+0xb0>
 800347a:	4640      	mov	r0, r8
 800347c:	4649      	mov	r1, r9
 800347e:	2200      	movs	r2, #0
 8003480:	2300      	movs	r3, #0
 8003482:	f001 f935 	bl	80046f0 <__aeabi_dcmple>
 8003486:	2800      	cmp	r0, #0
 8003488:	f040 81af 	bne.w	80037ea <balanceLQR_step+0x40e>
 800348c:	4620      	mov	r0, r4
 800348e:	4629      	mov	r1, r5
 8003490:	a379      	add	r3, pc, #484	; (adr r3, 8003678 <balanceLQR_step+0x29c>)
 8003492:	e9d3 2300 	ldrd	r2, r3, [r3]
 8003496:	f001 f921 	bl	80046dc <__aeabi_dcmplt>
 800349a:	2800      	cmp	r0, #0
 800349c:	f040 815b 	bne.w	8003756 <balanceLQR_step+0x37a>
 80034a0:	2100      	movs	r1, #0
 80034a2:	9100      	str	r1, [sp, #0]
 80034a4:	468b      	mov	fp, r1
 80034a6:	4620      	mov	r0, r4
 80034a8:	4629      	mov	r1, r5
 80034aa:	a375      	add	r3, pc, #468	; (adr r3, 8003680 <balanceLQR_step+0x2a4>)
 80034ac:	e9d3 2300 	ldrd	r2, r3, [r3]
 80034b0:	f001 f914 	bl	80046dc <__aeabi_dcmplt>
 80034b4:	b148      	cbz	r0, 80034ca <balanceLQR_step+0xee>
 80034b6:	4620      	mov	r0, r4
 80034b8:	4629      	mov	r1, r5
 80034ba:	a373      	add	r3, pc, #460	; (adr r3, 8003688 <balanceLQR_step+0x2ac>)
 80034bc:	e9d3 2300 	ldrd	r2, r3, [r3]
 80034c0:	f001 f92a 	bl	8004718 <__aeabi_dcmpgt>
 80034c4:	2800      	cmp	r0, #0
 80034c6:	f040 8165 	bne.w	8003794 <balanceLQR_step+0x3b8>
 80034ca:	ed9f 7b71 	vldr	d7, [pc, #452]	; 8003690 <balanceLQR_step+0x2b4>
 80034ce:	ed8d 7b06 	vstr	d7, [sp, #24]
 80034d2:	4875      	ldr	r0, [pc, #468]	; (80036a8 <balanceLQR_step+0x2cc>)
 80034d4:	f1a0 0134 	sub.w	r1, r0, #52	; 0x34
 80034d8:	f7fe fa6e 	bl	80019b8 <pulsetoangle1_Outputs_wrapper>
 80034dc:	e9d7 8910 	ldrd	r8, r9, [r7, #64]	; 0x40
 80034e0:	2200      	movs	r2, #0
 80034e2:	2300      	movs	r3, #0
 80034e4:	4640      	mov	r0, r8
 80034e6:	4649      	mov	r1, r9
 80034e8:	e9d6 4506 	ldrd	r4, r5, [r6, #24]
 80034ec:	f001 f8ec 	bl	80046c8 <__aeabi_dcmpeq>
 80034f0:	2800      	cmp	r0, #0
 80034f2:	f000 8154 	beq.w	800379e <balanceLQR_step+0x3c2>
 80034f6:	4629      	mov	r1, r5
 80034f8:	f8df 91bc 	ldr.w	r9, [pc, #444]	; 80036b8 <balanceLQR_step+0x2dc>
 80034fc:	f8df 81a4 	ldr.w	r8, [pc, #420]	; 80036a4 <balanceLQR_step+0x2c8>
 8003500:	4620      	mov	r0, r4
 8003502:	e9d7 2312 	ldrd	r2, r3, [r7, #72]	; 0x48
 8003506:	f000 fcc3 	bl	8003e90 <__aeabi_dsub>
 800350a:	f8b9 5006 	ldrh.w	r5, [r9, #6]
 800350e:	e9cd 0102 	strd	r0, r1, [sp, #8]
 8003512:	2d00      	cmp	r5, #0
 8003514:	f000 80fa 	beq.w	800370c <balanceLQR_step+0x330>
 8003518:	e9d6 4508 	ldrd	r4, r5, [r6, #32]
 800351c:	4622      	mov	r2, r4
 800351e:	462b      	mov	r3, r5
 8003520:	e9dd 0102 	ldrd	r0, r1, [sp, #8]
 8003524:	f000 fcb4 	bl	8003e90 <__aeabi_dsub>
 8003528:	e9cd 0104 	strd	r0, r1, [sp, #16]
 800352c:	ed9d 1b04 	vldr	d1, [sp, #16]
 8003530:	e9da 2302 	ldrd	r2, r3, [sl, #8]
 8003534:	e9dd 0102 	ldrd	r0, r1, [sp, #8]
 8003538:	ed86 1b0a 	vstr	d1, [r6, #40]	; 0x28
 800353c:	f000 fca8 	bl	8003e90 <__aeabi_dsub>
 8003540:	e9d7 231e 	ldrd	r2, r3, [r7, #120]	; 0x78
 8003544:	f000 fe58 	bl	80041f8 <__aeabi_dmul>
 8003548:	e9dd 2306 	ldrd	r2, r3, [sp, #24]
 800354c:	4604      	mov	r4, r0
 800354e:	460d      	mov	r5, r1
 8003550:	e9d7 0120 	ldrd	r0, r1, [r7, #128]	; 0x80
 8003554:	f8df 8148 	ldr.w	r8, [pc, #328]	; 80036a0 <balanceLQR_step+0x2c4>
 8003558:	4f52      	ldr	r7, [pc, #328]	; (80036a4 <balanceLQR_step+0x2c8>)
 800355a:	e9c6 450c 	strd	r4, r5, [r6, #48]	; 0x30
 800355e:	f001 f8db 	bl	8004718 <__aeabi_dcmpgt>
 8003562:	2800      	cmp	r0, #0
 8003564:	d031      	beq.n	80035ca <balanceLQR_step+0x1ee>
 8003566:	e9d7 2302 	ldrd	r2, r3, [r7, #8]
 800356a:	e9d8 0104 	ldrd	r0, r1, [r8, #16]
 800356e:	f000 fe43 	bl	80041f8 <__aeabi_dmul>
 8003572:	e9d7 2300 	ldrd	r2, r3, [r7]
 8003576:	e9cd 0100 	strd	r0, r1, [sp]
 800357a:	e9d8 0102 	ldrd	r0, r1, [r8, #8]
 800357e:	f000 fe3b 	bl	80041f8 <__aeabi_dmul>
 8003582:	4602      	mov	r2, r0
 8003584:	460b      	mov	r3, r1
 8003586:	e9dd 0100 	ldrd	r0, r1, [sp]
 800358a:	f000 fc83 	bl	8003e94 <__adddf3>
 800358e:	e9d7 2306 	ldrd	r2, r3, [r7, #24]
 8003592:	e9cd 0100 	strd	r0, r1, [sp]
 8003596:	4620      	mov	r0, r4
 8003598:	4629      	mov	r1, r5
 800359a:	f000 fe2d 	bl	80041f8 <__aeabi_dmul>
 800359e:	4602      	mov	r2, r0
 80035a0:	460b      	mov	r3, r1
 80035a2:	e9dd 0100 	ldrd	r0, r1, [sp]
 80035a6:	f000 fc75 	bl	8003e94 <__adddf3>
 80035aa:	e9d7 2304 	ldrd	r2, r3, [r7, #16]
 80035ae:	4604      	mov	r4, r0
 80035b0:	460d      	mov	r5, r1
 80035b2:	e9dd 0104 	ldrd	r0, r1, [sp, #16]
 80035b6:	f000 fe1f 	bl	80041f8 <__aeabi_dmul>
 80035ba:	4602      	mov	r2, r0
 80035bc:	460b      	mov	r3, r1
 80035be:	4620      	mov	r0, r4
 80035c0:	4629      	mov	r1, r5
 80035c2:	f000 fc67 	bl	8003e94 <__adddf3>
 80035c6:	9000      	str	r0, [sp, #0]
 80035c8:	468b      	mov	fp, r1
 80035ca:	9800      	ldr	r0, [sp, #0]
 80035cc:	4659      	mov	r1, fp
 80035ce:	2200      	movs	r2, #0
 80035d0:	2300      	movs	r3, #0
 80035d2:	f001 f883 	bl	80046dc <__aeabi_dcmplt>
 80035d6:	2800      	cmp	r0, #0
 80035d8:	f040 80f4 	bne.w	80037c4 <balanceLQR_step+0x3e8>
 80035dc:	9800      	ldr	r0, [sp, #0]
 80035de:	4659      	mov	r1, fp
 80035e0:	a32d      	add	r3, pc, #180	; (adr r3, 8003698 <balanceLQR_step+0x2bc>)
 80035e2:	e9d3 2300 	ldrd	r2, r3, [r3]
 80035e6:	f000 fe07 	bl	80041f8 <__aeabi_dmul>
 80035ea:	ed9f 2b29 	vldr	d2, [pc, #164]	; 8003690 <balanceLQR_step+0x2b4>
 80035ee:	4604      	mov	r4, r0
 80035f0:	460d      	mov	r5, r1
 80035f2:	2701      	movs	r7, #1
 80035f4:	2300      	movs	r3, #0
 80035f6:	2200      	movs	r2, #0
 80035f8:	f2c4 0345 	movt	r3, #16453	; 0x4045
 80035fc:	4620      	mov	r0, r4
 80035fe:	4629      	mov	r1, r5
 8003600:	ed86 2b10 	vstr	d2, [r6, #64]	; 0x40
 8003604:	e9c6 450e 	strd	r4, r5, [r6, #56]	; 0x38
 8003608:	f000 fdf6 	bl	80041f8 <__aeabi_dmul>
 800360c:	f001 f88e 	bl	800472c <__aeabi_d2uiz>
 8003610:	f44f 6180 	mov.w	r1, #1024	; 0x400
 8003614:	f248 23b0 	movw	r3, #33456	; 0x82b0
 8003618:	f2c4 0100 	movt	r1, #16384	; 0x4000
 800361c:	f2c4 2341 	movt	r3, #16961	; 0x4241
 8003620:	4a22      	ldr	r2, [pc, #136]	; (80036ac <balanceLQR_step+0x2d0>)
 8003622:	6348      	str	r0, [r1, #52]	; 0x34
 8003624:	601f      	str	r7, [r3, #0]
 8003626:	ca03      	ldmia	r2!, {r0, r1}
 8003628:	4b21      	ldr	r3, [pc, #132]	; (80036b0 <balanceLQR_step+0x2d4>)
 800362a:	4614      	mov	r4, r2
 800362c:	f8c3 0002 	str.w	r0, [r3, #2]
 8003630:	f8c3 1006 	str.w	r1, [r3, #6]
 8003634:	cc03      	ldmia	r4!, {r0, r1}
 8003636:	f102 0418 	add.w	r4, r2, #24
 800363a:	f8c3 000a 	str.w	r0, [r3, #10]
 800363e:	f8c3 100e 	str.w	r1, [r3, #14]
 8003642:	cc03      	ldmia	r4!, {r0, r1}
 8003644:	f102 0420 	add.w	r4, r2, #32
 8003648:	f8c3 0012 	str.w	r0, [r3, #18]
 800364c:	f8c3 1016 	str.w	r1, [r3, #22]
 8003650:	cc03      	ldmia	r4!, {r0, r1}
 8003652:	3228      	adds	r2, #40	; 0x28
 8003654:	f8c3 001a 	str.w	r0, [r3, #26]
 8003658:	f8c3 101e 	str.w	r1, [r3, #30]
 800365c:	ca03      	ldmia	r2!, {r0, r1}
 800365e:	f8c3 0022 	str.w	r0, [r3, #34]	; 0x22
 8003662:	e02b      	b.n	80036bc <balanceLQR_step+0x2e0>
 8003664:	f3af 8000 	nop.w
 8003668:	54442d18 	.word	0x54442d18
 800366c:	c00921fb 	.word	0xc00921fb
 8003670:	54442d18 	.word	0x54442d18
 8003674:	bff921fb 	.word	0xbff921fb
 8003678:	54442d18 	.word	0x54442d18
 800367c:	400921fb 	.word	0x400921fb
 8003680:	189374bc 	.word	0x189374bc
 8003684:	3fd65604 	.word	0x3fd65604
 8003688:	189374bc 	.word	0x189374bc
 800368c:	bfd65604 	.word	0xbfd65604
 8003690:	00000000 	.word	0x00000000
 8003694:	3ff00000 	.word	0x3ff00000
 8003698:	aaaaaaaa 	.word	0xaaaaaaaa
 800369c:	4010aaaa 	.word	0x4010aaaa
 80036a0:	20000bf0 	.word	0x20000bf0
 80036a4:	20000030 	.word	0x20000030
 80036a8:	20000c3c 	.word	0x20000c3c
 80036ac:	20000bf8 	.word	0x20000bf8
 80036b0:	20000948 	.word	0x20000948
 80036b4:	20000c48 	.word	0x20000c48
 80036b8:	20000be8 	.word	0x20000be8
 80036bc:	f8c3 1026 	str.w	r1, [r3, #38]	; 0x26
 80036c0:	ca03      	ldmia	r2!, {r0, r1}
 80036c2:	247e      	movs	r4, #126	; 0x7e
 80036c4:	2203      	movs	r2, #3
 80036c6:	f8c3 002a 	str.w	r0, [r3, #42]	; 0x2a
 80036ca:	f8c3 102e 	str.w	r1, [r3, #46]	; 0x2e
 80036ce:	4618      	mov	r0, r3
 80036d0:	2134      	movs	r1, #52	; 0x34
 80036d2:	f883 2032 	strb.w	r2, [r3, #50]	; 0x32
 80036d6:	f883 2033 	strb.w	r2, [r3, #51]	; 0x33
 80036da:	701c      	strb	r4, [r3, #0]
 80036dc:	705c      	strb	r4, [r3, #1]
 80036de:	f7fe ff29 	bl	8002534 <UARTTxBlockingWrite>
 80036e2:	f8b9 0006 	ldrh.w	r0, [r9, #6]
 80036e6:	4968      	ldr	r1, [pc, #416]	; (8003888 <balanceLQR_step+0x4ac>)
 80036e8:	1c43      	adds	r3, r0, #1
 80036ea:	b29a      	uxth	r2, r3
 80036ec:	ed96 3b02 	vldr	d3, [r6, #8]
 80036f0:	ed9d 4b02 	vldr	d4, [sp, #8]
 80036f4:	f5b2 7ffa 	cmp.w	r2, #500	; 0x1f4
 80036f8:	bf28      	it	cs
 80036fa:	2200      	movcs	r2, #0
 80036fc:	ed8a 3b00 	vstr	d3, [sl]
 8003700:	ed8a 4b02 	vstr	d4, [sl, #8]
 8003704:	80ca      	strh	r2, [r1, #6]
 8003706:	b00b      	add	sp, #44	; 0x2c
 8003708:	e8bd 8ff0 	ldmia.w	sp!, {r4, r5, r6, r7, r8, r9, sl, fp, pc}
 800370c:	f8da 0010 	ldr.w	r0, [sl, #16]
 8003710:	9004      	str	r0, [sp, #16]
 8003712:	f000 fd0b 	bl	800412c <__aeabi_i2d>
 8003716:	e9d8 2318 	ldrd	r2, r3, [r8, #96]	; 0x60
 800371a:	e9cd 0108 	strd	r0, r1, [sp, #32]
 800371e:	f000 ffdd 	bl	80046dc <__aeabi_dcmplt>
 8003722:	2800      	cmp	r0, #0
 8003724:	d130      	bne.n	8003788 <balanceLQR_step+0x3ac>
 8003726:	2400      	movs	r4, #0
 8003728:	2500      	movs	r5, #0
 800372a:	2300      	movs	r3, #0
 800372c:	2200      	movs	r2, #0
 800372e:	f6c3 73f0 	movt	r3, #16368	; 0x3ff0
 8003732:	e9d7 0116 	ldrd	r0, r1, [r7, #88]	; 0x58
 8003736:	e9c6 4508 	strd	r4, r5, [r6, #32]
 800373a:	f000 fba9 	bl	8003e90 <__aeabi_dsub>
 800373e:	4602      	mov	r2, r0
 8003740:	460b      	mov	r3, r1
 8003742:	e9dd 0108 	ldrd	r0, r1, [sp, #32]
 8003746:	f000 ffdd 	bl	8004704 <__aeabi_dcmpge>
 800374a:	2800      	cmp	r0, #0
 800374c:	d048      	beq.n	80037e0 <balanceLQR_step+0x404>
 800374e:	2000      	movs	r0, #0
 8003750:	f8ca 0010 	str.w	r0, [sl, #16]
 8003754:	e6e2      	b.n	800351c <balanceLQR_step+0x140>
 8003756:	4620      	mov	r0, r4
 8003758:	4629      	mov	r1, r5
 800375a:	a345      	add	r3, pc, #276	; (adr r3, 8003870 <balanceLQR_step+0x494>)
 800375c:	e9d3 2300 	ldrd	r2, r3, [r3]
 8003760:	f000 ffda 	bl	8004718 <__aeabi_dcmpgt>
 8003764:	2800      	cmp	r0, #0
 8003766:	f43f ae9b 	beq.w	80034a0 <balanceLQR_step+0xc4>
 800376a:	4640      	mov	r0, r8
 800376c:	4649      	mov	r1, r9
 800376e:	2200      	movs	r2, #0
 8003770:	2300      	movs	r3, #0
 8003772:	f000 ffd1 	bl	8004718 <__aeabi_dcmpgt>
 8003776:	2800      	cmp	r0, #0
 8003778:	d03e      	beq.n	80037f8 <balanceLQR_step+0x41c>
 800377a:	f04f 0b00 	mov.w	fp, #0
 800377e:	f8cd b000 	str.w	fp, [sp]
 8003782:	f2cc 0b24 	movt	fp, #49188	; 0xc024
 8003786:	e68e      	b.n	80034a6 <balanceLQR_step+0xca>
 8003788:	9904      	ldr	r1, [sp, #16]
 800378a:	2900      	cmp	r1, #0
 800378c:	dbcb      	blt.n	8003726 <balanceLQR_step+0x34a>
 800378e:	e9d8 4514 	ldrd	r4, r5, [r8, #80]	; 0x50
 8003792:	e7ca      	b.n	800372a <balanceLQR_step+0x34e>
 8003794:	ed9f 0b38 	vldr	d0, [pc, #224]	; 8003878 <balanceLQR_step+0x49c>
 8003798:	ed8d 0b06 	vstr	d0, [sp, #24]
 800379c:	e699      	b.n	80034d2 <balanceLQR_step+0xf6>
 800379e:	ec45 4b10 	vmov	d0, r4, r5
 80037a2:	f7ff fcdb 	bl	800315c <rtIsNaN>
 80037a6:	2800      	cmp	r0, #0
 80037a8:	d044      	beq.n	8003834 <balanceLQR_step+0x458>
 80037aa:	4c38      	ldr	r4, [pc, #224]	; (800388c <balanceLQR_step+0x4b0>)
 80037ac:	e9d4 4500 	ldrd	r4, r5, [r4]
 80037b0:	e6a1      	b.n	80034f6 <balanceLQR_step+0x11a>
 80037b2:	ec45 4b10 	vmov	d0, r4, r5
 80037b6:	f7ff fcd1 	bl	800315c <rtIsNaN>
 80037ba:	b300      	cbz	r0, 80037fe <balanceLQR_step+0x422>
 80037bc:	4833      	ldr	r0, [pc, #204]	; (800388c <balanceLQR_step+0x4b0>)
 80037be:	e9d0 4500 	ldrd	r4, r5, [r0]
 80037c2:	e632      	b.n	800342a <balanceLQR_step+0x4e>
 80037c4:	9800      	ldr	r0, [sp, #0]
 80037c6:	f10b 4100 	add.w	r1, fp, #2147483648	; 0x80000000
 80037ca:	a32d      	add	r3, pc, #180	; (adr r3, 8003880 <balanceLQR_step+0x4a4>)
 80037cc:	e9d3 2300 	ldrd	r2, r3, [r3]
 80037d0:	f000 fd12 	bl	80041f8 <__aeabi_dmul>
 80037d4:	2700      	movs	r7, #0
 80037d6:	4604      	mov	r4, r0
 80037d8:	460d      	mov	r5, r1
 80037da:	ed9f 2b27 	vldr	d2, [pc, #156]	; 8003878 <balanceLQR_step+0x49c>
 80037de:	e709      	b.n	80035f4 <balanceLQR_step+0x218>
 80037e0:	9a04      	ldr	r2, [sp, #16]
 80037e2:	1c53      	adds	r3, r2, #1
 80037e4:	f8ca 3010 	str.w	r3, [sl, #16]
 80037e8:	e698      	b.n	800351c <balanceLQR_step+0x140>
 80037ea:	f04f 0b00 	mov.w	fp, #0
 80037ee:	f8cd b000 	str.w	fp, [sp]
 80037f2:	f2c4 0b24 	movt	fp, #16420	; 0x4024
 80037f6:	e656      	b.n	80034a6 <balanceLQR_step+0xca>
 80037f8:	9000      	str	r0, [sp, #0]
 80037fa:	4683      	mov	fp, r0
 80037fc:	e653      	b.n	80034a6 <balanceLQR_step+0xca>
 80037fe:	ec45 4b10 	vmov	d0, r4, r5
 8003802:	f7ff fc71 	bl	80030e8 <rtIsInf>
 8003806:	2800      	cmp	r0, #0
 8003808:	d1d8      	bne.n	80037bc <balanceLQR_step+0x3e0>
 800380a:	ec49 8b10 	vmov	d0, r8, r9
 800380e:	f7ff fca5 	bl	800315c <rtIsNaN>
 8003812:	2800      	cmp	r0, #0
 8003814:	d1d2      	bne.n	80037bc <balanceLQR_step+0x3e0>
 8003816:	ec49 8b10 	vmov	d0, r8, r9
 800381a:	f7ff fc65 	bl	80030e8 <rtIsInf>
 800381e:	2800      	cmp	r0, #0
 8003820:	d1cc      	bne.n	80037bc <balanceLQR_step+0x3e0>
 8003822:	4620      	mov	r0, r4
 8003824:	4629      	mov	r1, r5
 8003826:	4642      	mov	r2, r8
 8003828:	464b      	mov	r3, r9
 800382a:	f7ff fcbd 	bl	80031a8 <rt_modd_snf.part.0>
 800382e:	4604      	mov	r4, r0
 8003830:	460d      	mov	r5, r1
 8003832:	e5fa      	b.n	800342a <balanceLQR_step+0x4e>
 8003834:	ec45 4b10 	vmov	d0, r4, r5
 8003838:	f7ff fc56 	bl	80030e8 <rtIsInf>
 800383c:	2800      	cmp	r0, #0
 800383e:	d1b4      	bne.n	80037aa <balanceLQR_step+0x3ce>
 8003840:	ec49 8b10 	vmov	d0, r8, r9
 8003844:	f7ff fc8a 	bl	800315c <rtIsNaN>
 8003848:	2800      	cmp	r0, #0
 800384a:	d1ae      	bne.n	80037aa <balanceLQR_step+0x3ce>
 800384c:	ec49 8b10 	vmov	d0, r8, r9
 8003850:	f7ff fc4a 	bl	80030e8 <rtIsInf>
 8003854:	2800      	cmp	r0, #0
 8003856:	d1a8      	bne.n	80037aa <balanceLQR_step+0x3ce>
 8003858:	4620      	mov	r0, r4
 800385a:	4629      	mov	r1, r5
 800385c:	4642      	mov	r2, r8
 800385e:	464b      	mov	r3, r9
 8003860:	f7ff fca2 	bl	80031a8 <rt_modd_snf.part.0>
 8003864:	4604      	mov	r4, r0
 8003866:	460d      	mov	r5, r1
 8003868:	e645      	b.n	80034f6 <balanceLQR_step+0x11a>
 800386a:	bf00      	nop
 800386c:	f3af 8000 	nop.w
 8003870:	54442d18 	.word	0x54442d18
 8003874:	3ff921fb 	.word	0x3ff921fb
	...
 8003880:	aaaaaaaa 	.word	0xaaaaaaaa
 8003884:	4010aaaa 	.word	0x4010aaaa
 8003888:	20000be8 	.word	0x20000be8
 800388c:	20000bd0 	.word	0x20000bd0

08003890 <balanceLQR_initialize>:
 8003890:	b510      	push	{r4, lr}
 8003892:	2008      	movs	r0, #8
 8003894:	f7ff fbf6 	bl	8003084 <rt_InitInfAndNaN>
 8003898:	f640 33e8 	movw	r3, #3048	; 0xbe8
 800389c:	f2c2 0300 	movt	r3, #8192	; 0x2000
 80038a0:	2400      	movs	r4, #0
 80038a2:	f640 30f0 	movw	r0, #3056	; 0xbf0
 80038a6:	4621      	mov	r1, r4
 80038a8:	2258      	movs	r2, #88	; 0x58
 80038aa:	f2c2 0000 	movt	r0, #8192	; 0x2000
 80038ae:	601c      	str	r4, [r3, #0]
 80038b0:	605c      	str	r4, [r3, #4]
 80038b2:	f000 fffd 	bl	80048b0 <memset>
 80038b6:	f640 4048 	movw	r0, #3144	; 0xc48
 80038ba:	f2c2 0000 	movt	r0, #8192	; 0x2000
 80038be:	f240 0230 	movw	r2, #48	; 0x30
 80038c2:	f100 0110 	add.w	r1, r0, #16
 80038c6:	f2c2 0200 	movt	r2, #8192	; 0x2000
 80038ca:	ed92 7b0c 	vldr	d7, [r2, #48]	; 0x30
 80038ce:	ed92 0b1c 	vldr	d0, [r2, #112]	; 0x70
 80038d2:	f841 4b04 	str.w	r4, [r1], #4
 80038d6:	ed80 7b00 	vstr	d7, [r0]
 80038da:	600c      	str	r4, [r1, #0]
 80038dc:	ed80 0b02 	vstr	d0, [r0, #8]
 80038e0:	f7fe fcb6 	bl	8002250 <enable_EncoderDigitalInput>
 80038e4:	f7fe fccc 	bl	8002280 <enable_EncoderQuadraturEncoder>
 80038e8:	f7fe fcce 	bl	8002288 <enable_BasicPWM>
 80038ec:	f7fe fd32 	bl	8002354 <enable_DigitalOutput>
 80038f0:	f7fe feae 	bl	8002650 <enable_UARTTx>
 80038f4:	e8bd 4010 	ldmia.w	sp!, {r4, lr}
 80038f8:	f7fe bfd0 	b.w	800289c <enable_UARTSetup>

080038fc <balanceLQR_terminate>:
 80038fc:	4770      	bx	lr
 80038fe:	bf00      	nop

08003900 <pulsetoangle_Outputs_wrapper>:
 8003900:	6800      	ldr	r0, [r0, #0]
 8003902:	b510      	push	{r4, lr}
 8003904:	0040      	lsls	r0, r0, #1
 8003906:	460c      	mov	r4, r1
 8003908:	f000 fc10 	bl	800412c <__aeabi_i2d>
 800390c:	a304      	add	r3, pc, #16	; (adr r3, 8003920 <pulsetoangle_Outputs_wrapper+0x20>)
 800390e:	e9d3 2300 	ldrd	r2, r3, [r3]
 8003912:	f000 fc71 	bl	80041f8 <__aeabi_dmul>
 8003916:	e9c4 0100 	strd	r0, r1, [r4]
 800391a:	bd10      	pop	{r4, pc}
 800391c:	f3af 8000 	nop.w
 8003920:	54442d18 	.word	0x54442d18
 8003924:	3f4921fb 	.word	0x3f4921fb

08003928 <GPIO_DeInit>:
 8003928:	b508      	push	{r3, lr}
 800392a:	2300      	movs	r3, #0
 800392c:	f2c4 0302 	movt	r3, #16386	; 0x4002
 8003930:	4298      	cmp	r0, r3
 8003932:	d03c      	beq.n	80039ae <GPIO_DeInit+0x86>
 8003934:	f44f 6180 	mov.w	r1, #1024	; 0x400
 8003938:	f2c4 0102 	movt	r1, #16386	; 0x4002
 800393c:	4288      	cmp	r0, r1
 800393e:	d040      	beq.n	80039c2 <GPIO_DeInit+0x9a>
 8003940:	f44f 6200 	mov.w	r2, #2048	; 0x800
 8003944:	f2c4 0202 	movt	r2, #16386	; 0x4002
 8003948:	4290      	cmp	r0, r2
 800394a:	d044      	beq.n	80039d6 <GPIO_DeInit+0xae>
 800394c:	f44f 6340 	mov.w	r3, #3072	; 0xc00
 8003950:	f2c4 0302 	movt	r3, #16386	; 0x4002
 8003954:	4298      	cmp	r0, r3
 8003956:	d048      	beq.n	80039ea <GPIO_DeInit+0xc2>
 8003958:	f44f 5180 	mov.w	r1, #4096	; 0x1000
 800395c:	f2c4 0102 	movt	r1, #16386	; 0x4002
 8003960:	4288      	cmp	r0, r1
 8003962:	d04c      	beq.n	80039fe <GPIO_DeInit+0xd6>
 8003964:	f44f 52a0 	mov.w	r2, #5120	; 0x1400
 8003968:	f2c4 0202 	movt	r2, #16386	; 0x4002
 800396c:	4290      	cmp	r0, r2
 800396e:	d050      	beq.n	8003a12 <GPIO_DeInit+0xea>
 8003970:	f44f 53c0 	mov.w	r3, #6144	; 0x1800
 8003974:	f2c4 0302 	movt	r3, #16386	; 0x4002
 8003978:	4298      	cmp	r0, r3
 800397a:	d054      	beq.n	8003a26 <GPIO_DeInit+0xfe>
 800397c:	f44f 51e0 	mov.w	r1, #7168	; 0x1c00
 8003980:	f2c4 0102 	movt	r1, #16386	; 0x4002
 8003984:	4288      	cmp	r0, r1
 8003986:	d058      	beq.n	8003a3a <GPIO_DeInit+0x112>
 8003988:	f44f 5200 	mov.w	r2, #8192	; 0x2000
 800398c:	f2c4 0202 	movt	r2, #16386	; 0x4002
 8003990:	4290      	cmp	r0, r2
 8003992:	d000      	beq.n	8003996 <GPIO_DeInit+0x6e>
 8003994:	bd08      	pop	{r3, pc}
 8003996:	2101      	movs	r1, #1
 8003998:	f44f 7080 	mov.w	r0, #256	; 0x100
 800399c:	f7fd fd8e 	bl	80014bc <RCC_AHB1PeriphResetCmd>
 80039a0:	f44f 7080 	mov.w	r0, #256	; 0x100
 80039a4:	2100      	movs	r1, #0
 80039a6:	e8bd 4008 	ldmia.w	sp!, {r3, lr}
 80039aa:	f7fd bd87 	b.w	80014bc <RCC_AHB1PeriphResetCmd>
 80039ae:	2001      	movs	r0, #1
 80039b0:	4601      	mov	r1, r0
 80039b2:	f7fd fd83 	bl	80014bc <RCC_AHB1PeriphResetCmd>
 80039b6:	2001      	movs	r0, #1
 80039b8:	2100      	movs	r1, #0
 80039ba:	e8bd 4008 	ldmia.w	sp!, {r3, lr}
 80039be:	f7fd bd7d 	b.w	80014bc <RCC_AHB1PeriphResetCmd>
 80039c2:	2002      	movs	r0, #2
 80039c4:	2101      	movs	r1, #1
 80039c6:	f7fd fd79 	bl	80014bc <RCC_AHB1PeriphResetCmd>
 80039ca:	2002      	movs	r0, #2
 80039cc:	2100      	movs	r1, #0
 80039ce:	e8bd 4008 	ldmia.w	sp!, {r3, lr}
 80039d2:	f7fd bd73 	b.w	80014bc <RCC_AHB1PeriphResetCmd>
 80039d6:	2004      	movs	r0, #4
 80039d8:	2101      	movs	r1, #1
 80039da:	f7fd fd6f 	bl	80014bc <RCC_AHB1PeriphResetCmd>
 80039de:	2004      	movs	r0, #4
 80039e0:	2100      	movs	r1, #0
 80039e2:	e8bd 4008 	ldmia.w	sp!, {r3, lr}
 80039e6:	f7fd bd69 	b.w	80014bc <RCC_AHB1PeriphResetCmd>
 80039ea:	2008      	movs	r0, #8
 80039ec:	2101      	movs	r1, #1
 80039ee:	f7fd fd65 	bl	80014bc <RCC_AHB1PeriphResetCmd>
 80039f2:	2008      	movs	r0, #8
 80039f4:	2100      	movs	r1, #0
 80039f6:	e8bd 4008 	ldmia.w	sp!, {r3, lr}
 80039fa:	f7fd bd5f 	b.w	80014bc <RCC_AHB1PeriphResetCmd>
 80039fe:	2010      	movs	r0, #16
 8003a00:	2101      	movs	r1, #1
 8003a02:	f7fd fd5b 	bl	80014bc <RCC_AHB1PeriphResetCmd>
 8003a06:	2010      	movs	r0, #16
 8003a08:	2100      	movs	r1, #0
 8003a0a:	e8bd 4008 	ldmia.w	sp!, {r3, lr}
 8003a0e:	f7fd bd55 	b.w	80014bc <RCC_AHB1PeriphResetCmd>
 8003a12:	2020      	movs	r0, #32
 8003a14:	2101      	movs	r1, #1
 8003a16:	f7fd fd51 	bl	80014bc <RCC_AHB1PeriphResetCmd>
 8003a1a:	2020      	movs	r0, #32
 8003a1c:	2100      	movs	r1, #0
 8003a1e:	e8bd 4008 	ldmia.w	sp!, {r3, lr}
 8003a22:	f7fd bd4b 	b.w	80014bc <RCC_AHB1PeriphResetCmd>
 8003a26:	2040      	movs	r0, #64	; 0x40
 8003a28:	2101      	movs	r1, #1
 8003a2a:	f7fd fd47 	bl	80014bc <RCC_AHB1PeriphResetCmd>
 8003a2e:	2040      	movs	r0, #64	; 0x40
 8003a30:	2100      	movs	r1, #0
 8003a32:	e8bd 4008 	ldmia.w	sp!, {r3, lr}
 8003a36:	f7fd bd41 	b.w	80014bc <RCC_AHB1PeriphResetCmd>
 8003a3a:	2080      	movs	r0, #128	; 0x80
 8003a3c:	2101      	movs	r1, #1
 8003a3e:	f7fd fd3d 	bl	80014bc <RCC_AHB1PeriphResetCmd>
 8003a42:	2080      	movs	r0, #128	; 0x80
 8003a44:	2100      	movs	r1, #0
 8003a46:	e8bd 4008 	ldmia.w	sp!, {r3, lr}
 8003a4a:	f7fd bd37 	b.w	80014bc <RCC_AHB1PeriphResetCmd>
 8003a4e:	bf00      	nop

08003a50 <GPIO_Init>:
 8003a50:	e92d 0ff0 	stmdb	sp!, {r4, r5, r6, r7, r8, r9, sl, fp}
 8003a54:	680e      	ldr	r6, [r1, #0]
 8003a56:	b084      	sub	sp, #16
 8003a58:	2200      	movs	r2, #0
 8003a5a:	4688      	mov	r8, r1
 8003a5c:	4613      	mov	r3, r2
 8003a5e:	f04f 0b01 	mov.w	fp, #1
 8003a62:	9600      	str	r6, [sp, #0]
 8003a64:	468a      	mov	sl, r1
 8003a66:	e007      	b.n	8003a78 <GPIO_Init+0x28>
 8003a68:	f8dd 9004 	ldr.w	r9, [sp, #4]
 8003a6c:	45a1      	cmp	r9, r4
 8003a6e:	d039      	beq.n	8003ae4 <GPIO_Init+0x94>
 8003a70:	1c4b      	adds	r3, r1, #1
 8003a72:	1caa      	adds	r2, r5, #2
 8003a74:	2b10      	cmp	r3, #16
 8003a76:	d054      	beq.n	8003b22 <GPIO_Init+0xd2>
 8003a78:	9e00      	ldr	r6, [sp, #0]
 8003a7a:	fa0b f503 	lsl.w	r5, fp, r3
 8003a7e:	1c59      	adds	r1, r3, #1
 8003a80:	ea05 0c06 	and.w	ip, r5, r6
 8003a84:	fa0b f401 	lsl.w	r4, fp, r1
 8003a88:	4026      	ands	r6, r4
 8003a8a:	45ac      	cmp	ip, r5
 8003a8c:	9601      	str	r6, [sp, #4]
 8003a8e:	f102 0502 	add.w	r5, r2, #2
 8003a92:	d1e9      	bne.n	8003a68 <GPIO_Init+0x18>
 8003a94:	2603      	movs	r6, #3
 8003a96:	fa06 f902 	lsl.w	r9, r6, r2
 8003a9a:	6807      	ldr	r7, [r0, #0]
 8003a9c:	f89a 8004 	ldrb.w	r8, [sl, #4]
 8003aa0:	ea6f 0909 	mvn.w	r9, r9
 8003aa4:	464e      	mov	r6, r9
 8003aa6:	403e      	ands	r6, r7
 8003aa8:	6006      	str	r6, [r0, #0]
 8003aaa:	6807      	ldr	r7, [r0, #0]
 8003aac:	f8cd 900c 	str.w	r9, [sp, #12]
 8003ab0:	fa08 f902 	lsl.w	r9, r8, r2
 8003ab4:	f108 38ff 	add.w	r8, r8, #4294967295
 8003ab8:	ea49 0907 	orr.w	r9, r9, r7
 8003abc:	f1b8 0f01 	cmp.w	r8, #1
 8003ac0:	f8c0 9000 	str.w	r9, [r0]
 8003ac4:	d931      	bls.n	8003b2a <GPIO_Init+0xda>
 8003ac6:	68c3      	ldr	r3, [r0, #12]
 8003ac8:	9f03      	ldr	r7, [sp, #12]
 8003aca:	f89a c007 	ldrb.w	ip, [sl, #7]
 8003ace:	f8dd 9004 	ldr.w	r9, [sp, #4]
 8003ad2:	403b      	ands	r3, r7
 8003ad4:	60c3      	str	r3, [r0, #12]
 8003ad6:	68c3      	ldr	r3, [r0, #12]
 8003ad8:	fa0c f202 	lsl.w	r2, ip, r2
 8003adc:	431a      	orrs	r2, r3
 8003ade:	45a1      	cmp	r9, r4
 8003ae0:	60c2      	str	r2, [r0, #12]
 8003ae2:	d1c5      	bne.n	8003a70 <GPIO_Init+0x20>
 8003ae4:	2303      	movs	r3, #3
 8003ae6:	6804      	ldr	r4, [r0, #0]
 8003ae8:	f89a 2004 	ldrb.w	r2, [sl, #4]
 8003aec:	40ab      	lsls	r3, r5
 8003aee:	43db      	mvns	r3, r3
 8003af0:	401c      	ands	r4, r3
 8003af2:	6004      	str	r4, [r0, #0]
 8003af4:	6804      	ldr	r4, [r0, #0]
 8003af6:	fa02 fc05 	lsl.w	ip, r2, r5
 8003afa:	3a01      	subs	r2, #1
 8003afc:	ea4c 0404 	orr.w	r4, ip, r4
 8003b00:	2a01      	cmp	r2, #1
 8003b02:	6004      	str	r4, [r0, #0]
 8003b04:	d933      	bls.n	8003b6e <GPIO_Init+0x11e>
 8003b06:	68c2      	ldr	r2, [r0, #12]
 8003b08:	f89a 4007 	ldrb.w	r4, [sl, #7]
 8003b0c:	4013      	ands	r3, r2
 8003b0e:	60c3      	str	r3, [r0, #12]
 8003b10:	68c2      	ldr	r2, [r0, #12]
 8003b12:	fa04 f305 	lsl.w	r3, r4, r5
 8003b16:	4313      	orrs	r3, r2
 8003b18:	60c3      	str	r3, [r0, #12]
 8003b1a:	1c4b      	adds	r3, r1, #1
 8003b1c:	1caa      	adds	r2, r5, #2
 8003b1e:	2b10      	cmp	r3, #16
 8003b20:	d1aa      	bne.n	8003a78 <GPIO_Init+0x28>
 8003b22:	b004      	add	sp, #16
 8003b24:	e8bd 0ff0 	ldmia.w	sp!, {r4, r5, r6, r7, r8, r9, sl, fp}
 8003b28:	4770      	bx	lr
 8003b2a:	f8d0 8008 	ldr.w	r8, [r0, #8]
 8003b2e:	9e03      	ldr	r6, [sp, #12]
 8003b30:	f89a 7006 	ldrb.w	r7, [sl, #6]
 8003b34:	f89a 9005 	ldrb.w	r9, [sl, #5]
 8003b38:	ea06 0808 	and.w	r8, r6, r8
 8003b3c:	f8c0 8008 	str.w	r8, [r0, #8]
 8003b40:	f8d0 8008 	ldr.w	r8, [r0, #8]
 8003b44:	fa09 f902 	lsl.w	r9, r9, r2
 8003b48:	ea49 0808 	orr.w	r8, r9, r8
 8003b4c:	f8c0 8008 	str.w	r8, [r0, #8]
 8003b50:	f8d0 8004 	ldr.w	r8, [r0, #4]
 8003b54:	ea28 0c0c 	bic.w	ip, r8, ip
 8003b58:	f8c0 c004 	str.w	ip, [r0, #4]
 8003b5c:	f8d0 9004 	ldr.w	r9, [r0, #4]
 8003b60:	fa07 f303 	lsl.w	r3, r7, r3
 8003b64:	b29f      	uxth	r7, r3
 8003b66:	ea47 0309 	orr.w	r3, r7, r9
 8003b6a:	6043      	str	r3, [r0, #4]
 8003b6c:	e7ab      	b.n	8003ac6 <GPIO_Init+0x76>
 8003b6e:	6886      	ldr	r6, [r0, #8]
 8003b70:	f89a 7005 	ldrb.w	r7, [sl, #5]
 8003b74:	f89a 2006 	ldrb.w	r2, [sl, #6]
 8003b78:	401e      	ands	r6, r3
 8003b7a:	6086      	str	r6, [r0, #8]
 8003b7c:	6884      	ldr	r4, [r0, #8]
 8003b7e:	fa07 fc05 	lsl.w	ip, r7, r5
 8003b82:	ea4c 0604 	orr.w	r6, ip, r4
 8003b86:	6086      	str	r6, [r0, #8]
 8003b88:	6847      	ldr	r7, [r0, #4]
 8003b8a:	9e01      	ldr	r6, [sp, #4]
 8003b8c:	ea27 0706 	bic.w	r7, r7, r6
 8003b90:	6047      	str	r7, [r0, #4]
 8003b92:	6844      	ldr	r4, [r0, #4]
 8003b94:	fa02 f201 	lsl.w	r2, r2, r1
 8003b98:	b292      	uxth	r2, r2
 8003b9a:	4322      	orrs	r2, r4
 8003b9c:	6042      	str	r2, [r0, #4]
 8003b9e:	e7b2      	b.n	8003b06 <GPIO_Init+0xb6>

08003ba0 <GPIO_StructInit>:
 8003ba0:	2300      	movs	r3, #0
 8003ba2:	f64f 72ff 	movw	r2, #65535	; 0xffff
 8003ba6:	6002      	str	r2, [r0, #0]
 8003ba8:	7103      	strb	r3, [r0, #4]
 8003baa:	7143      	strb	r3, [r0, #5]
 8003bac:	7183      	strb	r3, [r0, #6]
 8003bae:	71c3      	strb	r3, [r0, #7]
 8003bb0:	4770      	bx	lr
 8003bb2:	bf00      	nop

08003bb4 <GPIO_PinLockConfig>:
 8003bb4:	b082      	sub	sp, #8
 8003bb6:	f44f 3380 	mov.w	r3, #65536	; 0x10000
 8003bba:	9301      	str	r3, [sp, #4]
 8003bbc:	9a01      	ldr	r2, [sp, #4]
 8003bbe:	ea41 0302 	orr.w	r3, r1, r2
 8003bc2:	9301      	str	r3, [sp, #4]
 8003bc4:	9a01      	ldr	r2, [sp, #4]
 8003bc6:	61c2      	str	r2, [r0, #28]
 8003bc8:	61c1      	str	r1, [r0, #28]
 8003bca:	9901      	ldr	r1, [sp, #4]
 8003bcc:	61c1      	str	r1, [r0, #28]
 8003bce:	69c3      	ldr	r3, [r0, #28]
 8003bd0:	9301      	str	r3, [sp, #4]
 8003bd2:	69c0      	ldr	r0, [r0, #28]
 8003bd4:	9001      	str	r0, [sp, #4]
 8003bd6:	b002      	add	sp, #8
 8003bd8:	4770      	bx	lr
 8003bda:	bf00      	nop

08003bdc <GPIO_ReadInputDataBit>:
 8003bdc:	6903      	ldr	r3, [r0, #16]
 8003bde:	4219      	tst	r1, r3
 8003be0:	bf0c      	ite	eq
 8003be2:	2000      	moveq	r0, #0
 8003be4:	2001      	movne	r0, #1
 8003be6:	4770      	bx	lr

08003be8 <GPIO_ReadInputData>:
 8003be8:	6900      	ldr	r0, [r0, #16]
 8003bea:	b280      	uxth	r0, r0
 8003bec:	4770      	bx	lr
 8003bee:	bf00      	nop

08003bf0 <GPIO_ReadOutputDataBit>:
 8003bf0:	6943      	ldr	r3, [r0, #20]
 8003bf2:	4219      	tst	r1, r3
 8003bf4:	bf0c      	ite	eq
 8003bf6:	2000      	moveq	r0, #0
 8003bf8:	2001      	movne	r0, #1
 8003bfa:	4770      	bx	lr

08003bfc <GPIO_ReadOutputData>:
 8003bfc:	6940      	ldr	r0, [r0, #20]
 8003bfe:	b280      	uxth	r0, r0
 8003c00:	4770      	bx	lr
 8003c02:	bf00      	nop

08003c04 <GPIO_SetBits>:
 8003c04:	8301      	strh	r1, [r0, #24]
 8003c06:	4770      	bx	lr

08003c08 <GPIO_ResetBits>:
 8003c08:	8341      	strh	r1, [r0, #26]
 8003c0a:	4770      	bx	lr

08003c0c <GPIO_WriteBit>:
 8003c0c:	b90a      	cbnz	r2, 8003c12 <GPIO_WriteBit+0x6>
 8003c0e:	8341      	strh	r1, [r0, #26]
 8003c10:	4770      	bx	lr
 8003c12:	8301      	strh	r1, [r0, #24]
 8003c14:	4770      	bx	lr
 8003c16:	bf00      	nop

08003c18 <GPIO_Write>:
 8003c18:	6141      	str	r1, [r0, #20]
 8003c1a:	4770      	bx	lr

08003c1c <GPIO_ToggleBits>:
 8003c1c:	6943      	ldr	r3, [r0, #20]
 8003c1e:	4059      	eors	r1, r3
 8003c20:	6141      	str	r1, [r0, #20]
 8003c22:	4770      	bx	lr

08003c24 <GPIO_PinAFConfig>:
 8003c24:	08cb      	lsrs	r3, r1, #3
 8003c26:	3308      	adds	r3, #8
 8003c28:	f001 0107 	and.w	r1, r1, #7
 8003c2c:	b430      	push	{r4, r5}
 8003c2e:	0089      	lsls	r1, r1, #2
 8003c30:	f850 5023 	ldr.w	r5, [r0, r3, lsl #2]
 8003c34:	240f      	movs	r4, #15
 8003c36:	fa04 f401 	lsl.w	r4, r4, r1
 8003c3a:	ea25 0404 	bic.w	r4, r5, r4
 8003c3e:	f840 4023 	str.w	r4, [r0, r3, lsl #2]
 8003c42:	f850 4023 	ldr.w	r4, [r0, r3, lsl #2]
 8003c46:	fa02 f201 	lsl.w	r2, r2, r1
 8003c4a:	4314      	orrs	r4, r2
 8003c4c:	f840 4023 	str.w	r4, [r0, r3, lsl #2]
 8003c50:	bc30      	pop	{r4, r5}
 8003c52:	4770      	bx	lr
 8003c54:	0000      	movs	r0, r0
	...

08003c58 <ceil>:
 8003c58:	e92d 4ff8 	stmdb	sp!, {r3, r4, r5, r6, r7, r8, r9, sl, fp, lr}
 8003c5c:	f3c1 590a 	ubfx	r9, r1, #20, #11
 8003c60:	f2a9 36ff 	subw	r6, r9, #1023	; 0x3ff
 8003c64:	2e13      	cmp	r6, #19
 8003c66:	4602      	mov	r2, r0
 8003c68:	460b      	mov	r3, r1
 8003c6a:	4604      	mov	r4, r0
 8003c6c:	460d      	mov	r5, r1
 8003c6e:	460f      	mov	r7, r1
 8003c70:	468a      	mov	sl, r1
 8003c72:	4680      	mov	r8, r0
 8003c74:	dc27      	bgt.n	8003cc6 <ceil+0x6e>
 8003c76:	2e00      	cmp	r6, #0
 8003c78:	db59      	blt.n	8003d2e <ceil+0xd6>
 8003c7a:	f64f 74ff 	movw	r4, #65535	; 0xffff
 8003c7e:	f2c0 040f 	movt	r4, #15
 8003c82:	fa44 f406 	asr.w	r4, r4, r6
 8003c86:	ea04 0501 	and.w	r5, r4, r1
 8003c8a:	4305      	orrs	r5, r0
 8003c8c:	d017      	beq.n	8003cbe <ceil+0x66>
 8003c8e:	a338      	add	r3, pc, #224	; (adr r3, 8003d70 <ceil+0x118>)
 8003c90:	e9d3 2300 	ldrd	r2, r3, [r3]
 8003c94:	f000 f8fe 	bl	8003e94 <__adddf3>
 8003c98:	2200      	movs	r2, #0
 8003c9a:	2300      	movs	r3, #0
 8003c9c:	f000 fd3c 	bl	8004718 <__aeabi_dcmpgt>
 8003ca0:	b158      	cbz	r0, 8003cba <ceil+0x62>
 8003ca2:	2f00      	cmp	r7, #0
 8003ca4:	dd05      	ble.n	8003cb2 <ceil+0x5a>
 8003ca6:	f44f 1380 	mov.w	r3, #1048576	; 0x100000
 8003caa:	fa43 f606 	asr.w	r6, r3, r6
 8003cae:	eb07 0a06 	add.w	sl, r7, r6
 8003cb2:	ea2a 0704 	bic.w	r7, sl, r4
 8003cb6:	f04f 0800 	mov.w	r8, #0
 8003cba:	463b      	mov	r3, r7
 8003cbc:	4642      	mov	r2, r8
 8003cbe:	4610      	mov	r0, r2
 8003cc0:	4619      	mov	r1, r3
 8003cc2:	e8bd 8ff8 	ldmia.w	sp!, {r3, r4, r5, r6, r7, r8, r9, sl, fp, pc}
 8003cc6:	2e33      	cmp	r6, #51	; 0x33
 8003cc8:	dd07      	ble.n	8003cda <ceil+0x82>
 8003cca:	f5b6 6f80 	cmp.w	r6, #1024	; 0x400
 8003cce:	d1f6      	bne.n	8003cbe <ceil+0x66>
 8003cd0:	f000 f8e0 	bl	8003e94 <__adddf3>
 8003cd4:	4602      	mov	r2, r0
 8003cd6:	460b      	mov	r3, r1
 8003cd8:	e7f1      	b.n	8003cbe <ceil+0x66>
 8003cda:	f2a9 4c13 	subw	ip, r9, #1043	; 0x413
 8003cde:	f04f 3bff 	mov.w	fp, #4294967295
 8003ce2:	fa2b fb0c 	lsr.w	fp, fp, ip
 8003ce6:	ea1b 0f00 	tst.w	fp, r0
 8003cea:	d0e8      	beq.n	8003cbe <ceil+0x66>
 8003cec:	a320      	add	r3, pc, #128	; (adr r3, 8003d70 <ceil+0x118>)
 8003cee:	e9d3 2300 	ldrd	r2, r3, [r3]
 8003cf2:	f000 f8cf 	bl	8003e94 <__adddf3>
 8003cf6:	2200      	movs	r2, #0
 8003cf8:	2300      	movs	r3, #0
 8003cfa:	f000 fd0d 	bl	8004718 <__aeabi_dcmpgt>
 8003cfe:	2800      	cmp	r0, #0
 8003d00:	d0db      	beq.n	8003cba <ceil+0x62>
 8003d02:	2d00      	cmp	r5, #0
 8003d04:	dd0d      	ble.n	8003d22 <ceil+0xca>
 8003d06:	2e14      	cmp	r6, #20
 8003d08:	d009      	beq.n	8003d1e <ceil+0xc6>
 8003d0a:	f5c9 6986 	rsb	r9, r9, #1072	; 0x430
 8003d0e:	2401      	movs	r4, #1
 8003d10:	f109 0903 	add.w	r9, r9, #3
 8003d14:	fa04 f009 	lsl.w	r0, r4, r9
 8003d18:	eb10 0408 	adds.w	r4, r0, r8
 8003d1c:	d301      	bcc.n	8003d22 <ceil+0xca>
 8003d1e:	f10a 0a01 	add.w	sl, sl, #1
 8003d22:	ea24 080b 	bic.w	r8, r4, fp
 8003d26:	4657      	mov	r7, sl
 8003d28:	463b      	mov	r3, r7
 8003d2a:	4642      	mov	r2, r8
 8003d2c:	e7c7      	b.n	8003cbe <ceil+0x66>
 8003d2e:	a310      	add	r3, pc, #64	; (adr r3, 8003d70 <ceil+0x118>)
 8003d30:	e9d3 2300 	ldrd	r2, r3, [r3]
 8003d34:	f000 f8ae 	bl	8003e94 <__adddf3>
 8003d38:	2200      	movs	r2, #0
 8003d3a:	2300      	movs	r3, #0
 8003d3c:	f000 fcec 	bl	8004718 <__aeabi_dcmpgt>
 8003d40:	2800      	cmp	r0, #0
 8003d42:	d0ba      	beq.n	8003cba <ceil+0x62>
 8003d44:	2d00      	cmp	r5, #0
 8003d46:	db0b      	blt.n	8003d60 <ceil+0x108>
 8003d48:	2100      	movs	r1, #0
 8003d4a:	ea44 0205 	orr.w	r2, r4, r5
 8003d4e:	428a      	cmp	r2, r1
 8003d50:	f6c3 71f0 	movt	r1, #16368	; 0x3ff0
 8003d54:	bf18      	it	ne
 8003d56:	f04f 0800 	movne.w	r8, #0
 8003d5a:	bf18      	it	ne
 8003d5c:	460f      	movne	r7, r1
 8003d5e:	e7ac      	b.n	8003cba <ceil+0x62>
 8003d60:	f04f 0800 	mov.w	r8, #0
 8003d64:	f04f 4700 	mov.w	r7, #2147483648	; 0x80000000
 8003d68:	e7a7      	b.n	8003cba <ceil+0x62>
 8003d6a:	bf00      	nop
 8003d6c:	f3af 8000 	nop.w
 8003d70:	8800759c 	.word	0x8800759c
 8003d74:	7e37e43c 	.word	0x7e37e43c

08003d78 <floor>:
 8003d78:	e92d 43f8 	stmdb	sp!, {r3, r4, r5, r6, r7, r8, r9, lr}
 8003d7c:	f3c1 580a 	ubfx	r8, r1, #20, #11
 8003d80:	f2a8 36ff 	subw	r6, r8, #1023	; 0x3ff
 8003d84:	2e13      	cmp	r6, #19
 8003d86:	4602      	mov	r2, r0
 8003d88:	460b      	mov	r3, r1
 8003d8a:	4604      	mov	r4, r0
 8003d8c:	460d      	mov	r5, r1
 8003d8e:	460f      	mov	r7, r1
 8003d90:	dc21      	bgt.n	8003dd6 <floor+0x5e>
 8003d92:	2e00      	cmp	r6, #0
 8003d94:	db45      	blt.n	8003e22 <floor+0xaa>
 8003d96:	f64f 7cff 	movw	ip, #65535	; 0xffff
 8003d9a:	f2c0 0c0f 	movt	ip, #15
 8003d9e:	fa4c f806 	asr.w	r8, ip, r6
 8003da2:	ea08 0c01 	and.w	ip, r8, r1
 8003da6:	ea5c 0c00 	orrs.w	ip, ip, r0
 8003daa:	d010      	beq.n	8003dce <floor+0x56>
 8003dac:	a334      	add	r3, pc, #208	; (adr r3, 8003e80 <floor+0x108>)
 8003dae:	e9d3 2300 	ldrd	r2, r3, [r3]
 8003db2:	f000 f86f 	bl	8003e94 <__adddf3>
 8003db6:	2200      	movs	r2, #0
 8003db8:	2300      	movs	r3, #0
 8003dba:	f000 fcad 	bl	8004718 <__aeabi_dcmpgt>
 8003dbe:	b120      	cbz	r0, 8003dca <floor+0x52>
 8003dc0:	2d00      	cmp	r5, #0
 8003dc2:	db3e      	blt.n	8003e42 <floor+0xca>
 8003dc4:	ea25 0708 	bic.w	r7, r5, r8
 8003dc8:	2400      	movs	r4, #0
 8003dca:	463b      	mov	r3, r7
 8003dcc:	4622      	mov	r2, r4
 8003dce:	4610      	mov	r0, r2
 8003dd0:	4619      	mov	r1, r3
 8003dd2:	e8bd 83f8 	ldmia.w	sp!, {r3, r4, r5, r6, r7, r8, r9, pc}
 8003dd6:	2e33      	cmp	r6, #51	; 0x33
 8003dd8:	dd07      	ble.n	8003dea <floor+0x72>
 8003dda:	f5b6 6f80 	cmp.w	r6, #1024	; 0x400
 8003dde:	d1f6      	bne.n	8003dce <floor+0x56>
 8003de0:	f000 f858 	bl	8003e94 <__adddf3>
 8003de4:	4602      	mov	r2, r0
 8003de6:	460b      	mov	r3, r1
 8003de8:	e7f1      	b.n	8003dce <floor+0x56>
 8003dea:	f2a8 4c13 	subw	ip, r8, #1043	; 0x413
 8003dee:	f04f 39ff 	mov.w	r9, #4294967295
 8003df2:	fa29 f90c 	lsr.w	r9, r9, ip
 8003df6:	ea19 0f00 	tst.w	r9, r0
 8003dfa:	d0e8      	beq.n	8003dce <floor+0x56>
 8003dfc:	a320      	add	r3, pc, #128	; (adr r3, 8003e80 <floor+0x108>)
 8003dfe:	e9d3 2300 	ldrd	r2, r3, [r3]
 8003e02:	f000 f847 	bl	8003e94 <__adddf3>
 8003e06:	2200      	movs	r2, #0
 8003e08:	2300      	movs	r3, #0
 8003e0a:	f000 fc85 	bl	8004718 <__aeabi_dcmpgt>
 8003e0e:	2800      	cmp	r0, #0
 8003e10:	d0db      	beq.n	8003dca <floor+0x52>
 8003e12:	2d00      	cmp	r5, #0
 8003e14:	db1b      	blt.n	8003e4e <floor+0xd6>
 8003e16:	ea24 0409 	bic.w	r4, r4, r9
 8003e1a:	462f      	mov	r7, r5
 8003e1c:	463b      	mov	r3, r7
 8003e1e:	4622      	mov	r2, r4
 8003e20:	e7d5      	b.n	8003dce <floor+0x56>
 8003e22:	a317      	add	r3, pc, #92	; (adr r3, 8003e80 <floor+0x108>)
 8003e24:	e9d3 2300 	ldrd	r2, r3, [r3]
 8003e28:	f000 f834 	bl	8003e94 <__adddf3>
 8003e2c:	2200      	movs	r2, #0
 8003e2e:	2300      	movs	r3, #0
 8003e30:	f000 fc72 	bl	8004718 <__aeabi_dcmpgt>
 8003e34:	2800      	cmp	r0, #0
 8003e36:	d0c8      	beq.n	8003dca <floor+0x52>
 8003e38:	2d00      	cmp	r5, #0
 8003e3a:	db15      	blt.n	8003e68 <floor+0xf0>
 8003e3c:	2400      	movs	r4, #0
 8003e3e:	4627      	mov	r7, r4
 8003e40:	e7c3      	b.n	8003dca <floor+0x52>
 8003e42:	f44f 1180 	mov.w	r1, #1048576	; 0x100000
 8003e46:	fa41 f606 	asr.w	r6, r1, r6
 8003e4a:	19ad      	adds	r5, r5, r6
 8003e4c:	e7ba      	b.n	8003dc4 <floor+0x4c>
 8003e4e:	2e14      	cmp	r6, #20
 8003e50:	d008      	beq.n	8003e64 <floor+0xec>
 8003e52:	f5c8 6886 	rsb	r8, r8, #1072	; 0x430
 8003e56:	2301      	movs	r3, #1
 8003e58:	f108 0803 	add.w	r8, r8, #3
 8003e5c:	fa03 f008 	lsl.w	r0, r3, r8
 8003e60:	1904      	adds	r4, r0, r4
 8003e62:	d3d8      	bcc.n	8003e16 <floor+0x9e>
 8003e64:	3501      	adds	r5, #1
 8003e66:	e7d6      	b.n	8003e16 <floor+0x9e>
 8003e68:	f025 4200 	bic.w	r2, r5, #2147483648	; 0x80000000
 8003e6c:	4322      	orrs	r2, r4
 8003e6e:	2300      	movs	r3, #0
 8003e70:	429a      	cmp	r2, r3
 8003e72:	f6cb 73f0 	movt	r3, #49136	; 0xbff0
 8003e76:	bf18      	it	ne
 8003e78:	2400      	movne	r4, #0
 8003e7a:	bf18      	it	ne
 8003e7c:	461f      	movne	r7, r3
 8003e7e:	e7a4      	b.n	8003dca <floor+0x52>
 8003e80:	8800759c 	.word	0x8800759c
 8003e84:	7e37e43c 	.word	0x7e37e43c

08003e88 <__aeabi_drsub>:
 8003e88:	f081 4100 	eor.w	r1, r1, #2147483648	; 0x80000000
 8003e8c:	e002      	b.n	8003e94 <__adddf3>
 8003e8e:	bf00      	nop

08003e90 <__aeabi_dsub>:
 8003e90:	f083 4300 	eor.w	r3, r3, #2147483648	; 0x80000000

08003e94 <__adddf3>:
 8003e94:	b530      	push	{r4, r5, lr}
 8003e96:	ea4f 0441 	mov.w	r4, r1, lsl #1
 8003e9a:	ea4f 0543 	mov.w	r5, r3, lsl #1
 8003e9e:	ea94 0f05 	teq	r4, r5
 8003ea2:	bf08      	it	eq
 8003ea4:	ea90 0f02 	teqeq	r0, r2
 8003ea8:	bf1f      	itttt	ne
 8003eaa:	ea54 0c00 	orrsne.w	ip, r4, r0
 8003eae:	ea55 0c02 	orrsne.w	ip, r5, r2
 8003eb2:	ea7f 5c64 	mvnsne.w	ip, r4, asr #21
 8003eb6:	ea7f 5c65 	mvnsne.w	ip, r5, asr #21
 8003eba:	f000 80e2 	beq.w	8004082 <__adddf3+0x1ee>
 8003ebe:	ea4f 5454 	mov.w	r4, r4, lsr #21
 8003ec2:	ebd4 5555 	rsbs	r5, r4, r5, lsr #21
 8003ec6:	bfb8      	it	lt
 8003ec8:	426d      	neglt	r5, r5
 8003eca:	dd0c      	ble.n	8003ee6 <__adddf3+0x52>
 8003ecc:	442c      	add	r4, r5
 8003ece:	ea80 0202 	eor.w	r2, r0, r2
 8003ed2:	ea81 0303 	eor.w	r3, r1, r3
 8003ed6:	ea82 0000 	eor.w	r0, r2, r0
 8003eda:	ea83 0101 	eor.w	r1, r3, r1
 8003ede:	ea80 0202 	eor.w	r2, r0, r2
 8003ee2:	ea81 0303 	eor.w	r3, r1, r3
 8003ee6:	2d36      	cmp	r5, #54	; 0x36
 8003ee8:	bf88      	it	hi
 8003eea:	bd30      	pophi	{r4, r5, pc}
 8003eec:	f011 4f00 	tst.w	r1, #2147483648	; 0x80000000
 8003ef0:	ea4f 3101 	mov.w	r1, r1, lsl #12
 8003ef4:	f44f 1c80 	mov.w	ip, #1048576	; 0x100000
 8003ef8:	ea4c 3111 	orr.w	r1, ip, r1, lsr #12
 8003efc:	d002      	beq.n	8003f04 <__adddf3+0x70>
 8003efe:	4240      	negs	r0, r0
 8003f00:	eb61 0141 	sbc.w	r1, r1, r1, lsl #1
 8003f04:	f013 4f00 	tst.w	r3, #2147483648	; 0x80000000
 8003f08:	ea4f 3303 	mov.w	r3, r3, lsl #12
 8003f0c:	ea4c 3313 	orr.w	r3, ip, r3, lsr #12
 8003f10:	d002      	beq.n	8003f18 <__adddf3+0x84>
 8003f12:	4252      	negs	r2, r2
 8003f14:	eb63 0343 	sbc.w	r3, r3, r3, lsl #1
 8003f18:	ea94 0f05 	teq	r4, r5
 8003f1c:	f000 80a7 	beq.w	800406e <__adddf3+0x1da>
 8003f20:	f1a4 0401 	sub.w	r4, r4, #1
 8003f24:	f1d5 0e20 	rsbs	lr, r5, #32
 8003f28:	db0d      	blt.n	8003f46 <__adddf3+0xb2>
 8003f2a:	fa02 fc0e 	lsl.w	ip, r2, lr
 8003f2e:	fa22 f205 	lsr.w	r2, r2, r5
 8003f32:	1880      	adds	r0, r0, r2
 8003f34:	f141 0100 	adc.w	r1, r1, #0
 8003f38:	fa03 f20e 	lsl.w	r2, r3, lr
 8003f3c:	1880      	adds	r0, r0, r2
 8003f3e:	fa43 f305 	asr.w	r3, r3, r5
 8003f42:	4159      	adcs	r1, r3
 8003f44:	e00e      	b.n	8003f64 <__adddf3+0xd0>
 8003f46:	f1a5 0520 	sub.w	r5, r5, #32
 8003f4a:	f10e 0e20 	add.w	lr, lr, #32
 8003f4e:	2a01      	cmp	r2, #1
 8003f50:	fa03 fc0e 	lsl.w	ip, r3, lr
 8003f54:	bf28      	it	cs
 8003f56:	f04c 0c02 	orrcs.w	ip, ip, #2
 8003f5a:	fa43 f305 	asr.w	r3, r3, r5
 8003f5e:	18c0      	adds	r0, r0, r3
 8003f60:	eb51 71e3 	adcs.w	r1, r1, r3, asr #31
 8003f64:	f001 4500 	and.w	r5, r1, #2147483648	; 0x80000000
 8003f68:	d507      	bpl.n	8003f7a <__adddf3+0xe6>
 8003f6a:	f04f 0e00 	mov.w	lr, #0
 8003f6e:	f1dc 0c00 	rsbs	ip, ip, #0
 8003f72:	eb7e 0000 	sbcs.w	r0, lr, r0
 8003f76:	eb6e 0101 	sbc.w	r1, lr, r1
 8003f7a:	f5b1 1f80 	cmp.w	r1, #1048576	; 0x100000
 8003f7e:	d31b      	bcc.n	8003fb8 <__adddf3+0x124>
 8003f80:	f5b1 1f00 	cmp.w	r1, #2097152	; 0x200000
 8003f84:	d30c      	bcc.n	8003fa0 <__adddf3+0x10c>
 8003f86:	0849      	lsrs	r1, r1, #1
 8003f88:	ea5f 0030 	movs.w	r0, r0, rrx
 8003f8c:	ea4f 0c3c 	mov.w	ip, ip, rrx
 8003f90:	f104 0401 	add.w	r4, r4, #1
 8003f94:	ea4f 5244 	mov.w	r2, r4, lsl #21
 8003f98:	f512 0f80 	cmn.w	r2, #4194304	; 0x400000
 8003f9c:	f080 809a 	bcs.w	80040d4 <__adddf3+0x240>
 8003fa0:	f1bc 4f00 	cmp.w	ip, #2147483648	; 0x80000000
 8003fa4:	bf08      	it	eq
 8003fa6:	ea5f 0c50 	movseq.w	ip, r0, lsr #1
 8003faa:	f150 0000 	adcs.w	r0, r0, #0
 8003fae:	eb41 5104 	adc.w	r1, r1, r4, lsl #20
 8003fb2:	ea41 0105 	orr.w	r1, r1, r5
 8003fb6:	bd30      	pop	{r4, r5, pc}
 8003fb8:	ea5f 0c4c 	movs.w	ip, ip, lsl #1
 8003fbc:	4140      	adcs	r0, r0
 8003fbe:	eb41 0101 	adc.w	r1, r1, r1
 8003fc2:	f411 1f80 	tst.w	r1, #1048576	; 0x100000
 8003fc6:	f1a4 0401 	sub.w	r4, r4, #1
 8003fca:	d1e9      	bne.n	8003fa0 <__adddf3+0x10c>
 8003fcc:	f091 0f00 	teq	r1, #0
 8003fd0:	bf04      	itt	eq
 8003fd2:	4601      	moveq	r1, r0
 8003fd4:	2000      	moveq	r0, #0
 8003fd6:	fab1 f381 	clz	r3, r1
 8003fda:	bf08      	it	eq
 8003fdc:	3320      	addeq	r3, #32
 8003fde:	f1a3 030b 	sub.w	r3, r3, #11
 8003fe2:	f1b3 0220 	subs.w	r2, r3, #32
 8003fe6:	da0c      	bge.n	8004002 <__adddf3+0x16e>
 8003fe8:	320c      	adds	r2, #12
 8003fea:	dd08      	ble.n	8003ffe <__adddf3+0x16a>
 8003fec:	f102 0c14 	add.w	ip, r2, #20
 8003ff0:	f1c2 020c 	rsb	r2, r2, #12
 8003ff4:	fa01 f00c 	lsl.w	r0, r1, ip
 8003ff8:	fa21 f102 	lsr.w	r1, r1, r2
 8003ffc:	e00c      	b.n	8004018 <__adddf3+0x184>
 8003ffe:	f102 0214 	add.w	r2, r2, #20
 8004002:	bfd8      	it	le
 8004004:	f1c2 0c20 	rsble	ip, r2, #32
 8004008:	fa01 f102 	lsl.w	r1, r1, r2
 800400c:	fa20 fc0c 	lsr.w	ip, r0, ip
 8004010:	bfdc      	itt	le
 8004012:	ea41 010c 	orrle.w	r1, r1, ip
 8004016:	4090      	lslle	r0, r2
 8004018:	1ae4      	subs	r4, r4, r3
 800401a:	bfa2      	ittt	ge
 800401c:	eb01 5104 	addge.w	r1, r1, r4, lsl #20
 8004020:	4329      	orrge	r1, r5
 8004022:	bd30      	popge	{r4, r5, pc}
 8004024:	ea6f 0404 	mvn.w	r4, r4
 8004028:	3c1f      	subs	r4, #31
 800402a:	da1c      	bge.n	8004066 <__adddf3+0x1d2>
 800402c:	340c      	adds	r4, #12
 800402e:	dc0e      	bgt.n	800404e <__adddf3+0x1ba>
 8004030:	f104 0414 	add.w	r4, r4, #20
 8004034:	f1c4 0220 	rsb	r2, r4, #32
 8004038:	fa20 f004 	lsr.w	r0, r0, r4
 800403c:	fa01 f302 	lsl.w	r3, r1, r2
 8004040:	ea40 0003 	orr.w	r0, r0, r3
 8004044:	fa21 f304 	lsr.w	r3, r1, r4
 8004048:	ea45 0103 	orr.w	r1, r5, r3
 800404c:	bd30      	pop	{r4, r5, pc}
 800404e:	f1c4 040c 	rsb	r4, r4, #12
 8004052:	f1c4 0220 	rsb	r2, r4, #32
 8004056:	fa20 f002 	lsr.w	r0, r0, r2
 800405a:	fa01 f304 	lsl.w	r3, r1, r4
 800405e:	ea40 0003 	orr.w	r0, r0, r3
 8004062:	4629      	mov	r1, r5
 8004064:	bd30      	pop	{r4, r5, pc}
 8004066:	fa21 f004 	lsr.w	r0, r1, r4
 800406a:	4629      	mov	r1, r5
 800406c:	bd30      	pop	{r4, r5, pc}
 800406e:	f094 0f00 	teq	r4, #0
 8004072:	f483 1380 	eor.w	r3, r3, #1048576	; 0x100000
 8004076:	bf06      	itte	eq
 8004078:	f481 1180 	eoreq.w	r1, r1, #1048576	; 0x100000
 800407c:	3401      	addeq	r4, #1
 800407e:	3d01      	subne	r5, #1
 8004080:	e74e      	b.n	8003f20 <__adddf3+0x8c>
 8004082:	ea7f 5c64 	mvns.w	ip, r4, asr #21
 8004086:	bf18      	it	ne
 8004088:	ea7f 5c65 	mvnsne.w	ip, r5, asr #21
 800408c:	d029      	beq.n	80040e2 <__adddf3+0x24e>
 800408e:	ea94 0f05 	teq	r4, r5
 8004092:	bf08      	it	eq
 8004094:	ea90 0f02 	teqeq	r0, r2
 8004098:	d005      	beq.n	80040a6 <__adddf3+0x212>
 800409a:	ea54 0c00 	orrs.w	ip, r4, r0
 800409e:	bf04      	itt	eq
 80040a0:	4619      	moveq	r1, r3
 80040a2:	4610      	moveq	r0, r2
 80040a4:	bd30      	pop	{r4, r5, pc}
 80040a6:	ea91 0f03 	teq	r1, r3
 80040aa:	bf1e      	ittt	ne
 80040ac:	2100      	movne	r1, #0
 80040ae:	2000      	movne	r0, #0
 80040b0:	bd30      	popne	{r4, r5, pc}
 80040b2:	ea5f 5c54 	movs.w	ip, r4, lsr #21
 80040b6:	d105      	bne.n	80040c4 <__adddf3+0x230>
 80040b8:	0040      	lsls	r0, r0, #1
 80040ba:	4149      	adcs	r1, r1
 80040bc:	bf28      	it	cs
 80040be:	f041 4100 	orrcs.w	r1, r1, #2147483648	; 0x80000000
 80040c2:	bd30      	pop	{r4, r5, pc}
 80040c4:	f514 0480 	adds.w	r4, r4, #4194304	; 0x400000
 80040c8:	bf3c      	itt	cc
 80040ca:	f501 1180 	addcc.w	r1, r1, #1048576	; 0x100000
 80040ce:	bd30      	popcc	{r4, r5, pc}
 80040d0:	f001 4500 	and.w	r5, r1, #2147483648	; 0x80000000
 80040d4:	f045 41fe 	orr.w	r1, r5, #2130706432	; 0x7f000000
 80040d8:	f441 0170 	orr.w	r1, r1, #15728640	; 0xf00000
 80040dc:	f04f 0000 	mov.w	r0, #0
 80040e0:	bd30      	pop	{r4, r5, pc}
 80040e2:	ea7f 5c64 	mvns.w	ip, r4, asr #21
 80040e6:	bf1a      	itte	ne
 80040e8:	4619      	movne	r1, r3
 80040ea:	4610      	movne	r0, r2
 80040ec:	ea7f 5c65 	mvnseq.w	ip, r5, asr #21
 80040f0:	bf1c      	itt	ne
 80040f2:	460b      	movne	r3, r1
 80040f4:	4602      	movne	r2, r0
 80040f6:	ea50 3401 	orrs.w	r4, r0, r1, lsl #12
 80040fa:	bf06      	itte	eq
 80040fc:	ea52 3503 	orrseq.w	r5, r2, r3, lsl #12
 8004100:	ea91 0f03 	teqeq	r1, r3
 8004104:	f441 2100 	orrne.w	r1, r1, #524288	; 0x80000
 8004108:	bd30      	pop	{r4, r5, pc}
 800410a:	bf00      	nop

0800410c <__aeabi_ui2d>:
 800410c:	f090 0f00 	teq	r0, #0
 8004110:	bf04      	itt	eq
 8004112:	2100      	moveq	r1, #0
 8004114:	4770      	bxeq	lr
 8004116:	b530      	push	{r4, r5, lr}
 8004118:	f44f 6480 	mov.w	r4, #1024	; 0x400
 800411c:	f104 0432 	add.w	r4, r4, #50	; 0x32
 8004120:	f04f 0500 	mov.w	r5, #0
 8004124:	f04f 0100 	mov.w	r1, #0
 8004128:	e750      	b.n	8003fcc <__adddf3+0x138>
 800412a:	bf00      	nop

0800412c <__aeabi_i2d>:
 800412c:	f090 0f00 	teq	r0, #0
 8004130:	bf04      	itt	eq
 8004132:	2100      	moveq	r1, #0
 8004134:	4770      	bxeq	lr
 8004136:	b530      	push	{r4, r5, lr}
 8004138:	f44f 6480 	mov.w	r4, #1024	; 0x400
 800413c:	f104 0432 	add.w	r4, r4, #50	; 0x32
 8004140:	f010 4500 	ands.w	r5, r0, #2147483648	; 0x80000000
 8004144:	bf48      	it	mi
 8004146:	4240      	negmi	r0, r0
 8004148:	f04f 0100 	mov.w	r1, #0
 800414c:	e73e      	b.n	8003fcc <__adddf3+0x138>
 800414e:	bf00      	nop

08004150 <__aeabi_f2d>:
 8004150:	0042      	lsls	r2, r0, #1
 8004152:	ea4f 01e2 	mov.w	r1, r2, asr #3
 8004156:	ea4f 0131 	mov.w	r1, r1, rrx
 800415a:	ea4f 7002 	mov.w	r0, r2, lsl #28
 800415e:	bf1f      	itttt	ne
 8004160:	f012 437f 	andsne.w	r3, r2, #4278190080	; 0xff000000
 8004164:	f093 4f7f 	teqne	r3, #4278190080	; 0xff000000
 8004168:	f081 5160 	eorne.w	r1, r1, #939524096	; 0x38000000
 800416c:	4770      	bxne	lr
 800416e:	f092 0f00 	teq	r2, #0
 8004172:	bf14      	ite	ne
 8004174:	f093 4f7f 	teqne	r3, #4278190080	; 0xff000000
 8004178:	4770      	bxeq	lr
 800417a:	b530      	push	{r4, r5, lr}
 800417c:	f44f 7460 	mov.w	r4, #896	; 0x380
 8004180:	f001 4500 	and.w	r5, r1, #2147483648	; 0x80000000
 8004184:	f021 4100 	bic.w	r1, r1, #2147483648	; 0x80000000
 8004188:	e720      	b.n	8003fcc <__adddf3+0x138>
 800418a:	bf00      	nop

0800418c <__aeabi_ul2d>:
 800418c:	ea50 0201 	orrs.w	r2, r0, r1
 8004190:	bf08      	it	eq
 8004192:	4770      	bxeq	lr
 8004194:	b530      	push	{r4, r5, lr}
 8004196:	f04f 0500 	mov.w	r5, #0
 800419a:	e00a      	b.n	80041b2 <__aeabi_l2d+0x16>

0800419c <__aeabi_l2d>:
 800419c:	ea50 0201 	orrs.w	r2, r0, r1
 80041a0:	bf08      	it	eq
 80041a2:	4770      	bxeq	lr
 80041a4:	b530      	push	{r4, r5, lr}
 80041a6:	f011 4500 	ands.w	r5, r1, #2147483648	; 0x80000000
 80041aa:	d502      	bpl.n	80041b2 <__aeabi_l2d+0x16>
 80041ac:	4240      	negs	r0, r0
 80041ae:	eb61 0141 	sbc.w	r1, r1, r1, lsl #1
 80041b2:	f44f 6480 	mov.w	r4, #1024	; 0x400
 80041b6:	f104 0432 	add.w	r4, r4, #50	; 0x32
 80041ba:	ea5f 5c91 	movs.w	ip, r1, lsr #22
 80041be:	f43f aedc 	beq.w	8003f7a <__adddf3+0xe6>
 80041c2:	f04f 0203 	mov.w	r2, #3
 80041c6:	ea5f 0cdc 	movs.w	ip, ip, lsr #3
 80041ca:	bf18      	it	ne
 80041cc:	3203      	addne	r2, #3
 80041ce:	ea5f 0cdc 	movs.w	ip, ip, lsr #3
 80041d2:	bf18      	it	ne
 80041d4:	3203      	addne	r2, #3
 80041d6:	eb02 02dc 	add.w	r2, r2, ip, lsr #3
 80041da:	f1c2 0320 	rsb	r3, r2, #32
 80041de:	fa00 fc03 	lsl.w	ip, r0, r3
 80041e2:	fa20 f002 	lsr.w	r0, r0, r2
 80041e6:	fa01 fe03 	lsl.w	lr, r1, r3
 80041ea:	ea40 000e 	orr.w	r0, r0, lr
 80041ee:	fa21 f102 	lsr.w	r1, r1, r2
 80041f2:	4414      	add	r4, r2
 80041f4:	e6c1      	b.n	8003f7a <__adddf3+0xe6>
 80041f6:	bf00      	nop

080041f8 <__aeabi_dmul>:
 80041f8:	b570      	push	{r4, r5, r6, lr}
 80041fa:	f04f 0cff 	mov.w	ip, #255	; 0xff
 80041fe:	f44c 6ce0 	orr.w	ip, ip, #1792	; 0x700
 8004202:	ea1c 5411 	ands.w	r4, ip, r1, lsr #20
 8004206:	bf1d      	ittte	ne
 8004208:	ea1c 5513 	andsne.w	r5, ip, r3, lsr #20
 800420c:	ea94 0f0c 	teqne	r4, ip
 8004210:	ea95 0f0c 	teqne	r5, ip
 8004214:	f000 f8de 	bleq	80043d4 <__aeabi_dmul+0x1dc>
 8004218:	442c      	add	r4, r5
 800421a:	ea81 0603 	eor.w	r6, r1, r3
 800421e:	ea21 514c 	bic.w	r1, r1, ip, lsl #21
 8004222:	ea23 534c 	bic.w	r3, r3, ip, lsl #21
 8004226:	ea50 3501 	orrs.w	r5, r0, r1, lsl #12
 800422a:	bf18      	it	ne
 800422c:	ea52 3503 	orrsne.w	r5, r2, r3, lsl #12
 8004230:	f441 1180 	orr.w	r1, r1, #1048576	; 0x100000
 8004234:	f443 1380 	orr.w	r3, r3, #1048576	; 0x100000
 8004238:	d038      	beq.n	80042ac <__aeabi_dmul+0xb4>
 800423a:	fba0 ce02 	umull	ip, lr, r0, r2
 800423e:	f04f 0500 	mov.w	r5, #0
 8004242:	fbe1 e502 	umlal	lr, r5, r1, r2
 8004246:	f006 4200 	and.w	r2, r6, #2147483648	; 0x80000000
 800424a:	fbe0 e503 	umlal	lr, r5, r0, r3
 800424e:	f04f 0600 	mov.w	r6, #0
 8004252:	fbe1 5603 	umlal	r5, r6, r1, r3
 8004256:	f09c 0f00 	teq	ip, #0
 800425a:	bf18      	it	ne
 800425c:	f04e 0e01 	orrne.w	lr, lr, #1
 8004260:	f1a4 04ff 	sub.w	r4, r4, #255	; 0xff
 8004264:	f5b6 7f00 	cmp.w	r6, #512	; 0x200
 8004268:	f564 7440 	sbc.w	r4, r4, #768	; 0x300
 800426c:	d204      	bcs.n	8004278 <__aeabi_dmul+0x80>
 800426e:	ea5f 0e4e 	movs.w	lr, lr, lsl #1
 8004272:	416d      	adcs	r5, r5
 8004274:	eb46 0606 	adc.w	r6, r6, r6
 8004278:	ea42 21c6 	orr.w	r1, r2, r6, lsl #11
 800427c:	ea41 5155 	orr.w	r1, r1, r5, lsr #21
 8004280:	ea4f 20c5 	mov.w	r0, r5, lsl #11
 8004284:	ea40 505e 	orr.w	r0, r0, lr, lsr #21
 8004288:	ea4f 2ece 	mov.w	lr, lr, lsl #11
 800428c:	f1b4 0cfd 	subs.w	ip, r4, #253	; 0xfd
 8004290:	bf88      	it	hi
 8004292:	f5bc 6fe0 	cmphi.w	ip, #1792	; 0x700
 8004296:	d81e      	bhi.n	80042d6 <__aeabi_dmul+0xde>
 8004298:	f1be 4f00 	cmp.w	lr, #2147483648	; 0x80000000
 800429c:	bf08      	it	eq
 800429e:	ea5f 0e50 	movseq.w	lr, r0, lsr #1
 80042a2:	f150 0000 	adcs.w	r0, r0, #0
 80042a6:	eb41 5104 	adc.w	r1, r1, r4, lsl #20
 80042aa:	bd70      	pop	{r4, r5, r6, pc}
 80042ac:	f006 4600 	and.w	r6, r6, #2147483648	; 0x80000000
 80042b0:	ea46 0101 	orr.w	r1, r6, r1
 80042b4:	ea40 0002 	orr.w	r0, r0, r2
 80042b8:	ea81 0103 	eor.w	r1, r1, r3
 80042bc:	ebb4 045c 	subs.w	r4, r4, ip, lsr #1
 80042c0:	bfc2      	ittt	gt
 80042c2:	ebd4 050c 	rsbsgt	r5, r4, ip
 80042c6:	ea41 5104 	orrgt.w	r1, r1, r4, lsl #20
 80042ca:	bd70      	popgt	{r4, r5, r6, pc}
 80042cc:	f441 1180 	orr.w	r1, r1, #1048576	; 0x100000
 80042d0:	f04f 0e00 	mov.w	lr, #0
 80042d4:	3c01      	subs	r4, #1
 80042d6:	f300 80ab 	bgt.w	8004430 <__aeabi_dmul+0x238>
 80042da:	f114 0f36 	cmn.w	r4, #54	; 0x36
 80042de:	bfde      	ittt	le
 80042e0:	2000      	movle	r0, #0
 80042e2:	f001 4100 	andle.w	r1, r1, #2147483648	; 0x80000000
 80042e6:	bd70      	pople	{r4, r5, r6, pc}
 80042e8:	f1c4 0400 	rsb	r4, r4, #0
 80042ec:	3c20      	subs	r4, #32
 80042ee:	da35      	bge.n	800435c <__aeabi_dmul+0x164>
 80042f0:	340c      	adds	r4, #12
 80042f2:	dc1b      	bgt.n	800432c <__aeabi_dmul+0x134>
 80042f4:	f104 0414 	add.w	r4, r4, #20
 80042f8:	f1c4 0520 	rsb	r5, r4, #32
 80042fc:	fa00 f305 	lsl.w	r3, r0, r5
 8004300:	fa20 f004 	lsr.w	r0, r0, r4
 8004304:	fa01 f205 	lsl.w	r2, r1, r5
 8004308:	ea40 0002 	orr.w	r0, r0, r2
 800430c:	f001 4200 	and.w	r2, r1, #2147483648	; 0x80000000
 8004310:	f021 4100 	bic.w	r1, r1, #2147483648	; 0x80000000
 8004314:	eb10 70d3 	adds.w	r0, r0, r3, lsr #31
 8004318:	fa21 f604 	lsr.w	r6, r1, r4
 800431c:	eb42 0106 	adc.w	r1, r2, r6
 8004320:	ea5e 0e43 	orrs.w	lr, lr, r3, lsl #1
 8004324:	bf08      	it	eq
 8004326:	ea20 70d3 	biceq.w	r0, r0, r3, lsr #31
 800432a:	bd70      	pop	{r4, r5, r6, pc}
 800432c:	f1c4 040c 	rsb	r4, r4, #12
 8004330:	f1c4 0520 	rsb	r5, r4, #32
 8004334:	fa00 f304 	lsl.w	r3, r0, r4
 8004338:	fa20 f005 	lsr.w	r0, r0, r5
 800433c:	fa01 f204 	lsl.w	r2, r1, r4
 8004340:	ea40 0002 	orr.w	r0, r0, r2
 8004344:	f001 4100 	and.w	r1, r1, #2147483648	; 0x80000000
 8004348:	eb10 70d3 	adds.w	r0, r0, r3, lsr #31
 800434c:	f141 0100 	adc.w	r1, r1, #0
 8004350:	ea5e 0e43 	orrs.w	lr, lr, r3, lsl #1
 8004354:	bf08      	it	eq
 8004356:	ea20 70d3 	biceq.w	r0, r0, r3, lsr #31
 800435a:	bd70      	pop	{r4, r5, r6, pc}
 800435c:	f1c4 0520 	rsb	r5, r4, #32
 8004360:	fa00 f205 	lsl.w	r2, r0, r5
 8004364:	ea4e 0e02 	orr.w	lr, lr, r2
 8004368:	fa20 f304 	lsr.w	r3, r0, r4
 800436c:	fa01 f205 	lsl.w	r2, r1, r5
 8004370:	ea43 0302 	orr.w	r3, r3, r2
 8004374:	fa21 f004 	lsr.w	r0, r1, r4
 8004378:	f001 4100 	and.w	r1, r1, #2147483648	; 0x80000000
 800437c:	fa21 f204 	lsr.w	r2, r1, r4
 8004380:	ea20 0002 	bic.w	r0, r0, r2
 8004384:	eb00 70d3 	add.w	r0, r0, r3, lsr #31
 8004388:	ea5e 0e43 	orrs.w	lr, lr, r3, lsl #1
 800438c:	bf08      	it	eq
 800438e:	ea20 70d3 	biceq.w	r0, r0, r3, lsr #31
 8004392:	bd70      	pop	{r4, r5, r6, pc}
 8004394:	f094 0f00 	teq	r4, #0
 8004398:	d10f      	bne.n	80043ba <__aeabi_dmul+0x1c2>
 800439a:	f001 4600 	and.w	r6, r1, #2147483648	; 0x80000000
 800439e:	0040      	lsls	r0, r0, #1
 80043a0:	eb41 0101 	adc.w	r1, r1, r1
 80043a4:	f411 1f80 	tst.w	r1, #1048576	; 0x100000
 80043a8:	bf08      	it	eq
 80043aa:	3c01      	subeq	r4, #1
 80043ac:	d0f7      	beq.n	800439e <__aeabi_dmul+0x1a6>
 80043ae:	ea41 0106 	orr.w	r1, r1, r6
 80043b2:	f095 0f00 	teq	r5, #0
 80043b6:	bf18      	it	ne
 80043b8:	4770      	bxne	lr
 80043ba:	f003 4600 	and.w	r6, r3, #2147483648	; 0x80000000
 80043be:	0052      	lsls	r2, r2, #1
 80043c0:	eb43 0303 	adc.w	r3, r3, r3
 80043c4:	f413 1f80 	tst.w	r3, #1048576	; 0x100000
 80043c8:	bf08      	it	eq
 80043ca:	3d01      	subeq	r5, #1
 80043cc:	d0f7      	beq.n	80043be <__aeabi_dmul+0x1c6>
 80043ce:	ea43 0306 	orr.w	r3, r3, r6
 80043d2:	4770      	bx	lr
 80043d4:	ea94 0f0c 	teq	r4, ip
 80043d8:	ea0c 5513 	and.w	r5, ip, r3, lsr #20
 80043dc:	bf18      	it	ne
 80043de:	ea95 0f0c 	teqne	r5, ip
 80043e2:	d00c      	beq.n	80043fe <__aeabi_dmul+0x206>
 80043e4:	ea50 0641 	orrs.w	r6, r0, r1, lsl #1
 80043e8:	bf18      	it	ne
 80043ea:	ea52 0643 	orrsne.w	r6, r2, r3, lsl #1
 80043ee:	d1d1      	bne.n	8004394 <__aeabi_dmul+0x19c>
 80043f0:	ea81 0103 	eor.w	r1, r1, r3
 80043f4:	f001 4100 	and.w	r1, r1, #2147483648	; 0x80000000
 80043f8:	f04f 0000 	mov.w	r0, #0
 80043fc:	bd70      	pop	{r4, r5, r6, pc}
 80043fe:	ea50 0641 	orrs.w	r6, r0, r1, lsl #1
 8004402:	bf06      	itte	eq
 8004404:	4610      	moveq	r0, r2
 8004406:	4619      	moveq	r1, r3
 8004408:	ea52 0643 	orrsne.w	r6, r2, r3, lsl #1
 800440c:	d019      	beq.n	8004442 <__aeabi_dmul+0x24a>
 800440e:	ea94 0f0c 	teq	r4, ip
 8004412:	d102      	bne.n	800441a <__aeabi_dmul+0x222>
 8004414:	ea50 3601 	orrs.w	r6, r0, r1, lsl #12
 8004418:	d113      	bne.n	8004442 <__aeabi_dmul+0x24a>
 800441a:	ea95 0f0c 	teq	r5, ip
 800441e:	d105      	bne.n	800442c <__aeabi_dmul+0x234>
 8004420:	ea52 3603 	orrs.w	r6, r2, r3, lsl #12
 8004424:	bf1c      	itt	ne
 8004426:	4610      	movne	r0, r2
 8004428:	4619      	movne	r1, r3
 800442a:	d10a      	bne.n	8004442 <__aeabi_dmul+0x24a>
 800442c:	ea81 0103 	eor.w	r1, r1, r3
 8004430:	f001 4100 	and.w	r1, r1, #2147483648	; 0x80000000
 8004434:	f041 41fe 	orr.w	r1, r1, #2130706432	; 0x7f000000
 8004438:	f441 0170 	orr.w	r1, r1, #15728640	; 0xf00000
 800443c:	f04f 0000 	mov.w	r0, #0
 8004440:	bd70      	pop	{r4, r5, r6, pc}
 8004442:	f041 41fe 	orr.w	r1, r1, #2130706432	; 0x7f000000
 8004446:	f441 0178 	orr.w	r1, r1, #16252928	; 0xf80000
 800444a:	bd70      	pop	{r4, r5, r6, pc}

0800444c <__aeabi_ddiv>:
 800444c:	b570      	push	{r4, r5, r6, lr}
 800444e:	f04f 0cff 	mov.w	ip, #255	; 0xff
 8004452:	f44c 6ce0 	orr.w	ip, ip, #1792	; 0x700
 8004456:	ea1c 5411 	ands.w	r4, ip, r1, lsr #20
 800445a:	bf1d      	ittte	ne
 800445c:	ea1c 5513 	andsne.w	r5, ip, r3, lsr #20
 8004460:	ea94 0f0c 	teqne	r4, ip
 8004464:	ea95 0f0c 	teqne	r5, ip
 8004468:	f000 f8a7 	bleq	80045ba <__aeabi_ddiv+0x16e>
 800446c:	eba4 0405 	sub.w	r4, r4, r5
 8004470:	ea81 0e03 	eor.w	lr, r1, r3
 8004474:	ea52 3503 	orrs.w	r5, r2, r3, lsl #12
 8004478:	ea4f 3101 	mov.w	r1, r1, lsl #12
 800447c:	f000 8088 	beq.w	8004590 <__aeabi_ddiv+0x144>
 8004480:	ea4f 3303 	mov.w	r3, r3, lsl #12
 8004484:	f04f 5580 	mov.w	r5, #268435456	; 0x10000000
 8004488:	ea45 1313 	orr.w	r3, r5, r3, lsr #4
 800448c:	ea43 6312 	orr.w	r3, r3, r2, lsr #24
 8004490:	ea4f 2202 	mov.w	r2, r2, lsl #8
 8004494:	ea45 1511 	orr.w	r5, r5, r1, lsr #4
 8004498:	ea45 6510 	orr.w	r5, r5, r0, lsr #24
 800449c:	ea4f 2600 	mov.w	r6, r0, lsl #8
 80044a0:	f00e 4100 	and.w	r1, lr, #2147483648	; 0x80000000
 80044a4:	429d      	cmp	r5, r3
 80044a6:	bf08      	it	eq
 80044a8:	4296      	cmpeq	r6, r2
 80044aa:	f144 04fd 	adc.w	r4, r4, #253	; 0xfd
 80044ae:	f504 7440 	add.w	r4, r4, #768	; 0x300
 80044b2:	d202      	bcs.n	80044ba <__aeabi_ddiv+0x6e>
 80044b4:	085b      	lsrs	r3, r3, #1
 80044b6:	ea4f 0232 	mov.w	r2, r2, rrx
 80044ba:	1ab6      	subs	r6, r6, r2
 80044bc:	eb65 0503 	sbc.w	r5, r5, r3
 80044c0:	085b      	lsrs	r3, r3, #1
 80044c2:	ea4f 0232 	mov.w	r2, r2, rrx
 80044c6:	f44f 1080 	mov.w	r0, #1048576	; 0x100000
 80044ca:	f44f 2c00 	mov.w	ip, #524288	; 0x80000
 80044ce:	ebb6 0e02 	subs.w	lr, r6, r2
 80044d2:	eb75 0e03 	sbcs.w	lr, r5, r3
 80044d6:	bf22      	ittt	cs
 80044d8:	1ab6      	subcs	r6, r6, r2
 80044da:	4675      	movcs	r5, lr
 80044dc:	ea40 000c 	orrcs.w	r0, r0, ip
 80044e0:	085b      	lsrs	r3, r3, #1
 80044e2:	ea4f 0232 	mov.w	r2, r2, rrx
 80044e6:	ebb6 0e02 	subs.w	lr, r6, r2
 80044ea:	eb75 0e03 	sbcs.w	lr, r5, r3
 80044ee:	bf22      	ittt	cs
 80044f0:	1ab6      	subcs	r6, r6, r2
 80044f2:	4675      	movcs	r5, lr
 80044f4:	ea40 005c 	orrcs.w	r0, r0, ip, lsr #1
 80044f8:	085b      	lsrs	r3, r3, #1
 80044fa:	ea4f 0232 	mov.w	r2, r2, rrx
 80044fe:	ebb6 0e02 	subs.w	lr, r6, r2
 8004502:	eb75 0e03 	sbcs.w	lr, r5, r3
 8004506:	bf22      	ittt	cs
 8004508:	1ab6      	subcs	r6, r6, r2
 800450a:	4675      	movcs	r5, lr
 800450c:	ea40 009c 	orrcs.w	r0, r0, ip, lsr #2
 8004510:	085b      	lsrs	r3, r3, #1
 8004512:	ea4f 0232 	mov.w	r2, r2, rrx
 8004516:	ebb6 0e02 	subs.w	lr, r6, r2
 800451a:	eb75 0e03 	sbcs.w	lr, r5, r3
 800451e:	bf22      	ittt	cs
 8004520:	1ab6      	subcs	r6, r6, r2
 8004522:	4675      	movcs	r5, lr
 8004524:	ea40 00dc 	orrcs.w	r0, r0, ip, lsr #3
 8004528:	ea55 0e06 	orrs.w	lr, r5, r6
 800452c:	d018      	beq.n	8004560 <__aeabi_ddiv+0x114>
 800452e:	ea4f 1505 	mov.w	r5, r5, lsl #4
 8004532:	ea45 7516 	orr.w	r5, r5, r6, lsr #28
 8004536:	ea4f 1606 	mov.w	r6, r6, lsl #4
 800453a:	ea4f 03c3 	mov.w	r3, r3, lsl #3
 800453e:	ea43 7352 	orr.w	r3, r3, r2, lsr #29
 8004542:	ea4f 02c2 	mov.w	r2, r2, lsl #3
 8004546:	ea5f 1c1c 	movs.w	ip, ip, lsr #4
 800454a:	d1c0      	bne.n	80044ce <__aeabi_ddiv+0x82>
 800454c:	f411 1f80 	tst.w	r1, #1048576	; 0x100000
 8004550:	d10b      	bne.n	800456a <__aeabi_ddiv+0x11e>
 8004552:	ea41 0100 	orr.w	r1, r1, r0
 8004556:	f04f 0000 	mov.w	r0, #0
 800455a:	f04f 4c00 	mov.w	ip, #2147483648	; 0x80000000
 800455e:	e7b6      	b.n	80044ce <__aeabi_ddiv+0x82>
 8004560:	f411 1f80 	tst.w	r1, #1048576	; 0x100000
 8004564:	bf04      	itt	eq
 8004566:	4301      	orreq	r1, r0
 8004568:	2000      	moveq	r0, #0
 800456a:	f1b4 0cfd 	subs.w	ip, r4, #253	; 0xfd
 800456e:	bf88      	it	hi
 8004570:	f5bc 6fe0 	cmphi.w	ip, #1792	; 0x700
 8004574:	f63f aeaf 	bhi.w	80042d6 <__aeabi_dmul+0xde>
 8004578:	ebb5 0c03 	subs.w	ip, r5, r3
 800457c:	bf04      	itt	eq
 800457e:	ebb6 0c02 	subseq.w	ip, r6, r2
 8004582:	ea5f 0c50 	movseq.w	ip, r0, lsr #1
 8004586:	f150 0000 	adcs.w	r0, r0, #0
 800458a:	eb41 5104 	adc.w	r1, r1, r4, lsl #20
 800458e:	bd70      	pop	{r4, r5, r6, pc}
 8004590:	f00e 4e00 	and.w	lr, lr, #2147483648	; 0x80000000
 8004594:	ea4e 3111 	orr.w	r1, lr, r1, lsr #12
 8004598:	eb14 045c 	adds.w	r4, r4, ip, lsr #1
 800459c:	bfc2      	ittt	gt
 800459e:	ebd4 050c 	rsbsgt	r5, r4, ip
 80045a2:	ea41 5104 	orrgt.w	r1, r1, r4, lsl #20
 80045a6:	bd70      	popgt	{r4, r5, r6, pc}
 80045a8:	f441 1180 	orr.w	r1, r1, #1048576	; 0x100000
 80045ac:	f04f 0e00 	mov.w	lr, #0
 80045b0:	3c01      	subs	r4, #1
 80045b2:	e690      	b.n	80042d6 <__aeabi_dmul+0xde>
 80045b4:	ea45 0e06 	orr.w	lr, r5, r6
 80045b8:	e68d      	b.n	80042d6 <__aeabi_dmul+0xde>
 80045ba:	ea0c 5513 	and.w	r5, ip, r3, lsr #20
 80045be:	ea94 0f0c 	teq	r4, ip
 80045c2:	bf08      	it	eq
 80045c4:	ea95 0f0c 	teqeq	r5, ip
 80045c8:	f43f af3b 	beq.w	8004442 <__aeabi_dmul+0x24a>
 80045cc:	ea94 0f0c 	teq	r4, ip
 80045d0:	d10a      	bne.n	80045e8 <__aeabi_ddiv+0x19c>
 80045d2:	ea50 3401 	orrs.w	r4, r0, r1, lsl #12
 80045d6:	f47f af34 	bne.w	8004442 <__aeabi_dmul+0x24a>
 80045da:	ea95 0f0c 	teq	r5, ip
 80045de:	f47f af25 	bne.w	800442c <__aeabi_dmul+0x234>
 80045e2:	4610      	mov	r0, r2
 80045e4:	4619      	mov	r1, r3
 80045e6:	e72c      	b.n	8004442 <__aeabi_dmul+0x24a>
 80045e8:	ea95 0f0c 	teq	r5, ip
 80045ec:	d106      	bne.n	80045fc <__aeabi_ddiv+0x1b0>
 80045ee:	ea52 3503 	orrs.w	r5, r2, r3, lsl #12
 80045f2:	f43f aefd 	beq.w	80043f0 <__aeabi_dmul+0x1f8>
 80045f6:	4610      	mov	r0, r2
 80045f8:	4619      	mov	r1, r3
 80045fa:	e722      	b.n	8004442 <__aeabi_dmul+0x24a>
 80045fc:	ea50 0641 	orrs.w	r6, r0, r1, lsl #1
 8004600:	bf18      	it	ne
 8004602:	ea52 0643 	orrsne.w	r6, r2, r3, lsl #1
 8004606:	f47f aec5 	bne.w	8004394 <__aeabi_dmul+0x19c>
 800460a:	ea50 0441 	orrs.w	r4, r0, r1, lsl #1
 800460e:	f47f af0d 	bne.w	800442c <__aeabi_dmul+0x234>
 8004612:	ea52 0543 	orrs.w	r5, r2, r3, lsl #1
 8004616:	f47f aeeb 	bne.w	80043f0 <__aeabi_dmul+0x1f8>
 800461a:	e712      	b.n	8004442 <__aeabi_dmul+0x24a>

0800461c <__gedf2>:
 800461c:	f04f 3cff 	mov.w	ip, #4294967295
 8004620:	e006      	b.n	8004630 <__cmpdf2+0x4>
 8004622:	bf00      	nop

08004624 <__ledf2>:
 8004624:	f04f 0c01 	mov.w	ip, #1
 8004628:	e002      	b.n	8004630 <__cmpdf2+0x4>
 800462a:	bf00      	nop

0800462c <__cmpdf2>:
 800462c:	f04f 0c01 	mov.w	ip, #1
 8004630:	f84d cd04 	str.w	ip, [sp, #-4]!
 8004634:	ea4f 0c41 	mov.w	ip, r1, lsl #1
 8004638:	ea7f 5c6c 	mvns.w	ip, ip, asr #21
 800463c:	ea4f 0c43 	mov.w	ip, r3, lsl #1
 8004640:	bf18      	it	ne
 8004642:	ea7f 5c6c 	mvnsne.w	ip, ip, asr #21
 8004646:	d01b      	beq.n	8004680 <__cmpdf2+0x54>
 8004648:	b001      	add	sp, #4
 800464a:	ea50 0c41 	orrs.w	ip, r0, r1, lsl #1
 800464e:	bf0c      	ite	eq
 8004650:	ea52 0c43 	orrseq.w	ip, r2, r3, lsl #1
 8004654:	ea91 0f03 	teqne	r1, r3
 8004658:	bf02      	ittt	eq
 800465a:	ea90 0f02 	teqeq	r0, r2
 800465e:	2000      	moveq	r0, #0
 8004660:	4770      	bxeq	lr
 8004662:	f110 0f00 	cmn.w	r0, #0
 8004666:	ea91 0f03 	teq	r1, r3
 800466a:	bf58      	it	pl
 800466c:	4299      	cmppl	r1, r3
 800466e:	bf08      	it	eq
 8004670:	4290      	cmpeq	r0, r2
 8004672:	bf2c      	ite	cs
 8004674:	17d8      	asrcs	r0, r3, #31
 8004676:	ea6f 70e3 	mvncc.w	r0, r3, asr #31
 800467a:	f040 0001 	orr.w	r0, r0, #1
 800467e:	4770      	bx	lr
 8004680:	ea4f 0c41 	mov.w	ip, r1, lsl #1
 8004684:	ea7f 5c6c 	mvns.w	ip, ip, asr #21
 8004688:	d102      	bne.n	8004690 <__cmpdf2+0x64>
 800468a:	ea50 3c01 	orrs.w	ip, r0, r1, lsl #12
 800468e:	d107      	bne.n	80046a0 <__cmpdf2+0x74>
 8004690:	ea4f 0c43 	mov.w	ip, r3, lsl #1
 8004694:	ea7f 5c6c 	mvns.w	ip, ip, asr #21
 8004698:	d1d6      	bne.n	8004648 <__cmpdf2+0x1c>
 800469a:	ea52 3c03 	orrs.w	ip, r2, r3, lsl #12
 800469e:	d0d3      	beq.n	8004648 <__cmpdf2+0x1c>
 80046a0:	f85d 0b04 	ldr.w	r0, [sp], #4
 80046a4:	4770      	bx	lr
 80046a6:	bf00      	nop

080046a8 <__aeabi_cdrcmple>:
 80046a8:	4684      	mov	ip, r0
 80046aa:	4610      	mov	r0, r2
 80046ac:	4662      	mov	r2, ip
 80046ae:	468c      	mov	ip, r1
 80046b0:	4619      	mov	r1, r3
 80046b2:	4663      	mov	r3, ip
 80046b4:	e000      	b.n	80046b8 <__aeabi_cdcmpeq>
 80046b6:	bf00      	nop

080046b8 <__aeabi_cdcmpeq>:
 80046b8:	b501      	push	{r0, lr}
 80046ba:	f7ff ffb7 	bl	800462c <__cmpdf2>
 80046be:	2800      	cmp	r0, #0
 80046c0:	bf48      	it	mi
 80046c2:	f110 0f00 	cmnmi.w	r0, #0
 80046c6:	bd01      	pop	{r0, pc}

080046c8 <__aeabi_dcmpeq>:
 80046c8:	f84d ed08 	str.w	lr, [sp, #-8]!
 80046cc:	f7ff fff4 	bl	80046b8 <__aeabi_cdcmpeq>
 80046d0:	bf0c      	ite	eq
 80046d2:	2001      	moveq	r0, #1
 80046d4:	2000      	movne	r0, #0
 80046d6:	f85d fb08 	ldr.w	pc, [sp], #8
 80046da:	bf00      	nop

080046dc <__aeabi_dcmplt>:
 80046dc:	f84d ed08 	str.w	lr, [sp, #-8]!
 80046e0:	f7ff ffea 	bl	80046b8 <__aeabi_cdcmpeq>
 80046e4:	bf34      	ite	cc
 80046e6:	2001      	movcc	r0, #1
 80046e8:	2000      	movcs	r0, #0
 80046ea:	f85d fb08 	ldr.w	pc, [sp], #8
 80046ee:	bf00      	nop

080046f0 <__aeabi_dcmple>:
 80046f0:	f84d ed08 	str.w	lr, [sp, #-8]!
 80046f4:	f7ff ffe0 	bl	80046b8 <__aeabi_cdcmpeq>
 80046f8:	bf94      	ite	ls
 80046fa:	2001      	movls	r0, #1
 80046fc:	2000      	movhi	r0, #0
 80046fe:	f85d fb08 	ldr.w	pc, [sp], #8
 8004702:	bf00      	nop

08004704 <__aeabi_dcmpge>:
 8004704:	f84d ed08 	str.w	lr, [sp, #-8]!
 8004708:	f7ff ffce 	bl	80046a8 <__aeabi_cdrcmple>
 800470c:	bf94      	ite	ls
 800470e:	2001      	movls	r0, #1
 8004710:	2000      	movhi	r0, #0
 8004712:	f85d fb08 	ldr.w	pc, [sp], #8
 8004716:	bf00      	nop

08004718 <__aeabi_dcmpgt>:
 8004718:	f84d ed08 	str.w	lr, [sp, #-8]!
 800471c:	f7ff ffc4 	bl	80046a8 <__aeabi_cdrcmple>
 8004720:	bf34      	ite	cc
 8004722:	2001      	movcc	r0, #1
 8004724:	2000      	movcs	r0, #0
 8004726:	f85d fb08 	ldr.w	pc, [sp], #8
 800472a:	bf00      	nop

0800472c <__aeabi_d2uiz>:
 800472c:	004a      	lsls	r2, r1, #1
 800472e:	d211      	bcs.n	8004754 <__aeabi_d2uiz+0x28>
 8004730:	f512 1200 	adds.w	r2, r2, #2097152	; 0x200000
 8004734:	d211      	bcs.n	800475a <__aeabi_d2uiz+0x2e>
 8004736:	d50d      	bpl.n	8004754 <__aeabi_d2uiz+0x28>
 8004738:	f46f 7378 	mvn.w	r3, #992	; 0x3e0
 800473c:	ebb3 5262 	subs.w	r2, r3, r2, asr #21
 8004740:	d40e      	bmi.n	8004760 <__aeabi_d2uiz+0x34>
 8004742:	ea4f 23c1 	mov.w	r3, r1, lsl #11
 8004746:	f043 4300 	orr.w	r3, r3, #2147483648	; 0x80000000
 800474a:	ea43 5350 	orr.w	r3, r3, r0, lsr #21
 800474e:	fa23 f002 	lsr.w	r0, r3, r2
 8004752:	4770      	bx	lr
 8004754:	f04f 0000 	mov.w	r0, #0
 8004758:	4770      	bx	lr
 800475a:	ea50 3001 	orrs.w	r0, r0, r1, lsl #12
 800475e:	d102      	bne.n	8004766 <__aeabi_d2uiz+0x3a>
 8004760:	f04f 30ff 	mov.w	r0, #4294967295
 8004764:	4770      	bx	lr
 8004766:	f04f 0000 	mov.w	r0, #0
 800476a:	4770      	bx	lr

0800476c <memcpy>:
 800476c:	2a0f      	cmp	r2, #15
 800476e:	e92d 03f0 	stmdb	sp!, {r4, r5, r6, r7, r8, r9}
 8004772:	f240 8095 	bls.w	80048a0 <memcpy+0x134>
 8004776:	ea41 0300 	orr.w	r3, r1, r0
 800477a:	079b      	lsls	r3, r3, #30
 800477c:	f040 8092 	bne.w	80048a4 <memcpy+0x138>
 8004780:	680c      	ldr	r4, [r1, #0]
 8004782:	6004      	str	r4, [r0, #0]
 8004784:	684d      	ldr	r5, [r1, #4]
 8004786:	6045      	str	r5, [r0, #4]
 8004788:	688e      	ldr	r6, [r1, #8]
 800478a:	f1a2 0310 	sub.w	r3, r2, #16
 800478e:	6086      	str	r6, [r0, #8]
 8004790:	68cc      	ldr	r4, [r1, #12]
 8004792:	461d      	mov	r5, r3
 8004794:	2d0f      	cmp	r5, #15
 8004796:	60c4      	str	r4, [r0, #12]
 8004798:	f3c3 1600 	ubfx	r6, r3, #4, #1
 800479c:	f101 0410 	add.w	r4, r1, #16
 80047a0:	f100 0310 	add.w	r3, r0, #16
 80047a4:	d922      	bls.n	80047ec <memcpy+0x80>
 80047a6:	b166      	cbz	r6, 80047c2 <memcpy+0x56>
 80047a8:	6826      	ldr	r6, [r4, #0]
 80047aa:	601e      	str	r6, [r3, #0]
 80047ac:	6866      	ldr	r6, [r4, #4]
 80047ae:	605e      	str	r6, [r3, #4]
 80047b0:	68a6      	ldr	r6, [r4, #8]
 80047b2:	609e      	str	r6, [r3, #8]
 80047b4:	68e6      	ldr	r6, [r4, #12]
 80047b6:	3d10      	subs	r5, #16
 80047b8:	60de      	str	r6, [r3, #12]
 80047ba:	3410      	adds	r4, #16
 80047bc:	3310      	adds	r3, #16
 80047be:	2d0f      	cmp	r5, #15
 80047c0:	d914      	bls.n	80047ec <memcpy+0x80>
 80047c2:	6826      	ldr	r6, [r4, #0]
 80047c4:	601e      	str	r6, [r3, #0]
 80047c6:	6866      	ldr	r6, [r4, #4]
 80047c8:	605e      	str	r6, [r3, #4]
 80047ca:	68a6      	ldr	r6, [r4, #8]
 80047cc:	609e      	str	r6, [r3, #8]
 80047ce:	68e6      	ldr	r6, [r4, #12]
 80047d0:	60de      	str	r6, [r3, #12]
 80047d2:	6926      	ldr	r6, [r4, #16]
 80047d4:	611e      	str	r6, [r3, #16]
 80047d6:	6966      	ldr	r6, [r4, #20]
 80047d8:	615e      	str	r6, [r3, #20]
 80047da:	69a6      	ldr	r6, [r4, #24]
 80047dc:	619e      	str	r6, [r3, #24]
 80047de:	69e6      	ldr	r6, [r4, #28]
 80047e0:	3d20      	subs	r5, #32
 80047e2:	61de      	str	r6, [r3, #28]
 80047e4:	3420      	adds	r4, #32
 80047e6:	3320      	adds	r3, #32
 80047e8:	2d0f      	cmp	r5, #15
 80047ea:	d8ea      	bhi.n	80047c2 <memcpy+0x56>
 80047ec:	f1a2 0310 	sub.w	r3, r2, #16
 80047f0:	f023 040f 	bic.w	r4, r3, #15
 80047f4:	f002 030f 	and.w	r3, r2, #15
 80047f8:	3410      	adds	r4, #16
 80047fa:	2b03      	cmp	r3, #3
 80047fc:	eb00 0804 	add.w	r8, r0, r4
 8004800:	4421      	add	r1, r4
 8004802:	d951      	bls.n	80048a8 <memcpy+0x13c>
 8004804:	f1a3 0904 	sub.w	r9, r3, #4
 8004808:	460b      	mov	r3, r1
 800480a:	ea4f 0999 	mov.w	r9, r9, lsr #2
 800480e:	eb01 0c89 	add.w	ip, r1, r9, lsl #2
 8004812:	f853 6b04 	ldr.w	r6, [r3], #4
 8004816:	ebc1 050c 	rsb	r5, r1, ip
 800481a:	4644      	mov	r4, r8
 800481c:	f10c 0c04 	add.w	ip, ip, #4
 8004820:	4563      	cmp	r3, ip
 8004822:	f844 6b04 	str.w	r6, [r4], #4
 8004826:	f3c5 0580 	ubfx	r5, r5, #2, #1
 800482a:	d012      	beq.n	8004852 <memcpy+0xe6>
 800482c:	b12d      	cbz	r5, 800483a <memcpy+0xce>
 800482e:	f853 5b04 	ldr.w	r5, [r3], #4
 8004832:	4563      	cmp	r3, ip
 8004834:	f844 5b04 	str.w	r5, [r4], #4
 8004838:	d00b      	beq.n	8004852 <memcpy+0xe6>
 800483a:	461e      	mov	r6, r3
 800483c:	4625      	mov	r5, r4
 800483e:	f856 7b04 	ldr.w	r7, [r6], #4
 8004842:	f845 7b04 	str.w	r7, [r5], #4
 8004846:	685f      	ldr	r7, [r3, #4]
 8004848:	1d33      	adds	r3, r6, #4
 800484a:	6067      	str	r7, [r4, #4]
 800484c:	1d2c      	adds	r4, r5, #4
 800484e:	4563      	cmp	r3, ip
 8004850:	d1f3      	bne.n	800483a <memcpy+0xce>
 8004852:	f109 0301 	add.w	r3, r9, #1
 8004856:	009c      	lsls	r4, r3, #2
 8004858:	1909      	adds	r1, r1, r4
 800485a:	f002 0203 	and.w	r2, r2, #3
 800485e:	4444      	add	r4, r8
 8004860:	b1da      	cbz	r2, 800489a <memcpy+0x12e>
 8004862:	4623      	mov	r3, r4
 8004864:	780d      	ldrb	r5, [r1, #0]
 8004866:	f803 5b01 	strb.w	r5, [r3], #1
 800486a:	18a2      	adds	r2, r4, r2
 800486c:	43e4      	mvns	r4, r4
 800486e:	1914      	adds	r4, r2, r4
 8004870:	4293      	cmp	r3, r2
 8004872:	f004 0401 	and.w	r4, r4, #1
 8004876:	d010      	beq.n	800489a <memcpy+0x12e>
 8004878:	b12c      	cbz	r4, 8004886 <memcpy+0x11a>
 800487a:	f811 4f01 	ldrb.w	r4, [r1, #1]!
 800487e:	f803 4b01 	strb.w	r4, [r3], #1
 8004882:	4293      	cmp	r3, r2
 8004884:	d009      	beq.n	800489a <memcpy+0x12e>
 8004886:	784d      	ldrb	r5, [r1, #1]
 8004888:	461c      	mov	r4, r3
 800488a:	f804 5b01 	strb.w	r5, [r4], #1
 800488e:	788d      	ldrb	r5, [r1, #2]
 8004890:	705d      	strb	r5, [r3, #1]
 8004892:	1c63      	adds	r3, r4, #1
 8004894:	3102      	adds	r1, #2
 8004896:	4293      	cmp	r3, r2
 8004898:	d1f5      	bne.n	8004886 <memcpy+0x11a>
 800489a:	e8bd 03f0 	ldmia.w	sp!, {r4, r5, r6, r7, r8, r9}
 800489e:	4770      	bx	lr
 80048a0:	4604      	mov	r4, r0
 80048a2:	e7dd      	b.n	8004860 <memcpy+0xf4>
 80048a4:	4604      	mov	r4, r0
 80048a6:	e7dc      	b.n	8004862 <memcpy+0xf6>
 80048a8:	4644      	mov	r4, r8
 80048aa:	461a      	mov	r2, r3
 80048ac:	e7d8      	b.n	8004860 <memcpy+0xf4>
 80048ae:	bf00      	nop

080048b0 <memset>:
 80048b0:	b4f0      	push	{r4, r5, r6, r7}
 80048b2:	0784      	lsls	r4, r0, #30
 80048b4:	4603      	mov	r3, r0
 80048b6:	f000 808e 	beq.w	80049d6 <memset+0x126>
 80048ba:	1e54      	subs	r4, r2, #1
 80048bc:	2a00      	cmp	r2, #0
 80048be:	f000 8088 	beq.w	80049d2 <memset+0x122>
 80048c2:	07e5      	lsls	r5, r4, #31
 80048c4:	b2ce      	uxtb	r6, r1
 80048c6:	d411      	bmi.n	80048ec <memset+0x3c>
 80048c8:	461a      	mov	r2, r3
 80048ca:	1e67      	subs	r7, r4, #1
 80048cc:	f802 6b01 	strb.w	r6, [r2], #1
 80048d0:	4613      	mov	r3, r2
 80048d2:	4615      	mov	r5, r2
 80048d4:	0792      	lsls	r2, r2, #30
 80048d6:	d00f      	beq.n	80048f8 <memset+0x48>
 80048d8:	2c00      	cmp	r4, #0
 80048da:	d07a      	beq.n	80049d2 <memset+0x122>
 80048dc:	f803 6b01 	strb.w	r6, [r3], #1
 80048e0:	079a      	lsls	r2, r3, #30
 80048e2:	463c      	mov	r4, r7
 80048e4:	461d      	mov	r5, r3
 80048e6:	d007      	beq.n	80048f8 <memset+0x48>
 80048e8:	3c01      	subs	r4, #1
 80048ea:	e7ed      	b.n	80048c8 <memset+0x18>
 80048ec:	4603      	mov	r3, r0
 80048ee:	f803 6b01 	strb.w	r6, [r3], #1
 80048f2:	079a      	lsls	r2, r3, #30
 80048f4:	461d      	mov	r5, r3
 80048f6:	d1f7      	bne.n	80048e8 <memset+0x38>
 80048f8:	2c03      	cmp	r4, #3
 80048fa:	d952      	bls.n	80049a2 <memset+0xf2>
 80048fc:	b2ce      	uxtb	r6, r1
 80048fe:	ea46 2706 	orr.w	r7, r6, r6, lsl #8
 8004902:	2c0f      	cmp	r4, #15
 8004904:	ea47 4307 	orr.w	r3, r7, r7, lsl #16
 8004908:	d92d      	bls.n	8004966 <memset+0xb6>
 800490a:	f1a4 0210 	sub.w	r2, r4, #16
 800490e:	4617      	mov	r7, r2
 8004910:	2f0f      	cmp	r7, #15
 8004912:	f3c2 1600 	ubfx	r6, r2, #4, #1
 8004916:	602b      	str	r3, [r5, #0]
 8004918:	606b      	str	r3, [r5, #4]
 800491a:	60ab      	str	r3, [r5, #8]
 800491c:	60eb      	str	r3, [r5, #12]
 800491e:	f105 0210 	add.w	r2, r5, #16
 8004922:	d916      	bls.n	8004952 <memset+0xa2>
 8004924:	b13e      	cbz	r6, 8004936 <memset+0x86>
 8004926:	3f10      	subs	r7, #16
 8004928:	6013      	str	r3, [r2, #0]
 800492a:	6053      	str	r3, [r2, #4]
 800492c:	6093      	str	r3, [r2, #8]
 800492e:	60d3      	str	r3, [r2, #12]
 8004930:	3210      	adds	r2, #16
 8004932:	2f0f      	cmp	r7, #15
 8004934:	d90d      	bls.n	8004952 <memset+0xa2>
 8004936:	3f20      	subs	r7, #32
 8004938:	f102 0610 	add.w	r6, r2, #16
 800493c:	6013      	str	r3, [r2, #0]
 800493e:	6053      	str	r3, [r2, #4]
 8004940:	6093      	str	r3, [r2, #8]
 8004942:	60d3      	str	r3, [r2, #12]
 8004944:	6113      	str	r3, [r2, #16]
 8004946:	6153      	str	r3, [r2, #20]
 8004948:	6193      	str	r3, [r2, #24]
 800494a:	61d3      	str	r3, [r2, #28]
 800494c:	3220      	adds	r2, #32
 800494e:	2f0f      	cmp	r7, #15
 8004950:	d8f1      	bhi.n	8004936 <memset+0x86>
 8004952:	f1a4 0210 	sub.w	r2, r4, #16
 8004956:	f022 020f 	bic.w	r2, r2, #15
 800495a:	f004 040f 	and.w	r4, r4, #15
 800495e:	3210      	adds	r2, #16
 8004960:	2c03      	cmp	r4, #3
 8004962:	4415      	add	r5, r2
 8004964:	d91d      	bls.n	80049a2 <memset+0xf2>
 8004966:	1f27      	subs	r7, r4, #4
 8004968:	463e      	mov	r6, r7
 800496a:	462a      	mov	r2, r5
 800496c:	2e03      	cmp	r6, #3
 800496e:	f842 3b04 	str.w	r3, [r2], #4
 8004972:	f3c7 0780 	ubfx	r7, r7, #2, #1
 8004976:	d90d      	bls.n	8004994 <memset+0xe4>
 8004978:	b127      	cbz	r7, 8004984 <memset+0xd4>
 800497a:	3e04      	subs	r6, #4
 800497c:	2e03      	cmp	r6, #3
 800497e:	f842 3b04 	str.w	r3, [r2], #4
 8004982:	d907      	bls.n	8004994 <memset+0xe4>
 8004984:	4617      	mov	r7, r2
 8004986:	3e08      	subs	r6, #8
 8004988:	f847 3b04 	str.w	r3, [r7], #4
 800498c:	6053      	str	r3, [r2, #4]
 800498e:	1d3a      	adds	r2, r7, #4
 8004990:	2e03      	cmp	r6, #3
 8004992:	d8f7      	bhi.n	8004984 <memset+0xd4>
 8004994:	1f23      	subs	r3, r4, #4
 8004996:	f023 0203 	bic.w	r2, r3, #3
 800499a:	1d13      	adds	r3, r2, #4
 800499c:	f004 0403 	and.w	r4, r4, #3
 80049a0:	18ed      	adds	r5, r5, r3
 80049a2:	b1b4      	cbz	r4, 80049d2 <memset+0x122>
 80049a4:	462b      	mov	r3, r5
 80049a6:	b2c9      	uxtb	r1, r1
 80049a8:	f803 1b01 	strb.w	r1, [r3], #1
 80049ac:	192c      	adds	r4, r5, r4
 80049ae:	43ed      	mvns	r5, r5
 80049b0:	1962      	adds	r2, r4, r5
 80049b2:	42a3      	cmp	r3, r4
 80049b4:	f002 0501 	and.w	r5, r2, #1
 80049b8:	d00b      	beq.n	80049d2 <memset+0x122>
 80049ba:	b11d      	cbz	r5, 80049c4 <memset+0x114>
 80049bc:	f803 1b01 	strb.w	r1, [r3], #1
 80049c0:	42a3      	cmp	r3, r4
 80049c2:	d006      	beq.n	80049d2 <memset+0x122>
 80049c4:	461a      	mov	r2, r3
 80049c6:	f802 1b01 	strb.w	r1, [r2], #1
 80049ca:	7059      	strb	r1, [r3, #1]
 80049cc:	1c53      	adds	r3, r2, #1
 80049ce:	42a3      	cmp	r3, r4
 80049d0:	d1f8      	bne.n	80049c4 <memset+0x114>
 80049d2:	bcf0      	pop	{r4, r5, r6, r7}
 80049d4:	4770      	bx	lr
 80049d6:	4605      	mov	r5, r0
 80049d8:	4614      	mov	r4, r2
 80049da:	e78d      	b.n	80048f8 <memset+0x48>

080049dc <cleanup_glue>:
 80049dc:	b538      	push	{r3, r4, r5, lr}
 80049de:	460c      	mov	r4, r1
 80049e0:	6809      	ldr	r1, [r1, #0]
 80049e2:	4605      	mov	r5, r0
 80049e4:	b109      	cbz	r1, 80049ea <cleanup_glue+0xe>
 80049e6:	f7ff fff9 	bl	80049dc <cleanup_glue>
 80049ea:	4628      	mov	r0, r5
 80049ec:	4621      	mov	r1, r4
 80049ee:	e8bd 4038 	ldmia.w	sp!, {r3, r4, r5, lr}
 80049f2:	f000 b8cd 	b.w	8004b90 <_free_r>
 80049f6:	bf00      	nop

080049f8 <_reclaim_reent>:
 80049f8:	4b21      	ldr	r3, [pc, #132]	; (8004a80 <_reclaim_reent+0x88>)
 80049fa:	6819      	ldr	r1, [r3, #0]
 80049fc:	4288      	cmp	r0, r1
 80049fe:	b570      	push	{r4, r5, r6, lr}
 8004a00:	4605      	mov	r5, r0
 8004a02:	d030      	beq.n	8004a66 <_reclaim_reent+0x6e>
 8004a04:	6cc2      	ldr	r2, [r0, #76]	; 0x4c
 8004a06:	b1a2      	cbz	r2, 8004a32 <_reclaim_reent+0x3a>
 8004a08:	2000      	movs	r0, #0
 8004a0a:	4606      	mov	r6, r0
 8004a0c:	f852 1020 	ldr.w	r1, [r2, r0, lsl #2]
 8004a10:	b139      	cbz	r1, 8004a22 <_reclaim_reent+0x2a>
 8004a12:	680c      	ldr	r4, [r1, #0]
 8004a14:	4628      	mov	r0, r5
 8004a16:	f000 f8bb 	bl	8004b90 <_free_r>
 8004a1a:	4621      	mov	r1, r4
 8004a1c:	2c00      	cmp	r4, #0
 8004a1e:	d1f8      	bne.n	8004a12 <_reclaim_reent+0x1a>
 8004a20:	6cea      	ldr	r2, [r5, #76]	; 0x4c
 8004a22:	3601      	adds	r6, #1
 8004a24:	2e20      	cmp	r6, #32
 8004a26:	4630      	mov	r0, r6
 8004a28:	d1f0      	bne.n	8004a0c <_reclaim_reent+0x14>
 8004a2a:	4628      	mov	r0, r5
 8004a2c:	4611      	mov	r1, r2
 8004a2e:	f000 f8af 	bl	8004b90 <_free_r>
 8004a32:	6c29      	ldr	r1, [r5, #64]	; 0x40
 8004a34:	b111      	cbz	r1, 8004a3c <_reclaim_reent+0x44>
 8004a36:	4628      	mov	r0, r5
 8004a38:	f000 f8aa 	bl	8004b90 <_free_r>
 8004a3c:	f8d5 1148 	ldr.w	r1, [r5, #328]	; 0x148
 8004a40:	b151      	cbz	r1, 8004a58 <_reclaim_reent+0x60>
 8004a42:	f505 76a6 	add.w	r6, r5, #332	; 0x14c
 8004a46:	42b1      	cmp	r1, r6
 8004a48:	d006      	beq.n	8004a58 <_reclaim_reent+0x60>
 8004a4a:	680c      	ldr	r4, [r1, #0]
 8004a4c:	4628      	mov	r0, r5
 8004a4e:	f000 f89f 	bl	8004b90 <_free_r>
 8004a52:	42a6      	cmp	r6, r4
 8004a54:	4621      	mov	r1, r4
 8004a56:	d1f8      	bne.n	8004a4a <_reclaim_reent+0x52>
 8004a58:	6d69      	ldr	r1, [r5, #84]	; 0x54
 8004a5a:	b111      	cbz	r1, 8004a62 <_reclaim_reent+0x6a>
 8004a5c:	4628      	mov	r0, r5
 8004a5e:	f000 f897 	bl	8004b90 <_free_r>
 8004a62:	6bab      	ldr	r3, [r5, #56]	; 0x38
 8004a64:	b903      	cbnz	r3, 8004a68 <_reclaim_reent+0x70>
 8004a66:	bd70      	pop	{r4, r5, r6, pc}
 8004a68:	6be9      	ldr	r1, [r5, #60]	; 0x3c
 8004a6a:	4628      	mov	r0, r5
 8004a6c:	4788      	blx	r1
 8004a6e:	f8d5 12e0 	ldr.w	r1, [r5, #736]	; 0x2e0
 8004a72:	2900      	cmp	r1, #0
 8004a74:	d0f7      	beq.n	8004a66 <_reclaim_reent+0x6e>
 8004a76:	4628      	mov	r0, r5
 8004a78:	e8bd 4070 	ldmia.w	sp!, {r4, r5, r6, lr}
 8004a7c:	f7ff bfae 	b.w	80049dc <cleanup_glue>
 8004a80:	200004e0 	.word	0x200004e0

08004a84 <_wrapup_reent>:
 8004a84:	e92d 43f8 	stmdb	sp!, {r3, r4, r5, r6, r7, r8, r9, lr}
 8004a88:	4680      	mov	r8, r0
 8004a8a:	2800      	cmp	r0, #0
 8004a8c:	d02e      	beq.n	8004aec <_wrapup_reent+0x68>
 8004a8e:	f8d8 7148 	ldr.w	r7, [r8, #328]	; 0x148
 8004a92:	b317      	cbz	r7, 8004ada <_wrapup_reent+0x56>
 8004a94:	687c      	ldr	r4, [r7, #4]
 8004a96:	1e65      	subs	r5, r4, #1
 8004a98:	d41c      	bmi.n	8004ad4 <_wrapup_reent+0x50>
 8004a9a:	3402      	adds	r4, #2
 8004a9c:	eb07 0484 	add.w	r4, r7, r4, lsl #2
 8004aa0:	f005 0901 	and.w	r9, r5, #1
 8004aa4:	f854 0d04 	ldr.w	r0, [r4, #-4]!
 8004aa8:	4780      	blx	r0
 8004aaa:	1e6e      	subs	r6, r5, #1
 8004aac:	b195      	cbz	r5, 8004ad4 <_wrapup_reent+0x50>
 8004aae:	f1b9 0f00 	cmp.w	r9, #0
 8004ab2:	d005      	beq.n	8004ac0 <_wrapup_reent+0x3c>
 8004ab4:	f854 1d04 	ldr.w	r1, [r4, #-4]!
 8004ab8:	3e01      	subs	r6, #1
 8004aba:	4788      	blx	r1
 8004abc:	1c73      	adds	r3, r6, #1
 8004abe:	d009      	beq.n	8004ad4 <_wrapup_reent+0x50>
 8004ac0:	f854 2d04 	ldr.w	r2, [r4, #-4]!
 8004ac4:	4790      	blx	r2
 8004ac6:	1e75      	subs	r5, r6, #1
 8004ac8:	f854 3d04 	ldr.w	r3, [r4, #-4]!
 8004acc:	4798      	blx	r3
 8004ace:	3e02      	subs	r6, #2
 8004ad0:	2d00      	cmp	r5, #0
 8004ad2:	d1f5      	bne.n	8004ac0 <_wrapup_reent+0x3c>
 8004ad4:	683f      	ldr	r7, [r7, #0]
 8004ad6:	2f00      	cmp	r7, #0
 8004ad8:	d1dc      	bne.n	8004a94 <_wrapup_reent+0x10>
 8004ada:	f8d8 103c 	ldr.w	r1, [r8, #60]	; 0x3c
 8004ade:	b119      	cbz	r1, 8004ae8 <_wrapup_reent+0x64>
 8004ae0:	4640      	mov	r0, r8
 8004ae2:	4788      	blx	r1
 8004ae4:	e8bd 83f8 	ldmia.w	sp!, {r3, r4, r5, r6, r7, r8, r9, pc}
 8004ae8:	e8bd 83f8 	ldmia.w	sp!, {r3, r4, r5, r6, r7, r8, r9, pc}
 8004aec:	4b01      	ldr	r3, [pc, #4]	; (8004af4 <_wrapup_reent+0x70>)
 8004aee:	f8d3 8000 	ldr.w	r8, [r3]
 8004af2:	e7cc      	b.n	8004a8e <_wrapup_reent+0xa>
 8004af4:	200004e0 	.word	0x200004e0

08004af8 <_malloc_trim_r>:
 8004af8:	b5f8      	push	{r3, r4, r5, r6, r7, lr}
 8004afa:	4d22      	ldr	r5, [pc, #136]	; (8004b84 <_malloc_trim_r+0x8c>)
 8004afc:	460f      	mov	r7, r1
 8004afe:	4604      	mov	r4, r0
 8004b00:	f000 fbbe 	bl	8005280 <__malloc_lock>
 8004b04:	68ab      	ldr	r3, [r5, #8]
 8004b06:	685e      	ldr	r6, [r3, #4]
 8004b08:	f026 0603 	bic.w	r6, r6, #3
 8004b0c:	f606 70ef 	addw	r0, r6, #4079	; 0xfef
 8004b10:	1bc1      	subs	r1, r0, r7
 8004b12:	0b0a      	lsrs	r2, r1, #12
 8004b14:	1e57      	subs	r7, r2, #1
 8004b16:	033f      	lsls	r7, r7, #12
 8004b18:	f5b7 5f80 	cmp.w	r7, #4096	; 0x1000
 8004b1c:	db07      	blt.n	8004b2e <_malloc_trim_r+0x36>
 8004b1e:	2100      	movs	r1, #0
 8004b20:	4620      	mov	r0, r4
 8004b22:	f000 fbb1 	bl	8005288 <_sbrk_r>
 8004b26:	68ab      	ldr	r3, [r5, #8]
 8004b28:	1999      	adds	r1, r3, r6
 8004b2a:	4288      	cmp	r0, r1
 8004b2c:	d004      	beq.n	8004b38 <_malloc_trim_r+0x40>
 8004b2e:	4620      	mov	r0, r4
 8004b30:	f000 fba8 	bl	8005284 <__malloc_unlock>
 8004b34:	2000      	movs	r0, #0
 8004b36:	bdf8      	pop	{r3, r4, r5, r6, r7, pc}
 8004b38:	4279      	negs	r1, r7
 8004b3a:	4620      	mov	r0, r4
 8004b3c:	f000 fba4 	bl	8005288 <_sbrk_r>
 8004b40:	3001      	adds	r0, #1
 8004b42:	d00d      	beq.n	8004b60 <_malloc_trim_r+0x68>
 8004b44:	4b10      	ldr	r3, [pc, #64]	; (8004b88 <_malloc_trim_r+0x90>)
 8004b46:	68a8      	ldr	r0, [r5, #8]
 8004b48:	681a      	ldr	r2, [r3, #0]
 8004b4a:	1bf6      	subs	r6, r6, r7
 8004b4c:	f046 0601 	orr.w	r6, r6, #1
 8004b50:	1bd7      	subs	r7, r2, r7
 8004b52:	6046      	str	r6, [r0, #4]
 8004b54:	4620      	mov	r0, r4
 8004b56:	601f      	str	r7, [r3, #0]
 8004b58:	f000 fb94 	bl	8005284 <__malloc_unlock>
 8004b5c:	2001      	movs	r0, #1
 8004b5e:	bdf8      	pop	{r3, r4, r5, r6, r7, pc}
 8004b60:	2100      	movs	r1, #0
 8004b62:	4620      	mov	r0, r4
 8004b64:	f000 fb90 	bl	8005288 <_sbrk_r>
 8004b68:	68ab      	ldr	r3, [r5, #8]
 8004b6a:	1ac2      	subs	r2, r0, r3
 8004b6c:	2a0f      	cmp	r2, #15
 8004b6e:	ddde      	ble.n	8004b2e <_malloc_trim_r+0x36>
 8004b70:	4906      	ldr	r1, [pc, #24]	; (8004b8c <_malloc_trim_r+0x94>)
 8004b72:	6809      	ldr	r1, [r1, #0]
 8004b74:	1a40      	subs	r0, r0, r1
 8004b76:	4904      	ldr	r1, [pc, #16]	; (8004b88 <_malloc_trim_r+0x90>)
 8004b78:	f042 0201 	orr.w	r2, r2, #1
 8004b7c:	6008      	str	r0, [r1, #0]
 8004b7e:	605a      	str	r2, [r3, #4]
 8004b80:	e7d5      	b.n	8004b2e <_malloc_trim_r+0x36>
 8004b82:	bf00      	nop
 8004b84:	200004e4 	.word	0x200004e4
 8004b88:	20000910 	.word	0x20000910
 8004b8c:	200008f0 	.word	0x200008f0

08004b90 <_free_r>:
 8004b90:	e92d 41f0 	stmdb	sp!, {r4, r5, r6, r7, r8, lr}
 8004b94:	460d      	mov	r5, r1
 8004b96:	4606      	mov	r6, r0
 8004b98:	2900      	cmp	r1, #0
 8004b9a:	d055      	beq.n	8004c48 <_free_r+0xb8>
 8004b9c:	f000 fb70 	bl	8005280 <__malloc_lock>
 8004ba0:	f855 1c04 	ldr.w	r1, [r5, #-4]
 8004ba4:	f8df c16c 	ldr.w	ip, [pc, #364]	; 8004d14 <_free_r+0x184>
 8004ba8:	f1a5 0408 	sub.w	r4, r5, #8
 8004bac:	f021 0301 	bic.w	r3, r1, #1
 8004bb0:	18e2      	adds	r2, r4, r3
 8004bb2:	f8dc 0008 	ldr.w	r0, [ip, #8]
 8004bb6:	6857      	ldr	r7, [r2, #4]
 8004bb8:	4290      	cmp	r0, r2
 8004bba:	f027 0703 	bic.w	r7, r7, #3
 8004bbe:	d065      	beq.n	8004c8c <_free_r+0xfc>
 8004bc0:	f011 0101 	ands.w	r1, r1, #1
 8004bc4:	6057      	str	r7, [r2, #4]
 8004bc6:	d032      	beq.n	8004c2e <_free_r+0x9e>
 8004bc8:	2100      	movs	r1, #0
 8004bca:	19d0      	adds	r0, r2, r7
 8004bcc:	6840      	ldr	r0, [r0, #4]
 8004bce:	07c0      	lsls	r0, r0, #31
 8004bd0:	d406      	bmi.n	8004be0 <_free_r+0x50>
 8004bd2:	19db      	adds	r3, r3, r7
 8004bd4:	6890      	ldr	r0, [r2, #8]
 8004bd6:	2900      	cmp	r1, #0
 8004bd8:	d04a      	beq.n	8004c70 <_free_r+0xe0>
 8004bda:	68d2      	ldr	r2, [r2, #12]
 8004bdc:	60c2      	str	r2, [r0, #12]
 8004bde:	6090      	str	r0, [r2, #8]
 8004be0:	f043 0001 	orr.w	r0, r3, #1
 8004be4:	6060      	str	r0, [r4, #4]
 8004be6:	50e3      	str	r3, [r4, r3]
 8004be8:	b9e1      	cbnz	r1, 8004c24 <_free_r+0x94>
 8004bea:	f5b3 7f00 	cmp.w	r3, #512	; 0x200
 8004bee:	d32d      	bcc.n	8004c4c <_free_r+0xbc>
 8004bf0:	0a5a      	lsrs	r2, r3, #9
 8004bf2:	2a04      	cmp	r2, #4
 8004bf4:	d866      	bhi.n	8004cc4 <_free_r+0x134>
 8004bf6:	0998      	lsrs	r0, r3, #6
 8004bf8:	3038      	adds	r0, #56	; 0x38
 8004bfa:	0042      	lsls	r2, r0, #1
 8004bfc:	eb0c 0e82 	add.w	lr, ip, r2, lsl #2
 8004c00:	4944      	ldr	r1, [pc, #272]	; (8004d14 <_free_r+0x184>)
 8004c02:	f8de 2008 	ldr.w	r2, [lr, #8]
 8004c06:	4572      	cmp	r2, lr
 8004c08:	d062      	beq.n	8004cd0 <_free_r+0x140>
 8004c0a:	6850      	ldr	r0, [r2, #4]
 8004c0c:	f020 0103 	bic.w	r1, r0, #3
 8004c10:	428b      	cmp	r3, r1
 8004c12:	d202      	bcs.n	8004c1a <_free_r+0x8a>
 8004c14:	6892      	ldr	r2, [r2, #8]
 8004c16:	4596      	cmp	lr, r2
 8004c18:	d1f7      	bne.n	8004c0a <_free_r+0x7a>
 8004c1a:	68d0      	ldr	r0, [r2, #12]
 8004c1c:	60e0      	str	r0, [r4, #12]
 8004c1e:	60a2      	str	r2, [r4, #8]
 8004c20:	60d4      	str	r4, [r2, #12]
 8004c22:	6084      	str	r4, [r0, #8]
 8004c24:	4630      	mov	r0, r6
 8004c26:	e8bd 41f0 	ldmia.w	sp!, {r4, r5, r6, r7, r8, lr}
 8004c2a:	f000 bb2b 	b.w	8005284 <__malloc_unlock>
 8004c2e:	f855 5c08 	ldr.w	r5, [r5, #-8]
 8004c32:	1b64      	subs	r4, r4, r5
 8004c34:	f10c 0808 	add.w	r8, ip, #8
 8004c38:	68a0      	ldr	r0, [r4, #8]
 8004c3a:	4540      	cmp	r0, r8
 8004c3c:	442b      	add	r3, r5
 8004c3e:	d03f      	beq.n	8004cc0 <_free_r+0x130>
 8004c40:	68e5      	ldr	r5, [r4, #12]
 8004c42:	60c5      	str	r5, [r0, #12]
 8004c44:	60a8      	str	r0, [r5, #8]
 8004c46:	e7c0      	b.n	8004bca <_free_r+0x3a>
 8004c48:	e8bd 81f0 	ldmia.w	sp!, {r4, r5, r6, r7, r8, pc}
 8004c4c:	08dd      	lsrs	r5, r3, #3
 8004c4e:	eb0c 02c5 	add.w	r2, ip, r5, lsl #3
 8004c52:	f8dc 0004 	ldr.w	r0, [ip, #4]
 8004c56:	6891      	ldr	r1, [r2, #8]
 8004c58:	60e2      	str	r2, [r4, #12]
 8004c5a:	10ab      	asrs	r3, r5, #2
 8004c5c:	2501      	movs	r5, #1
 8004c5e:	fa05 f303 	lsl.w	r3, r5, r3
 8004c62:	4318      	orrs	r0, r3
 8004c64:	60a1      	str	r1, [r4, #8]
 8004c66:	f8cc 0004 	str.w	r0, [ip, #4]
 8004c6a:	6094      	str	r4, [r2, #8]
 8004c6c:	60cc      	str	r4, [r1, #12]
 8004c6e:	e7d9      	b.n	8004c24 <_free_r+0x94>
 8004c70:	4d29      	ldr	r5, [pc, #164]	; (8004d18 <_free_r+0x188>)
 8004c72:	42a8      	cmp	r0, r5
 8004c74:	d1b1      	bne.n	8004bda <_free_r+0x4a>
 8004c76:	f043 0201 	orr.w	r2, r3, #1
 8004c7a:	f8cc 4014 	str.w	r4, [ip, #20]
 8004c7e:	f8cc 4010 	str.w	r4, [ip, #16]
 8004c82:	60e0      	str	r0, [r4, #12]
 8004c84:	60a0      	str	r0, [r4, #8]
 8004c86:	6062      	str	r2, [r4, #4]
 8004c88:	50e3      	str	r3, [r4, r3]
 8004c8a:	e7cb      	b.n	8004c24 <_free_r+0x94>
 8004c8c:	18ff      	adds	r7, r7, r3
 8004c8e:	07cb      	lsls	r3, r1, #31
 8004c90:	d407      	bmi.n	8004ca2 <_free_r+0x112>
 8004c92:	f855 1c08 	ldr.w	r1, [r5, #-8]
 8004c96:	1a64      	subs	r4, r4, r1
 8004c98:	187f      	adds	r7, r7, r1
 8004c9a:	68e3      	ldr	r3, [r4, #12]
 8004c9c:	68a0      	ldr	r0, [r4, #8]
 8004c9e:	60c3      	str	r3, [r0, #12]
 8004ca0:	6098      	str	r0, [r3, #8]
 8004ca2:	4a1e      	ldr	r2, [pc, #120]	; (8004d1c <_free_r+0x18c>)
 8004ca4:	f8cc 4008 	str.w	r4, [ip, #8]
 8004ca8:	6811      	ldr	r1, [r2, #0]
 8004caa:	f047 0301 	orr.w	r3, r7, #1
 8004cae:	428f      	cmp	r7, r1
 8004cb0:	6063      	str	r3, [r4, #4]
 8004cb2:	d3b7      	bcc.n	8004c24 <_free_r+0x94>
 8004cb4:	4a1a      	ldr	r2, [pc, #104]	; (8004d20 <_free_r+0x190>)
 8004cb6:	4630      	mov	r0, r6
 8004cb8:	6811      	ldr	r1, [r2, #0]
 8004cba:	f7ff ff1d 	bl	8004af8 <_malloc_trim_r>
 8004cbe:	e7b1      	b.n	8004c24 <_free_r+0x94>
 8004cc0:	2101      	movs	r1, #1
 8004cc2:	e782      	b.n	8004bca <_free_r+0x3a>
 8004cc4:	2a14      	cmp	r2, #20
 8004cc6:	d80c      	bhi.n	8004ce2 <_free_r+0x152>
 8004cc8:	f102 005b 	add.w	r0, r2, #91	; 0x5b
 8004ccc:	0042      	lsls	r2, r0, #1
 8004cce:	e795      	b.n	8004bfc <_free_r+0x6c>
 8004cd0:	684b      	ldr	r3, [r1, #4]
 8004cd2:	1080      	asrs	r0, r0, #2
 8004cd4:	2501      	movs	r5, #1
 8004cd6:	fa05 f000 	lsl.w	r0, r5, r0
 8004cda:	4303      	orrs	r3, r0
 8004cdc:	604b      	str	r3, [r1, #4]
 8004cde:	4610      	mov	r0, r2
 8004ce0:	e79c      	b.n	8004c1c <_free_r+0x8c>
 8004ce2:	2a54      	cmp	r2, #84	; 0x54
 8004ce4:	d803      	bhi.n	8004cee <_free_r+0x15e>
 8004ce6:	0b18      	lsrs	r0, r3, #12
 8004ce8:	306e      	adds	r0, #110	; 0x6e
 8004cea:	0042      	lsls	r2, r0, #1
 8004cec:	e786      	b.n	8004bfc <_free_r+0x6c>
 8004cee:	f5b2 7faa 	cmp.w	r2, #340	; 0x154
 8004cf2:	d803      	bhi.n	8004cfc <_free_r+0x16c>
 8004cf4:	0bd8      	lsrs	r0, r3, #15
 8004cf6:	3077      	adds	r0, #119	; 0x77
 8004cf8:	0042      	lsls	r2, r0, #1
 8004cfa:	e77f      	b.n	8004bfc <_free_r+0x6c>
 8004cfc:	f240 5154 	movw	r1, #1364	; 0x554
 8004d00:	428a      	cmp	r2, r1
 8004d02:	d803      	bhi.n	8004d0c <_free_r+0x17c>
 8004d04:	0c98      	lsrs	r0, r3, #18
 8004d06:	307c      	adds	r0, #124	; 0x7c
 8004d08:	0042      	lsls	r2, r0, #1
 8004d0a:	e777      	b.n	8004bfc <_free_r+0x6c>
 8004d0c:	22fc      	movs	r2, #252	; 0xfc
 8004d0e:	207e      	movs	r0, #126	; 0x7e
 8004d10:	e774      	b.n	8004bfc <_free_r+0x6c>
 8004d12:	bf00      	nop
 8004d14:	200004e4 	.word	0x200004e4
 8004d18:	200004ec 	.word	0x200004ec
 8004d1c:	200008ec 	.word	0x200008ec
 8004d20:	2000090c 	.word	0x2000090c

08004d24 <_malloc_r>:
 8004d24:	e92d 4ff0 	stmdb	sp!, {r4, r5, r6, r7, r8, r9, sl, fp, lr}
 8004d28:	f101 050b 	add.w	r5, r1, #11
 8004d2c:	2d16      	cmp	r5, #22
 8004d2e:	b083      	sub	sp, #12
 8004d30:	4606      	mov	r6, r0
 8004d32:	d927      	bls.n	8004d84 <_malloc_r+0x60>
 8004d34:	f035 0507 	bics.w	r5, r5, #7
 8004d38:	d427      	bmi.n	8004d8a <_malloc_r+0x66>
 8004d3a:	42a9      	cmp	r1, r5
 8004d3c:	d825      	bhi.n	8004d8a <_malloc_r+0x66>
 8004d3e:	4630      	mov	r0, r6
 8004d40:	f000 fa9e 	bl	8005280 <__malloc_lock>
 8004d44:	f5b5 7ffc 	cmp.w	r5, #504	; 0x1f8
 8004d48:	d223      	bcs.n	8004d92 <_malloc_r+0x6e>
 8004d4a:	4fba      	ldr	r7, [pc, #744]	; (8005034 <_malloc_r+0x310>)
 8004d4c:	ea4f 0cd5 	mov.w	ip, r5, lsr #3
 8004d50:	eb07 02cc 	add.w	r2, r7, ip, lsl #3
 8004d54:	68d4      	ldr	r4, [r2, #12]
 8004d56:	4294      	cmp	r4, r2
 8004d58:	f000 81de 	beq.w	8005118 <_malloc_r+0x3f4>
 8004d5c:	6863      	ldr	r3, [r4, #4]
 8004d5e:	68e2      	ldr	r2, [r4, #12]
 8004d60:	68a1      	ldr	r1, [r4, #8]
 8004d62:	f023 0003 	bic.w	r0, r3, #3
 8004d66:	1823      	adds	r3, r4, r0
 8004d68:	60ca      	str	r2, [r1, #12]
 8004d6a:	6858      	ldr	r0, [r3, #4]
 8004d6c:	6091      	str	r1, [r2, #8]
 8004d6e:	f040 0201 	orr.w	r2, r0, #1
 8004d72:	605a      	str	r2, [r3, #4]
 8004d74:	4630      	mov	r0, r6
 8004d76:	f000 fa85 	bl	8005284 <__malloc_unlock>
 8004d7a:	3408      	adds	r4, #8
 8004d7c:	4620      	mov	r0, r4
 8004d7e:	b003      	add	sp, #12
 8004d80:	e8bd 8ff0 	ldmia.w	sp!, {r4, r5, r6, r7, r8, r9, sl, fp, pc}
 8004d84:	2510      	movs	r5, #16
 8004d86:	42a9      	cmp	r1, r5
 8004d88:	d9d9      	bls.n	8004d3e <_malloc_r+0x1a>
 8004d8a:	240c      	movs	r4, #12
 8004d8c:	6034      	str	r4, [r6, #0]
 8004d8e:	2400      	movs	r4, #0
 8004d90:	e7f4      	b.n	8004d7c <_malloc_r+0x58>
 8004d92:	ea5f 2c55 	movs.w	ip, r5, lsr #9
 8004d96:	f000 808b 	beq.w	8004eb0 <_malloc_r+0x18c>
 8004d9a:	f1bc 0f04 	cmp.w	ip, #4
 8004d9e:	f200 8155 	bhi.w	800504c <_malloc_r+0x328>
 8004da2:	ea4f 1795 	mov.w	r7, r5, lsr #6
 8004da6:	f107 0e38 	add.w	lr, r7, #56	; 0x38
 8004daa:	ea4f 014e 	mov.w	r1, lr, lsl #1
 8004dae:	4fa1      	ldr	r7, [pc, #644]	; (8005034 <_malloc_r+0x310>)
 8004db0:	eb07 0181 	add.w	r1, r7, r1, lsl #2
 8004db4:	68cc      	ldr	r4, [r1, #12]
 8004db6:	42a1      	cmp	r1, r4
 8004db8:	d105      	bne.n	8004dc6 <_malloc_r+0xa2>
 8004dba:	e00c      	b.n	8004dd6 <_malloc_r+0xb2>
 8004dbc:	2a00      	cmp	r2, #0
 8004dbe:	da7c      	bge.n	8004eba <_malloc_r+0x196>
 8004dc0:	68e4      	ldr	r4, [r4, #12]
 8004dc2:	42a1      	cmp	r1, r4
 8004dc4:	d007      	beq.n	8004dd6 <_malloc_r+0xb2>
 8004dc6:	6863      	ldr	r3, [r4, #4]
 8004dc8:	f023 0003 	bic.w	r0, r3, #3
 8004dcc:	1b42      	subs	r2, r0, r5
 8004dce:	2a0f      	cmp	r2, #15
 8004dd0:	ddf4      	ble.n	8004dbc <_malloc_r+0x98>
 8004dd2:	f10e 3eff 	add.w	lr, lr, #4294967295
 8004dd6:	f10e 0c01 	add.w	ip, lr, #1
 8004dda:	4b96      	ldr	r3, [pc, #600]	; (8005034 <_malloc_r+0x310>)
 8004ddc:	693c      	ldr	r4, [r7, #16]
 8004dde:	f103 0e08 	add.w	lr, r3, #8
 8004de2:	4574      	cmp	r4, lr
 8004de4:	f000 8175 	beq.w	80050d2 <_malloc_r+0x3ae>
 8004de8:	6861      	ldr	r1, [r4, #4]
 8004dea:	f021 0103 	bic.w	r1, r1, #3
 8004dee:	1b4a      	subs	r2, r1, r5
 8004df0:	2a0f      	cmp	r2, #15
 8004df2:	f300 815b 	bgt.w	80050ac <_malloc_r+0x388>
 8004df6:	2a00      	cmp	r2, #0
 8004df8:	f8c3 e014 	str.w	lr, [r3, #20]
 8004dfc:	f8c3 e010 	str.w	lr, [r3, #16]
 8004e00:	da69      	bge.n	8004ed6 <_malloc_r+0x1b2>
 8004e02:	f5b1 7f00 	cmp.w	r1, #512	; 0x200
 8004e06:	f080 812f 	bcs.w	8005068 <_malloc_r+0x344>
 8004e0a:	08ca      	lsrs	r2, r1, #3
 8004e0c:	eb03 01c2 	add.w	r1, r3, r2, lsl #3
 8004e10:	f04f 0901 	mov.w	r9, #1
 8004e14:	1092      	asrs	r2, r2, #2
 8004e16:	fa09 f902 	lsl.w	r9, r9, r2
 8004e1a:	685a      	ldr	r2, [r3, #4]
 8004e1c:	6888      	ldr	r0, [r1, #8]
 8004e1e:	60e1      	str	r1, [r4, #12]
 8004e20:	ea49 0902 	orr.w	r9, r9, r2
 8004e24:	60a0      	str	r0, [r4, #8]
 8004e26:	f8c3 9004 	str.w	r9, [r3, #4]
 8004e2a:	608c      	str	r4, [r1, #8]
 8004e2c:	60c4      	str	r4, [r0, #12]
 8004e2e:	2001      	movs	r0, #1
 8004e30:	ea4f 04ac 	mov.w	r4, ip, asr #2
 8004e34:	fa00 f004 	lsl.w	r0, r0, r4
 8004e38:	4548      	cmp	r0, r9
 8004e3a:	d856      	bhi.n	8004eea <_malloc_r+0x1c6>
 8004e3c:	ea19 0f00 	tst.w	r9, r0
 8004e40:	d107      	bne.n	8004e52 <_malloc_r+0x12e>
 8004e42:	f02c 0c03 	bic.w	ip, ip, #3
 8004e46:	0040      	lsls	r0, r0, #1
 8004e48:	ea19 0f00 	tst.w	r9, r0
 8004e4c:	f10c 0c04 	add.w	ip, ip, #4
 8004e50:	d0f9      	beq.n	8004e46 <_malloc_r+0x122>
 8004e52:	eb07 09cc 	add.w	r9, r7, ip, lsl #3
 8004e56:	464c      	mov	r4, r9
 8004e58:	46e0      	mov	r8, ip
 8004e5a:	68e3      	ldr	r3, [r4, #12]
 8004e5c:	429c      	cmp	r4, r3
 8004e5e:	d107      	bne.n	8004e70 <_malloc_r+0x14c>
 8004e60:	e13a      	b.n	80050d8 <_malloc_r+0x3b4>
 8004e62:	2a00      	cmp	r2, #0
 8004e64:	f280 8162 	bge.w	800512c <_malloc_r+0x408>
 8004e68:	68db      	ldr	r3, [r3, #12]
 8004e6a:	429c      	cmp	r4, r3
 8004e6c:	f000 8134 	beq.w	80050d8 <_malloc_r+0x3b4>
 8004e70:	6859      	ldr	r1, [r3, #4]
 8004e72:	f021 0103 	bic.w	r1, r1, #3
 8004e76:	1b4a      	subs	r2, r1, r5
 8004e78:	2a0f      	cmp	r2, #15
 8004e7a:	ddf2      	ble.n	8004e62 <_malloc_r+0x13e>
 8004e7c:	461c      	mov	r4, r3
 8004e7e:	1959      	adds	r1, r3, r5
 8004e80:	68d8      	ldr	r0, [r3, #12]
 8004e82:	f854 cf08 	ldr.w	ip, [r4, #8]!
 8004e86:	508a      	str	r2, [r1, r2]
 8004e88:	f045 0501 	orr.w	r5, r5, #1
 8004e8c:	f042 0201 	orr.w	r2, r2, #1
 8004e90:	f8cc 000c 	str.w	r0, [ip, #12]
 8004e94:	f8c0 c008 	str.w	ip, [r0, #8]
 8004e98:	605d      	str	r5, [r3, #4]
 8004e9a:	6179      	str	r1, [r7, #20]
 8004e9c:	6139      	str	r1, [r7, #16]
 8004e9e:	f8c1 e00c 	str.w	lr, [r1, #12]
 8004ea2:	f8c1 e008 	str.w	lr, [r1, #8]
 8004ea6:	604a      	str	r2, [r1, #4]
 8004ea8:	4630      	mov	r0, r6
 8004eaa:	f000 f9eb 	bl	8005284 <__malloc_unlock>
 8004eae:	e765      	b.n	8004d7c <_malloc_r+0x58>
 8004eb0:	ea4f 0ed5 	mov.w	lr, r5, lsr #3
 8004eb4:	ea4f 014e 	mov.w	r1, lr, lsl #1
 8004eb8:	e779      	b.n	8004dae <_malloc_r+0x8a>
 8004eba:	1822      	adds	r2, r4, r0
 8004ebc:	68e3      	ldr	r3, [r4, #12]
 8004ebe:	6850      	ldr	r0, [r2, #4]
 8004ec0:	68a1      	ldr	r1, [r4, #8]
 8004ec2:	f040 0001 	orr.w	r0, r0, #1
 8004ec6:	6050      	str	r0, [r2, #4]
 8004ec8:	60cb      	str	r3, [r1, #12]
 8004eca:	6099      	str	r1, [r3, #8]
 8004ecc:	4630      	mov	r0, r6
 8004ece:	f000 f9d9 	bl	8005284 <__malloc_unlock>
 8004ed2:	3408      	adds	r4, #8
 8004ed4:	e752      	b.n	8004d7c <_malloc_r+0x58>
 8004ed6:	1861      	adds	r1, r4, r1
 8004ed8:	4630      	mov	r0, r6
 8004eda:	684b      	ldr	r3, [r1, #4]
 8004edc:	f043 0201 	orr.w	r2, r3, #1
 8004ee0:	604a      	str	r2, [r1, #4]
 8004ee2:	f000 f9cf 	bl	8005284 <__malloc_unlock>
 8004ee6:	3408      	adds	r4, #8
 8004ee8:	e748      	b.n	8004d7c <_malloc_r+0x58>
 8004eea:	68bc      	ldr	r4, [r7, #8]
 8004eec:	6860      	ldr	r0, [r4, #4]
 8004eee:	f020 0903 	bic.w	r9, r0, #3
 8004ef2:	45a9      	cmp	r9, r5
 8004ef4:	d304      	bcc.n	8004f00 <_malloc_r+0x1dc>
 8004ef6:	ebc5 0309 	rsb	r3, r5, r9
 8004efa:	2b0f      	cmp	r3, #15
 8004efc:	f300 808d 	bgt.w	800501a <_malloc_r+0x2f6>
 8004f00:	4a4d      	ldr	r2, [pc, #308]	; (8005038 <_malloc_r+0x314>)
 8004f02:	4b4e      	ldr	r3, [pc, #312]	; (800503c <_malloc_r+0x318>)
 8004f04:	6811      	ldr	r1, [r2, #0]
 8004f06:	6818      	ldr	r0, [r3, #0]
 8004f08:	3101      	adds	r1, #1
 8004f0a:	eb04 0b09 	add.w	fp, r4, r9
 8004f0e:	eb05 0300 	add.w	r3, r5, r0
 8004f12:	f000 815a 	beq.w	80051ca <_malloc_r+0x4a6>
 8004f16:	f503 5080 	add.w	r0, r3, #4096	; 0x1000
 8004f1a:	300f      	adds	r0, #15
 8004f1c:	f420 617f 	bic.w	r1, r0, #4080	; 0xff0
 8004f20:	f021 0c0f 	bic.w	ip, r1, #15
 8004f24:	4661      	mov	r1, ip
 8004f26:	4630      	mov	r0, r6
 8004f28:	e88d 1004 	stmia.w	sp, {r2, ip}
 8004f2c:	f000 f9ac 	bl	8005288 <_sbrk_r>
 8004f30:	f1b0 3fff 	cmp.w	r0, #4294967295
 8004f34:	4680      	mov	r8, r0
 8004f36:	e89d 1004 	ldmia.w	sp, {r2, ip}
 8004f3a:	f000 8152 	beq.w	80051e2 <_malloc_r+0x4be>
 8004f3e:	4583      	cmp	fp, r0
 8004f40:	f200 810f 	bhi.w	8005162 <_malloc_r+0x43e>
 8004f44:	f8df a100 	ldr.w	sl, [pc, #256]	; 8005048 <_malloc_r+0x324>
 8004f48:	f8da 3000 	ldr.w	r3, [sl]
 8004f4c:	45c3      	cmp	fp, r8
 8004f4e:	4463      	add	r3, ip
 8004f50:	f8ca 3000 	str.w	r3, [sl]
 8004f54:	f000 814a 	beq.w	80051ec <_malloc_r+0x4c8>
 8004f58:	6812      	ldr	r2, [r2, #0]
 8004f5a:	3201      	adds	r2, #1
 8004f5c:	f000 8157 	beq.w	800520e <_malloc_r+0x4ea>
 8004f60:	ebcb 0b08 	rsb	fp, fp, r8
 8004f64:	445b      	add	r3, fp
 8004f66:	f8ca 3000 	str.w	r3, [sl]
 8004f6a:	f018 0107 	ands.w	r1, r8, #7
 8004f6e:	f000 810b 	beq.w	8005188 <_malloc_r+0x464>
 8004f72:	f1c1 0008 	rsb	r0, r1, #8
 8004f76:	f5c1 5380 	rsb	r3, r1, #4096	; 0x1000
 8004f7a:	4480      	add	r8, r0
 8004f7c:	f103 0208 	add.w	r2, r3, #8
 8004f80:	eb08 010c 	add.w	r1, r8, ip
 8004f84:	0508      	lsls	r0, r1, #20
 8004f86:	0d03      	lsrs	r3, r0, #20
 8004f88:	ebc3 0b02 	rsb	fp, r3, r2
 8004f8c:	4630      	mov	r0, r6
 8004f8e:	4659      	mov	r1, fp
 8004f90:	f000 f97a 	bl	8005288 <_sbrk_r>
 8004f94:	1c43      	adds	r3, r0, #1
 8004f96:	f000 8146 	beq.w	8005226 <_malloc_r+0x502>
 8004f9a:	ebc8 0200 	rsb	r2, r8, r0
 8004f9e:	eb0b 0102 	add.w	r1, fp, r2
 8004fa2:	f041 0001 	orr.w	r0, r1, #1
 8004fa6:	f8da 3000 	ldr.w	r3, [sl]
 8004faa:	f8c7 8008 	str.w	r8, [r7, #8]
 8004fae:	445b      	add	r3, fp
 8004fb0:	42bc      	cmp	r4, r7
 8004fb2:	f8ca 3000 	str.w	r3, [sl]
 8004fb6:	f8c8 0004 	str.w	r0, [r8, #4]
 8004fba:	d015      	beq.n	8004fe8 <_malloc_r+0x2c4>
 8004fbc:	f1b9 0f0f 	cmp.w	r9, #15
 8004fc0:	f240 80f2 	bls.w	80051a8 <_malloc_r+0x484>
 8004fc4:	6861      	ldr	r1, [r4, #4]
 8004fc6:	f1a9 020c 	sub.w	r2, r9, #12
 8004fca:	f022 0207 	bic.w	r2, r2, #7
 8004fce:	18a0      	adds	r0, r4, r2
 8004fd0:	f001 0c01 	and.w	ip, r1, #1
 8004fd4:	ea42 0e0c 	orr.w	lr, r2, ip
 8004fd8:	2105      	movs	r1, #5
 8004fda:	2a0f      	cmp	r2, #15
 8004fdc:	f8c4 e004 	str.w	lr, [r4, #4]
 8004fe0:	6041      	str	r1, [r0, #4]
 8004fe2:	6081      	str	r1, [r0, #8]
 8004fe4:	f200 8117 	bhi.w	8005216 <_malloc_r+0x4f2>
 8004fe8:	4a15      	ldr	r2, [pc, #84]	; (8005040 <_malloc_r+0x31c>)
 8004fea:	68bc      	ldr	r4, [r7, #8]
 8004fec:	6810      	ldr	r0, [r2, #0]
 8004fee:	4283      	cmp	r3, r0
 8004ff0:	bf88      	it	hi
 8004ff2:	6013      	strhi	r3, [r2, #0]
 8004ff4:	4a13      	ldr	r2, [pc, #76]	; (8005044 <_malloc_r+0x320>)
 8004ff6:	6811      	ldr	r1, [r2, #0]
 8004ff8:	428b      	cmp	r3, r1
 8004ffa:	bf88      	it	hi
 8004ffc:	6013      	strhi	r3, [r2, #0]
 8004ffe:	6863      	ldr	r3, [r4, #4]
 8005000:	f023 0003 	bic.w	r0, r3, #3
 8005004:	42a8      	cmp	r0, r5
 8005006:	ebc5 0300 	rsb	r3, r5, r0
 800500a:	d301      	bcc.n	8005010 <_malloc_r+0x2ec>
 800500c:	2b0f      	cmp	r3, #15
 800500e:	dc04      	bgt.n	800501a <_malloc_r+0x2f6>
 8005010:	4630      	mov	r0, r6
 8005012:	f000 f937 	bl	8005284 <__malloc_unlock>
 8005016:	2400      	movs	r4, #0
 8005018:	e6b0      	b.n	8004d7c <_malloc_r+0x58>
 800501a:	1962      	adds	r2, r4, r5
 800501c:	f043 0101 	orr.w	r1, r3, #1
 8005020:	f045 0501 	orr.w	r5, r5, #1
 8005024:	6065      	str	r5, [r4, #4]
 8005026:	4630      	mov	r0, r6
 8005028:	6051      	str	r1, [r2, #4]
 800502a:	60ba      	str	r2, [r7, #8]
 800502c:	f000 f92a 	bl	8005284 <__malloc_unlock>
 8005030:	3408      	adds	r4, #8
 8005032:	e6a3      	b.n	8004d7c <_malloc_r+0x58>
 8005034:	200004e4 	.word	0x200004e4
 8005038:	200008f0 	.word	0x200008f0
 800503c:	2000090c 	.word	0x2000090c
 8005040:	20000908 	.word	0x20000908
 8005044:	20000904 	.word	0x20000904
 8005048:	20000910 	.word	0x20000910
 800504c:	f1bc 0f14 	cmp.w	ip, #20
 8005050:	d97b      	bls.n	800514a <_malloc_r+0x426>
 8005052:	f1bc 0f54 	cmp.w	ip, #84	; 0x54
 8005056:	f200 808d 	bhi.w	8005174 <_malloc_r+0x450>
 800505a:	ea4f 3415 	mov.w	r4, r5, lsr #12
 800505e:	f104 0e6e 	add.w	lr, r4, #110	; 0x6e
 8005062:	ea4f 014e 	mov.w	r1, lr, lsl #1
 8005066:	e6a2      	b.n	8004dae <_malloc_r+0x8a>
 8005068:	0a48      	lsrs	r0, r1, #9
 800506a:	2804      	cmp	r0, #4
 800506c:	d972      	bls.n	8005154 <_malloc_r+0x430>
 800506e:	2814      	cmp	r0, #20
 8005070:	f200 80ae 	bhi.w	80051d0 <_malloc_r+0x4ac>
 8005074:	f100 095b 	add.w	r9, r0, #91	; 0x5b
 8005078:	ea4f 0249 	mov.w	r2, r9, lsl #1
 800507c:	eb07 0082 	add.w	r0, r7, r2, lsl #2
 8005080:	f8df 81f0 	ldr.w	r8, [pc, #496]	; 8005274 <_malloc_r+0x550>
 8005084:	6883      	ldr	r3, [r0, #8]
 8005086:	4283      	cmp	r3, r0
 8005088:	f000 8081 	beq.w	800518e <_malloc_r+0x46a>
 800508c:	685a      	ldr	r2, [r3, #4]
 800508e:	f022 0203 	bic.w	r2, r2, #3
 8005092:	4291      	cmp	r1, r2
 8005094:	d202      	bcs.n	800509c <_malloc_r+0x378>
 8005096:	689b      	ldr	r3, [r3, #8]
 8005098:	4298      	cmp	r0, r3
 800509a:	d1f7      	bne.n	800508c <_malloc_r+0x368>
 800509c:	68da      	ldr	r2, [r3, #12]
 800509e:	f8d7 9004 	ldr.w	r9, [r7, #4]
 80050a2:	60e2      	str	r2, [r4, #12]
 80050a4:	60a3      	str	r3, [r4, #8]
 80050a6:	60dc      	str	r4, [r3, #12]
 80050a8:	6094      	str	r4, [r2, #8]
 80050aa:	e6c0      	b.n	8004e2e <_malloc_r+0x10a>
 80050ac:	1961      	adds	r1, r4, r5
 80050ae:	f042 0001 	orr.w	r0, r2, #1
 80050b2:	f045 0501 	orr.w	r5, r5, #1
 80050b6:	6065      	str	r5, [r4, #4]
 80050b8:	6159      	str	r1, [r3, #20]
 80050ba:	6119      	str	r1, [r3, #16]
 80050bc:	6048      	str	r0, [r1, #4]
 80050be:	f8c1 e00c 	str.w	lr, [r1, #12]
 80050c2:	f8c1 e008 	str.w	lr, [r1, #8]
 80050c6:	508a      	str	r2, [r1, r2]
 80050c8:	4630      	mov	r0, r6
 80050ca:	f000 f8db 	bl	8005284 <__malloc_unlock>
 80050ce:	3408      	adds	r4, #8
 80050d0:	e654      	b.n	8004d7c <_malloc_r+0x58>
 80050d2:	f8d3 9004 	ldr.w	r9, [r3, #4]
 80050d6:	e6aa      	b.n	8004e2e <_malloc_r+0x10a>
 80050d8:	f108 0801 	add.w	r8, r8, #1
 80050dc:	3408      	adds	r4, #8
 80050de:	f018 0f03 	tst.w	r8, #3
 80050e2:	f47f aeba 	bne.w	8004e5a <_malloc_r+0x136>
 80050e6:	4649      	mov	r1, r9
 80050e8:	f01c 0f03 	tst.w	ip, #3
 80050ec:	f1a1 0408 	sub.w	r4, r1, #8
 80050f0:	f10c 3cff 	add.w	ip, ip, #4294967295
 80050f4:	f000 80b0 	beq.w	8005258 <_malloc_r+0x534>
 80050f8:	6809      	ldr	r1, [r1, #0]
 80050fa:	42a1      	cmp	r1, r4
 80050fc:	d0f4      	beq.n	80050e8 <_malloc_r+0x3c4>
 80050fe:	687c      	ldr	r4, [r7, #4]
 8005100:	0040      	lsls	r0, r0, #1
 8005102:	42a0      	cmp	r0, r4
 8005104:	f63f aef1 	bhi.w	8004eea <_malloc_r+0x1c6>
 8005108:	2800      	cmp	r0, #0
 800510a:	f43f aeee 	beq.w	8004eea <_malloc_r+0x1c6>
 800510e:	4204      	tst	r4, r0
 8005110:	f000 80a7 	beq.w	8005262 <_malloc_r+0x53e>
 8005114:	46c4      	mov	ip, r8
 8005116:	e69c      	b.n	8004e52 <_malloc_r+0x12e>
 8005118:	f104 0308 	add.w	r3, r4, #8
 800511c:	6964      	ldr	r4, [r4, #20]
 800511e:	42a3      	cmp	r3, r4
 8005120:	bf08      	it	eq
 8005122:	f10c 0c02 	addeq.w	ip, ip, #2
 8005126:	f43f ae58 	beq.w	8004dda <_malloc_r+0xb6>
 800512a:	e617      	b.n	8004d5c <_malloc_r+0x38>
 800512c:	1859      	adds	r1, r3, r1
 800512e:	461c      	mov	r4, r3
 8005130:	6848      	ldr	r0, [r1, #4]
 8005132:	68db      	ldr	r3, [r3, #12]
 8005134:	f854 2f08 	ldr.w	r2, [r4, #8]!
 8005138:	f040 0001 	orr.w	r0, r0, #1
 800513c:	6048      	str	r0, [r1, #4]
 800513e:	60d3      	str	r3, [r2, #12]
 8005140:	609a      	str	r2, [r3, #8]
 8005142:	4630      	mov	r0, r6
 8005144:	f000 f89e 	bl	8005284 <__malloc_unlock>
 8005148:	e618      	b.n	8004d7c <_malloc_r+0x58>
 800514a:	f10c 0e5b 	add.w	lr, ip, #91	; 0x5b
 800514e:	ea4f 014e 	mov.w	r1, lr, lsl #1
 8005152:	e62c      	b.n	8004dae <_malloc_r+0x8a>
 8005154:	ea4f 1891 	mov.w	r8, r1, lsr #6
 8005158:	f108 0938 	add.w	r9, r8, #56	; 0x38
 800515c:	ea4f 0249 	mov.w	r2, r9, lsl #1
 8005160:	e78c      	b.n	800507c <_malloc_r+0x358>
 8005162:	42bc      	cmp	r4, r7
 8005164:	f43f aeee 	beq.w	8004f44 <_malloc_r+0x220>
 8005168:	4c42      	ldr	r4, [pc, #264]	; (8005274 <_malloc_r+0x550>)
 800516a:	68a4      	ldr	r4, [r4, #8]
 800516c:	6862      	ldr	r2, [r4, #4]
 800516e:	f022 0003 	bic.w	r0, r2, #3
 8005172:	e747      	b.n	8005004 <_malloc_r+0x2e0>
 8005174:	f5bc 7faa 	cmp.w	ip, #340	; 0x154
 8005178:	d81c      	bhi.n	80051b4 <_malloc_r+0x490>
 800517a:	ea4f 32d5 	mov.w	r2, r5, lsr #15
 800517e:	f102 0e77 	add.w	lr, r2, #119	; 0x77
 8005182:	ea4f 014e 	mov.w	r1, lr, lsl #1
 8005186:	e612      	b.n	8004dae <_malloc_r+0x8a>
 8005188:	f44f 5280 	mov.w	r2, #4096	; 0x1000
 800518c:	e6f8      	b.n	8004f80 <_malloc_r+0x25c>
 800518e:	f8d8 0004 	ldr.w	r0, [r8, #4]
 8005192:	ea4f 02a9 	mov.w	r2, r9, asr #2
 8005196:	2101      	movs	r1, #1
 8005198:	fa01 f202 	lsl.w	r2, r1, r2
 800519c:	ea42 0900 	orr.w	r9, r2, r0
 80051a0:	f8c8 9004 	str.w	r9, [r8, #4]
 80051a4:	461a      	mov	r2, r3
 80051a6:	e77c      	b.n	80050a2 <_malloc_r+0x37e>
 80051a8:	2201      	movs	r2, #1
 80051aa:	f8c8 2004 	str.w	r2, [r8, #4]
 80051ae:	4644      	mov	r4, r8
 80051b0:	2000      	movs	r0, #0
 80051b2:	e727      	b.n	8005004 <_malloc_r+0x2e0>
 80051b4:	f240 5354 	movw	r3, #1364	; 0x554
 80051b8:	459c      	cmp	ip, r3
 80051ba:	d824      	bhi.n	8005206 <_malloc_r+0x4e2>
 80051bc:	ea4f 4095 	mov.w	r0, r5, lsr #18
 80051c0:	f100 0e7c 	add.w	lr, r0, #124	; 0x7c
 80051c4:	ea4f 014e 	mov.w	r1, lr, lsl #1
 80051c8:	e5f1      	b.n	8004dae <_malloc_r+0x8a>
 80051ca:	f103 0c10 	add.w	ip, r3, #16
 80051ce:	e6a9      	b.n	8004f24 <_malloc_r+0x200>
 80051d0:	2854      	cmp	r0, #84	; 0x54
 80051d2:	d82c      	bhi.n	800522e <_malloc_r+0x50a>
 80051d4:	ea4f 3211 	mov.w	r2, r1, lsr #12
 80051d8:	f102 096e 	add.w	r9, r2, #110	; 0x6e
 80051dc:	ea4f 0249 	mov.w	r2, r9, lsl #1
 80051e0:	e74c      	b.n	800507c <_malloc_r+0x358>
 80051e2:	68bc      	ldr	r4, [r7, #8]
 80051e4:	6861      	ldr	r1, [r4, #4]
 80051e6:	f021 0003 	bic.w	r0, r1, #3
 80051ea:	e70b      	b.n	8005004 <_malloc_r+0x2e0>
 80051ec:	ea4f 500b 	mov.w	r0, fp, lsl #20
 80051f0:	0d01      	lsrs	r1, r0, #20
 80051f2:	2900      	cmp	r1, #0
 80051f4:	f47f aeb0 	bne.w	8004f58 <_malloc_r+0x234>
 80051f8:	68b8      	ldr	r0, [r7, #8]
 80051fa:	eb0c 0109 	add.w	r1, ip, r9
 80051fe:	f041 0401 	orr.w	r4, r1, #1
 8005202:	6044      	str	r4, [r0, #4]
 8005204:	e6f0      	b.n	8004fe8 <_malloc_r+0x2c4>
 8005206:	21fc      	movs	r1, #252	; 0xfc
 8005208:	f04f 0e7e 	mov.w	lr, #126	; 0x7e
 800520c:	e5cf      	b.n	8004dae <_malloc_r+0x8a>
 800520e:	481a      	ldr	r0, [pc, #104]	; (8005278 <_malloc_r+0x554>)
 8005210:	f8c0 8000 	str.w	r8, [r0]
 8005214:	e6a9      	b.n	8004f6a <_malloc_r+0x246>
 8005216:	f104 0108 	add.w	r1, r4, #8
 800521a:	4c18      	ldr	r4, [pc, #96]	; (800527c <_malloc_r+0x558>)
 800521c:	4630      	mov	r0, r6
 800521e:	f7ff fcb7 	bl	8004b90 <_free_r>
 8005222:	6823      	ldr	r3, [r4, #0]
 8005224:	e6e0      	b.n	8004fe8 <_malloc_r+0x2c4>
 8005226:	2001      	movs	r0, #1
 8005228:	f04f 0b00 	mov.w	fp, #0
 800522c:	e6bb      	b.n	8004fa6 <_malloc_r+0x282>
 800522e:	f5b0 7faa 	cmp.w	r0, #340	; 0x154
 8005232:	d806      	bhi.n	8005242 <_malloc_r+0x51e>
 8005234:	ea4f 33d1 	mov.w	r3, r1, lsr #15
 8005238:	f103 0977 	add.w	r9, r3, #119	; 0x77
 800523c:	ea4f 0249 	mov.w	r2, r9, lsl #1
 8005240:	e71c      	b.n	800507c <_malloc_r+0x358>
 8005242:	f240 5354 	movw	r3, #1364	; 0x554
 8005246:	4298      	cmp	r0, r3
 8005248:	d80f      	bhi.n	800526a <_malloc_r+0x546>
 800524a:	ea4f 4091 	mov.w	r0, r1, lsr #18
 800524e:	f100 097c 	add.w	r9, r0, #124	; 0x7c
 8005252:	ea4f 0249 	mov.w	r2, r9, lsl #1
 8005256:	e711      	b.n	800507c <_malloc_r+0x358>
 8005258:	687c      	ldr	r4, [r7, #4]
 800525a:	ea24 0400 	bic.w	r4, r4, r0
 800525e:	607c      	str	r4, [r7, #4]
 8005260:	e74e      	b.n	8005100 <_malloc_r+0x3dc>
 8005262:	0040      	lsls	r0, r0, #1
 8005264:	f108 0804 	add.w	r8, r8, #4
 8005268:	e751      	b.n	800510e <_malloc_r+0x3ea>
 800526a:	22fc      	movs	r2, #252	; 0xfc
 800526c:	f04f 097e 	mov.w	r9, #126	; 0x7e
 8005270:	e704      	b.n	800507c <_malloc_r+0x358>
 8005272:	bf00      	nop
 8005274:	200004e4 	.word	0x200004e4
 8005278:	200008f0 	.word	0x200008f0
 800527c:	20000910 	.word	0x20000910

08005280 <__malloc_lock>:
 8005280:	4770      	bx	lr
 8005282:	bf00      	nop

08005284 <__malloc_unlock>:
 8005284:	4770      	bx	lr
 8005286:	bf00      	nop

08005288 <_sbrk_r>:
 8005288:	b538      	push	{r3, r4, r5, lr}
 800528a:	4c07      	ldr	r4, [pc, #28]	; (80052a8 <_sbrk_r+0x20>)
 800528c:	2300      	movs	r3, #0
 800528e:	4605      	mov	r5, r0
 8005290:	4608      	mov	r0, r1
 8005292:	6023      	str	r3, [r4, #0]
 8005294:	f7fd feb8 	bl	8003008 <_sbrk>
 8005298:	1c43      	adds	r3, r0, #1
 800529a:	d000      	beq.n	800529e <_sbrk_r+0x16>
 800529c:	bd38      	pop	{r3, r4, r5, pc}
 800529e:	6821      	ldr	r1, [r4, #0]
 80052a0:	2900      	cmp	r1, #0
 80052a2:	d0fb      	beq.n	800529c <_sbrk_r+0x14>
 80052a4:	6029      	str	r1, [r5, #0]
 80052a6:	bd38      	pop	{r3, r4, r5, pc}
 80052a8:	20000c60 	.word	0x20000c60

080052ac <balanceLQR_M>:
 80052ac:	20000be8 00000043                       ... C...

080052b4 <_global_impure_ptr>:
 80052b4:	200000b8                                ... 
